TN:
SF:/home/savvich/lab3/CompleteBinaryTree.h
FN:115,128,_ZN18CompleteBinaryTree10saveToTextERKNSt7__cxx1112basic_stringIcSt11char_traitsIcESaIcEEE
FN:130,140,_ZN18CompleteBinaryTree12loadFromTextERKNSt7__cxx1112basic_stringIcSt11char_traitsIcESaIcEEE
FN:15,15,_ZN8TreeNodeC2Ei
FN:23,28,_ZN18CompleteBinaryTree10deleteTreeEP8TreeNode
FN:37,37,_ZN18CompleteBinaryTreeC2Ev
FN:39,41,_ZN18CompleteBinaryTreeD2Ev
FN:43,74,_ZN18CompleteBinaryTree6insertEi
FN:76,88,_ZNK18CompleteBinaryTree4findEi
FN:90,112,_ZNK18CompleteBinaryTree10isCompleteEv
FNDA:3,_ZN18CompleteBinaryTree10saveToTextERKNSt7__cxx1112basic_stringIcSt11char_traitsIcESaIcEEE
FNDA:3,_ZN18CompleteBinaryTree12loadFromTextERKNSt7__cxx1112basic_stringIcSt11char_traitsIcESaIcEEE
FNDA:16,_ZN8TreeNodeC2Ei
FNDA:40,_ZN18CompleteBinaryTree10deleteTreeEP8TreeNode
FNDA:5,_ZN18CompleteBinaryTreeC2Ev
FNDA:5,_ZN18CompleteBinaryTreeD2Ev
FNDA:16,_ZN18CompleteBinaryTree6insertEi
FNDA:7,_ZNK18CompleteBinaryTree4findEi
FNDA:2,_ZNK18CompleteBinaryTree10isCompleteEv
FNF:9
FNH:9
DA:15,16
DA:23,40
DA:24,40
DA:25,16
DA:26,16
DA:27,16
DA:37,5
DA:39,5
DA:40,5
DA:41,5
DA:43,16
DA:44,16
DA:45,16
DA:46,4
DA:47,4
DA:48,16
DA:51,12
DA:52,12
DA:54,16
DA:55,16
DA:56,16
DA:58,16
DA:59,6
DA:60,6
DA:61,6
DA:63,10
DA:66,10
DA:67,6
DA:68,6
DA:69,6
DA:71,4
DA:74,12
DA:76,7
DA:77,7
DA:78,6
DA:79,6
DA:80,30
DA:81,22
DA:82,22
DA:83,22
DA:84,18
DA:85,18
DA:87,2
DA:88,6
DA:90,2
DA:91,2
DA:92,1
DA:93,1
DA:94,1
DA:95,6
DA:96,5
DA:97,5
DA:98,5
DA:99,2
DA:100,2
DA:102,3
DA:104,5
DA:105,2
DA:106,2
DA:108,3
DA:111,1
DA:112,1
DA:115,3
DA:116,3
DA:117,3
DA:118,2
DA:119,2
DA:120,12
DA:121,8
DA:122,8
DA:123,8
DA:124,8
DA:125,8
DA:127,2
DA:128,3
DA:130,3
DA:131,3
DA:132,3
DA:133,3
DA:134,3
DA:136,11
DA:137,8
DA:139,3
DA:140,3
LF:84
LH:84
end_of_record
TN:
SF:/home/savvich/lab3/DoublyList.h
FN:111,119,_ZN10DoublyList8popFrontEv
FN:122,130,_ZN10DoublyList7popBackEv
FN:133,149,_ZN10DoublyList13removeByValueERKNSt7__cxx1112basic_stringIcSt11char_traitsIcESaIcEEE
FN:14,14,_ZN5DNodeC2ENSt7__cxx1112basic_stringIcSt11char_traitsIcESaIcEEE
FN:161,161,_ZNK10DoublyList7getTailB5cxx11Ev
FN:162,162,_ZNK10DoublyList7getSizeEv
FN:165,172,_ZNK10DoublyList12printForwardEv
FN:175,182,_ZNK10DoublyList13printBackwardEv
FN:184,192,_ZN10DoublyList10saveToTextERKNSt7__cxx1112basic_stringIcSt11char_traitsIcESaIcEEE
FN:194,203,_ZN10DoublyList12loadFromTextERKNSt7__cxx1112basic_stringIcSt11char_traitsIcESaIcEEE
FN:205,216,_ZN10DoublyList12saveToBinaryERKNSt7__cxx1112basic_stringIcSt11char_traitsIcESaIcEEE
FN:218,234,_ZN10DoublyList14loadFromBinaryERKNSt7__cxx1112basic_stringIcSt11char_traitsIcESaIcEEE
FN:24,24,_ZN10DoublyListC2Ev
FN:26,28,_ZN10DoublyListD2Ev
FN:30,38,_ZN10DoublyList5clearEv
FN:41,51,_ZN10DoublyList9pushFrontERKNSt7__cxx1112basic_stringIcSt11char_traitsIcESaIcEEE
FN:54,64,_ZN10DoublyList8pushBackERKNSt7__cxx1112basic_stringIcSt11char_traitsIcESaIcEEE
FN:67,86,_ZN10DoublyList11insertAfterERKNSt7__cxx1112basic_stringIcSt11char_traitsIcESaIcEEES7_
FN:89,108,_ZN10DoublyList12insertBeforeERKNSt7__cxx1112basic_stringIcSt11char_traitsIcESaIcEEES7_
FNDA:2,_ZN10DoublyList8popFrontEv
FNDA:3,_ZN10DoublyList7popBackEv
FNDA:4,_ZN10DoublyList13removeByValueERKNSt7__cxx1112basic_stringIcSt11char_traitsIcESaIcEEE
FNDA:16,_ZN5DNodeC2ENSt7__cxx1112basic_stringIcSt11char_traitsIcESaIcEEE
FNDA:4,_ZNK10DoublyList7getTailB5cxx11Ev
FNDA:7,_ZNK10DoublyList7getSizeEv
FNDA:1,_ZNK10DoublyList12printForwardEv
FNDA:1,_ZNK10DoublyList13printBackwardEv
FNDA:1,_ZN10DoublyList10saveToTextERKNSt7__cxx1112basic_stringIcSt11char_traitsIcESaIcEEE
FNDA:2,_ZN10DoublyList12loadFromTextERKNSt7__cxx1112basic_stringIcSt11char_traitsIcESaIcEEE
FNDA:1,_ZN10DoublyList12saveToBinaryERKNSt7__cxx1112basic_stringIcSt11char_traitsIcESaIcEEE
FNDA:2,_ZN10DoublyList14loadFromBinaryERKNSt7__cxx1112basic_stringIcSt11char_traitsIcESaIcEEE
FNDA:4,_ZN10DoublyListC2Ev
FNDA:4,_ZN10DoublyListD2Ev
FNDA:8,_ZN10DoublyList5clearEv
FNDA:3,_ZN10DoublyList9pushFrontERKNSt7__cxx1112basic_stringIcSt11char_traitsIcESaIcEEE
FNDA:9,_ZN10DoublyList8pushBackERKNSt7__cxx1112basic_stringIcSt11char_traitsIcESaIcEEE
FNDA:2,_ZN10DoublyList11insertAfterERKNSt7__cxx1112basic_stringIcSt11char_traitsIcESaIcEEES7_
FNDA:2,_ZN10DoublyList12insertBeforeERKNSt7__cxx1112basic_stringIcSt11char_traitsIcESaIcEEES7_
FNF:19
FNH:19
DA:14,16
DA:24,4
DA:26,4
DA:27,4
DA:28,4
DA:30,8
DA:31,26
DA:32,10
DA:33,10
DA:34,10
DA:36,8
DA:37,8
DA:38,8
DA:41,3
DA:42,3
DA:43,3
DA:44,2
DA:46,1
DA:47,1
DA:48,1
DA:50,3
DA:51,3
DA:54,9
DA:55,9
DA:56,9
DA:57,4
DA:59,5
DA:60,5
DA:61,5
DA:63,9
DA:64,9
DA:67,2
DA:68,2
DA:69,3
DA:70,3
DA:71,2
DA:72,2
DA:73,2
DA:75,2
DA:76,1
DA:78,1
DA:80,2
DA:81,2
DA:82,2
DA:84,1
DA:89,2
DA:90,2
DA:91,6
DA:92,6
DA:93,2
DA:94,2
DA:95,2
DA:97,2
DA:98,1
DA:100,1
DA:102,2
DA:103,2
DA:104,2
DA:106,4
DA:111,2
DA:112,2
DA:113,1
DA:114,1
DA:115,1
DA:116,1
DA:117,1
DA:118,1
DA:122,3
DA:123,3
DA:124,2
DA:125,2
DA:126,2
DA:127,1
DA:128,2
DA:129,2
DA:133,4
DA:134,4
DA:135,12
DA:136,11
DA:137,3
DA:138,1
DA:140,3
DA:141,1
DA:143,3
DA:144,3
DA:145,3
DA:147,8
DA:161,6
DA:162,7
DA:165,1
DA:166,1
DA:167,4
DA:168,3
DA:169,3
DA:171,1
DA:172,1
DA:175,1
DA:176,1
DA:177,4
DA:178,3
DA:179,3
DA:181,1
DA:182,1
DA:184,1
DA:185,1
DA:186,1
DA:187,4
DA:188,3
DA:189,3
DA:191,1
DA:192,1
DA:194,2
DA:195,2
DA:196,2
DA:197,2
DA:198,1
DA:199,4
DA:200,3
DA:202,1
DA:203,2
DA:205,1
DA:206,1
DA:207,1
DA:208,1
DA:209,4
DA:210,3
DA:211,3
DA:212,3
DA:213,3
DA:215,1
DA:216,1
DA:218,2
DA:219,2
DA:220,2
DA:221,2
DA:223,1
DA:224,4
DA:226,3
DA:227,3
DA:228,3
DA:229,3
DA:230,3
DA:231,3
DA:233,1
DA:234,2
LF:145
LH:145
end_of_record
TN:
SF:/home/savvich/lab3/DynamicArray.h
FN:105,108,_ZN12DynamicArray3setEiRKNSt7__cxx1112basic_stringIcSt11char_traitsIcESaIcEEE
FN:110,110,_ZNK12DynamicArray7getSizeEv
FN:112,118,_ZNK12DynamicArray5printEv
FN:121,128,_ZN12DynamicArray10saveToTextERKNSt7__cxx1112basic_stringIcSt11char_traitsIcESaIcEEE
FN:130,147,_ZN12DynamicArray12loadFromTextERKNSt7__cxx1112basic_stringIcSt11char_traitsIcESaIcEEE
FN:150,159,_ZN12DynamicArray12saveToBinaryERKNSt7__cxx1112basic_stringIcSt11char_traitsIcESaIcEEE
FN:161,180,_ZN12DynamicArray14loadFromBinaryERKNSt7__cxx1112basic_stringIcSt11char_traitsIcESaIcEEE
FN:17,28,_ZN12DynamicArray14resizeCapacityEv
FN:31,35,_ZN12DynamicArrayC2Ei
FN:37,39,_ZN12DynamicArrayD2Ev
FN:42,45,_ZN12DynamicArray8pushBackERKNSt7__cxx1112basic_stringIcSt11char_traitsIcESaIcEEE
FN:48,55,_ZN12DynamicArray9pushFrontERKNSt7__cxx1112basic_stringIcSt11char_traitsIcESaIcEEE
FN:58,66,_ZN12DynamicArray8insertAtEiRKNSt7__cxx1112basic_stringIcSt11char_traitsIcESaIcEEE
FN:69,71,_ZN12DynamicArray7popBackEv
FN:74,80,_ZN12DynamicArray8popFrontEv
FN:83,89,_ZN12DynamicArray8removeAtEi
FN:92,97,_ZNK12DynamicArray4findERKNSt7__cxx1112basic_stringIcSt11char_traitsIcESaIcEEE
FN:99,102,_ZNK12DynamicArray3getB5cxx11Ei
FNDA:4,_ZN12DynamicArray3setEiRKNSt7__cxx1112basic_stringIcSt11char_traitsIcESaIcEEE
FNDA:5,_ZNK12DynamicArray7getSizeEv
FNDA:1,_ZNK12DynamicArray5printEv
FNDA:2,_ZN12DynamicArray10saveToTextERKNSt7__cxx1112basic_stringIcSt11char_traitsIcESaIcEEE
FNDA:3,_ZN12DynamicArray12loadFromTextERKNSt7__cxx1112basic_stringIcSt11char_traitsIcESaIcEEE
FNDA:1,_ZN12DynamicArray12saveToBinaryERKNSt7__cxx1112basic_stringIcSt11char_traitsIcESaIcEEE
FNDA:2,_ZN12DynamicArray14loadFromBinaryERKNSt7__cxx1112basic_stringIcSt11char_traitsIcESaIcEEE
FNDA:11,_ZN12DynamicArray14resizeCapacityEv
FNDA:5,_ZN12DynamicArrayC2Ei
FNDA:5,_ZN12DynamicArrayD2Ev
FNDA:9,_ZN12DynamicArray8pushBackERKNSt7__cxx1112basic_stringIcSt11char_traitsIcESaIcEEE
FNDA:1,_ZN12DynamicArray9pushFrontERKNSt7__cxx1112basic_stringIcSt11char_traitsIcESaIcEEE
FNDA:3,_ZN12DynamicArray8insertAtEiRKNSt7__cxx1112basic_stringIcSt11char_traitsIcESaIcEEE
FNDA:3,_ZN12DynamicArray7popBackEv
FNDA:2,_ZN12DynamicArray8popFrontEv
FNDA:3,_ZN12DynamicArray8removeAtEi
FNDA:2,_ZNK12DynamicArray4findERKNSt7__cxx1112basic_stringIcSt11char_traitsIcESaIcEEE
FNDA:14,_ZNK12DynamicArray3getB5cxx11Ei
FNF:18
FNH:18
DA:17,11
DA:18,11
DA:19,2
DA:20,8
DA:21,5
DA:22,3
DA:24,5
DA:25,2
DA:26,2
DA:28,11
DA:31,5
DA:32,5
DA:33,5
DA:34,46
DA:35,5
DA:37,5
DA:38,27
DA:39,5
DA:42,9
DA:43,9
DA:44,9
DA:45,9
DA:48,1
DA:49,1
DA:50,3
DA:51,2
DA:53,1
DA:54,1
DA:55,1
DA:58,3
DA:59,3
DA:60,1
DA:61,3
DA:62,2
DA:64,1
DA:65,1
DA:66,1
DA:69,3
DA:70,3
DA:71,3
DA:74,2
DA:75,2
DA:76,3
DA:77,2
DA:79,1
DA:83,3
DA:84,3
DA:85,3
DA:86,2
DA:88,1
DA:89,1
DA:92,2
DA:93,7
DA:94,6
DA:96,1
DA:99,14
DA:100,14
DA:101,11
DA:105,4
DA:106,4
DA:107,2
DA:108,2
DA:110,5
DA:112,1
DA:113,1
DA:114,2
DA:115,1
DA:117,1
DA:118,1
DA:121,2
DA:122,2
DA:123,2
DA:124,5
DA:125,3
DA:127,2
DA:128,2
DA:130,3
DA:131,3
DA:132,3
DA:134,2
DA:135,2
DA:137,22
DA:138,2
DA:139,8
DA:140,2
DA:142,5
DA:143,3
DA:144,3
DA:145,3
DA:146,2
DA:147,3
DA:150,1
DA:151,1
DA:152,1
DA:153,2
DA:154,1
DA:155,1
DA:156,1
DA:158,1
DA:159,1
DA:161,2
DA:162,2
DA:163,2
DA:165,1
DA:166,11
DA:167,1
DA:168,3
DA:169,1
DA:170,2
DA:172,1
DA:173,1
DA:174,1
DA:175,1
DA:176,1
DA:177,1
DA:179,1
DA:180,2
LF:117
LH:117
end_of_record
TN:
SF:/home/savvich/lab3/HashTable.h
FN:23,29,_ZNK9HashTable12hashFunctionERKNSt7__cxx1112basic_stringIcSt11char_traitsIcESaIcEEE
FN:32,34,_ZN9HashTableC2Ei
FN:36,46,_ZN9HashTable3putERKNSt7__cxx1112basic_stringIcSt11char_traitsIcESaIcEEES7_
FN:48,56,_ZNK9HashTable3getERKNSt7__cxx1112basic_stringIcSt11char_traitsIcESaIcEEE
FN:58,68,_ZN9HashTable6removeERKNSt7__cxx1112basic_stringIcSt11char_traitsIcESaIcEEE
FN:72,81,_ZN9HashTable10saveToTextERKNSt7__cxx1112basic_stringIcSt11char_traitsIcESaIcEEE
FN:83,98,_ZN9HashTable12loadFromTextERKNSt7__cxx1112basic_stringIcSt11char_traitsIcESaIcEEE
FNDA:19,_ZNK9HashTable12hashFunctionERKNSt7__cxx1112basic_stringIcSt11char_traitsIcESaIcEEE
FNDA:3,_ZN9HashTableC2Ei
FNDA:8,_ZN9HashTable3putERKNSt7__cxx1112basic_stringIcSt11char_traitsIcESaIcEEES7_
FNDA:8,_ZNK9HashTable3getERKNSt7__cxx1112basic_stringIcSt11char_traitsIcESaIcEEE
FNDA:3,_ZN9HashTable6removeERKNSt7__cxx1112basic_stringIcSt11char_traitsIcESaIcEEE
FNDA:1,_ZN9HashTable10saveToTextERKNSt7__cxx1112basic_stringIcSt11char_traitsIcESaIcEEE
FNDA:2,_ZN9HashTable12loadFromTextERKNSt7__cxx1112basic_stringIcSt11char_traitsIcESaIcEEE
FNF:7
FNH:7
DA:23,19
DA:24,19
DA:25,101
DA:26,82
DA:28,19
DA:32,3
DA:33,3
DA:34,3
DA:36,8
DA:37,8
DA:38,9
DA:39,2
DA:40,1
DA:41,1
DA:44,14
DA:45,7
DA:46,7
DA:48,8
DA:49,8
DA:50,12
DA:51,9
DA:52,5
DA:55,6
DA:58,3
DA:59,3
DA:60,3
DA:61,4
DA:62,3
DA:63,2
DA:64,2
DA:65,2
DA:72,1
DA:73,1
DA:74,1
DA:75,3
DA:76,4
DA:77,2
DA:80,1
DA:81,1
DA:83,2
DA:84,2
DA:85,2
DA:87,1
DA:89,6
DA:90,1
DA:92,1
DA:93,3
DA:94,2
DA:95,2
DA:97,1
DA:98,2
LF:51
LH:51
end_of_record
TN:
SF:/home/savvich/lab3/Queue.h
FN:108,129,_ZN5Queue14loadFromBinaryERKNSt7__cxx1112basic_stringIcSt11char_traitsIcESaIcEEE
FN:19,25,_ZN5QueueC2Ei
FN:27,29,_ZN5QueueD2Ev
FN:31,42,_ZN5Queue6resizeEv
FN:44,49,_ZN5Queue4pushERKNSt7__cxx1112basic_stringIcSt11char_traitsIcESaIcEEE
FN:51,57,_ZN5Queue3popB5cxx11Ev
FN:59,62,_ZNK5Queue4peekB5cxx11Ev
FN:64,64,_ZNK5Queue7getSizeEv
FN:67,74,_ZN5Queue10saveToTextERKNSt7__cxx1112basic_stringIcSt11char_traitsIcESaIcEEE
FN:76,93,_ZN5Queue12loadFromTextERKNSt7__cxx1112basic_stringIcSt11char_traitsIcESaIcEEE
FN:96,106,_ZN5Queue12saveToBinaryERKNSt7__cxx1112basic_stringIcSt11char_traitsIcESaIcEEE
FNDA:3,_ZN5Queue14loadFromBinaryERKNSt7__cxx1112basic_stringIcSt11char_traitsIcESaIcEEE
FNDA:6,_ZN5QueueC2Ei
FNDA:6,_ZN5QueueD2Ev
FNDA:1,_ZN5Queue6resizeEv
FNDA:14,_ZN5Queue4pushERKNSt7__cxx1112basic_stringIcSt11char_traitsIcESaIcEEE
FNDA:6,_ZN5Queue3popB5cxx11Ev
FNDA:5,_ZNK5Queue4peekB5cxx11Ev
FNDA:2,_ZNK5Queue7getSizeEv
FNDA:1,_ZN5Queue10saveToTextERKNSt7__cxx1112basic_stringIcSt11char_traitsIcESaIcEEE
FNDA:2,_ZN5Queue12loadFromTextERKNSt7__cxx1112basic_stringIcSt11char_traitsIcESaIcEEE
FNDA:2,_ZN5Queue12saveToBinaryERKNSt7__cxx1112basic_stringIcSt11char_traitsIcESaIcEEE
FNF:11
FNH:11
DA:19,6
DA:20,6
DA:21,52
DA:22,6
DA:23,6
DA:24,6
DA:25,6
DA:27,6
DA:28,31
DA:29,6
DA:31,1
DA:32,1
DA:33,7
DA:34,4
DA:35,3
DA:37,4
DA:38,1
DA:39,1
DA:40,1
DA:41,1
DA:42,1
DA:44,14
DA:45,14
DA:46,14
DA:47,14
DA:48,14
DA:49,14
DA:51,6
DA:52,8
DA:53,5
DA:54,5
DA:55,5
DA:56,5
DA:57,5
DA:59,5
DA:60,7
DA:61,4
DA:64,2
DA:67,1
DA:68,1
DA:69,1
DA:70,2
DA:71,1
DA:73,1
DA:74,1
DA:76,2
DA:77,2
DA:78,2
DA:80,1
DA:81,1
DA:83,11
DA:84,1
DA:85,3
DA:86,1
DA:88,2
DA:89,1
DA:90,1
DA:91,1
DA:92,1
DA:93,2
DA:96,2
DA:97,2
DA:98,2
DA:99,4
DA:100,2
DA:101,2
DA:102,2
DA:103,2
DA:104,2
DA:105,2
DA:106,2
DA:108,3
DA:109,3
DA:110,3
DA:112,2
DA:114,22
DA:115,2
DA:116,6
DA:117,2
DA:119,4
DA:121,2
DA:122,2
DA:123,2
DA:124,2
DA:125,2
DA:126,2
DA:128,2
DA:129,3
LF:88
LH:88
end_of_record
TN:
SF:/home/savvich/lab3/SinglyList.h
FN:109,124,_ZN10SinglyList7popBackEv
FN:127,147,_ZN10SinglyList13removeByValueERKNSt7__cxx1112basic_stringIcSt11char_traitsIcESaIcEEE
FN:13,13,_ZN4NodeC2ENSt7__cxx1112basic_stringIcSt11char_traitsIcESaIcEEE
FN:150,157,_ZNK10SinglyList6searchERKNSt7__cxx1112basic_stringIcSt11char_traitsIcESaIcEEE
FN:159,159,_ZNK10SinglyList7getHeadB5cxx11Ev
FN:160,160,_ZNK10SinglyList7getSizeEv
FN:162,169,_ZNK10SinglyList5printEv
FN:171,179,_ZN10SinglyList10saveToTextERKNSt7__cxx1112basic_stringIcSt11char_traitsIcESaIcEEE
FN:181,190,_ZN10SinglyList12loadFromTextERKNSt7__cxx1112basic_stringIcSt11char_traitsIcESaIcEEE
FN:192,204,_ZN10SinglyList12saveToBinaryERKNSt7__cxx1112basic_stringIcSt11char_traitsIcESaIcEEE
FN:206,222,_ZN10SinglyList14loadFromBinaryERKNSt7__cxx1112basic_stringIcSt11char_traitsIcESaIcEEE
FN:23,23,_ZN10SinglyListC2Ev
FN:25,27,_ZN10SinglyListD2Ev
FN:29,37,_ZN10SinglyList5clearEv
FN:40,46,_ZN10SinglyList9pushFrontERKNSt7__cxx1112basic_stringIcSt11char_traitsIcESaIcEEE
FN:49,58,_ZN10SinglyList8pushBackERKNSt7__cxx1112basic_stringIcSt11char_traitsIcESaIcEEE
FN:61,74,_ZN10SinglyList11insertAfterERKNSt7__cxx1112basic_stringIcSt11char_traitsIcESaIcEEES7_
FN:77,96,_ZN10SinglyList12insertBeforeERKNSt7__cxx1112basic_stringIcSt11char_traitsIcESaIcEEES7_
FN:99,106,_ZN10SinglyList8popFrontEv
FNDA:2,_ZN10SinglyList7popBackEv
FNDA:5,_ZN10SinglyList13removeByValueERKNSt7__cxx1112basic_stringIcSt11char_traitsIcESaIcEEE
FNDA:13,_ZN4NodeC2ENSt7__cxx1112basic_stringIcSt11char_traitsIcESaIcEEE
FNDA:2,_ZNK10SinglyList6searchERKNSt7__cxx1112basic_stringIcSt11char_traitsIcESaIcEEE
FNDA:4,_ZNK10SinglyList7getHeadB5cxx11Ev
FNDA:8,_ZNK10SinglyList7getSizeEv
FNDA:1,_ZNK10SinglyList5printEv
FNDA:1,_ZN10SinglyList10saveToTextERKNSt7__cxx1112basic_stringIcSt11char_traitsIcESaIcEEE
FNDA:2,_ZN10SinglyList12loadFromTextERKNSt7__cxx1112basic_stringIcSt11char_traitsIcESaIcEEE
FNDA:1,_ZN10SinglyList12saveToBinaryERKNSt7__cxx1112basic_stringIcSt11char_traitsIcESaIcEEE
FNDA:2,_ZN10SinglyList14loadFromBinaryERKNSt7__cxx1112basic_stringIcSt11char_traitsIcESaIcEEE
FNDA:4,_ZN10SinglyListC2Ev
FNDA:4,_ZN10SinglyListD2Ev
FNDA:9,_ZN10SinglyList5clearEv
FNDA:2,_ZN10SinglyList9pushFrontERKNSt7__cxx1112basic_stringIcSt11char_traitsIcESaIcEEE
FNDA:8,_ZN10SinglyList8pushBackERKNSt7__cxx1112basic_stringIcSt11char_traitsIcESaIcEEE
FNDA:2,_ZN10SinglyList11insertAfterERKNSt7__cxx1112basic_stringIcSt11char_traitsIcESaIcEEES7_
FNDA:3,_ZN10SinglyList12insertBeforeERKNSt7__cxx1112basic_stringIcSt11char_traitsIcESaIcEEES7_
FNDA:4,_ZN10SinglyList8popFrontEv
FNF:19
FNH:19
DA:13,13
DA:23,4
DA:25,4
DA:26,4
DA:27,4
DA:29,9
DA:30,25
DA:31,7
DA:32,7
DA:33,7
DA:35,9
DA:36,9
DA:37,9
DA:40,2
DA:41,2
DA:42,2
DA:43,2
DA:44,2
DA:45,2
DA:46,2
DA:49,8
DA:50,8
DA:51,8
DA:52,5
DA:54,3
DA:55,3
DA:57,8
DA:58,8
DA:61,2
DA:62,2
DA:63,2
DA:64,2
DA:65,2
DA:66,2
DA:67,2
DA:68,2
DA:69,2
DA:70,2
DA:72,0
DA:77,3
DA:78,3
DA:80,3
DA:81,1
DA:82,1
DA:85,2
DA:86,8
DA:87,7
DA:88,1
DA:89,1
DA:90,1
DA:91,1
DA:92,1
DA:94,6
DA:99,4
DA:100,4
DA:101,3
DA:102,3
DA:103,3
DA:104,3
DA:105,3
DA:109,2
DA:110,2
DA:111,1
DA:112,1
DA:113,1
DA:115,0
DA:116,0
DA:117,0
DA:119,0
DA:120,0
DA:121,0
DA:123,1
DA:127,5
DA:128,5
DA:130,4
DA:131,1
DA:132,1
DA:135,3
DA:136,6
DA:137,5
DA:138,2
DA:139,2
DA:140,2
DA:141,2
DA:142,2
DA:143,2
DA:145,3
DA:150,2
DA:151,2
DA:152,4
DA:153,3
DA:154,2
DA:156,1
DA:159,6
DA:160,8
DA:162,1
DA:163,1
DA:164,3
DA:165,2
DA:166,2
DA:168,1
DA:169,1
DA:171,1
DA:172,1
DA:173,1
DA:174,3
DA:175,2
DA:176,2
DA:178,1
DA:179,1
DA:181,2
DA:182,2
DA:183,2
DA:184,2
DA:185,1
DA:186,3
DA:187,2
DA:189,1
DA:190,2
DA:192,1
DA:193,1
DA:194,1
DA:195,1
DA:196,1
DA:197,3
DA:198,2
DA:199,2
DA:200,2
DA:201,2
DA:203,1
DA:204,1
DA:206,2
DA:207,2
DA:208,2
DA:209,2
DA:211,1
DA:212,3
DA:214,2
DA:215,2
DA:216,2
DA:217,2
DA:218,2
DA:219,2
DA:221,1
DA:222,2
LF:145
LH:138
end_of_record
TN:
SF:/home/savvich/lab3/Stack.h
FN:17,26,_ZN5Stack6resizeEv
FN:29,33,_ZN5StackC2Ei
FN:35,37,_ZN5StackD2Ev
FN:39,44,_ZN5Stack4pushERKNSt7__cxx1112basic_stringIcSt11char_traitsIcESaIcEEE
FN:46,51,_ZN5Stack3popB5cxx11Ev
FN:53,56,_ZNK5Stack4peekB5cxx11Ev
FN:58,58,_ZNK5Stack7getSizeEv
FN:60,67,_ZN5Stack10saveToTextERKNSt7__cxx1112basic_stringIcSt11char_traitsIcESaIcEEE
FN:69,86,_ZN5Stack12loadFromTextERKNSt7__cxx1112basic_stringIcSt11char_traitsIcESaIcEEE
FN:88,97,_ZN5Stack12saveToBinaryERKNSt7__cxx1112basic_stringIcSt11char_traitsIcESaIcEEE
FN:99,120,_ZN5Stack14loadFromBinaryERKNSt7__cxx1112basic_stringIcSt11char_traitsIcESaIcEEE
FNDA:1,_ZN5Stack6resizeEv
FNDA:4,_ZN5StackC2Ei
FNDA:4,_ZN5StackD2Ev
FNDA:5,_ZN5Stack4pushERKNSt7__cxx1112basic_stringIcSt11char_traitsIcESaIcEEE
FNDA:3,_ZN5Stack3popB5cxx11Ev
FNDA:3,_ZNK5Stack4peekB5cxx11Ev
FNDA:4,_ZNK5Stack7getSizeEv
FNDA:1,_ZN5Stack10saveToTextERKNSt7__cxx1112basic_stringIcSt11char_traitsIcESaIcEEE
FNDA:2,_ZN5Stack12loadFromTextERKNSt7__cxx1112basic_stringIcSt11char_traitsIcESaIcEEE
FNDA:1,_ZN5Stack12saveToBinaryERKNSt7__cxx1112basic_stringIcSt11char_traitsIcESaIcEEE
FNDA:2,_ZN5Stack14loadFromBinaryERKNSt7__cxx1112basic_stringIcSt11char_traitsIcESaIcEEE
FNF:11
FNH:11
DA:17,1
DA:18,1
DA:19,3
DA:20,2
DA:21,1
DA:23,2
DA:24,1
DA:25,1
DA:26,1
DA:29,4
DA:30,4
DA:31,4
DA:32,35
DA:33,4
DA:35,4
DA:36,20
DA:37,4
DA:39,5
DA:40,5
DA:41,1
DA:43,5
DA:44,5
DA:46,3
DA:47,5
DA:48,2
DA:49,2
DA:50,2
DA:51,2
DA:53,3
DA:54,5
DA:55,2
DA:58,4
DA:60,1
DA:61,1
DA:62,1
DA:63,2
DA:64,1
DA:66,1
DA:67,1
DA:69,2
DA:70,2
DA:71,2
DA:73,1
DA:74,1
DA:76,11
DA:77,1
DA:78,3
DA:79,1
DA:81,2
DA:82,1
DA:83,1
DA:84,1
DA:85,1
DA:86,2
DA:88,1
DA:89,1
DA:90,1
DA:91,2
DA:92,1
DA:93,1
DA:94,1
DA:96,1
DA:97,1
DA:99,2
DA:100,2
DA:101,2
DA:103,1
DA:105,11
DA:106,1
DA:107,3
DA:108,1
DA:110,2
DA:112,1
DA:113,1
DA:114,1
DA:115,1
DA:116,1
DA:117,1
DA:119,1
DA:120,2
LF:80
LH:80
end_of_record
