TN:
SF:/home/savvich/lab3/CompleteBinaryTree.h
FN:12,12,_ZN8TreeNodeC2Ei
FN:20,25,_ZN18CompleteBinaryTree10deleteTreeEP8TreeNode
FN:28,28,_ZN18CompleteBinaryTreeC2Ev
FN:29,29,_ZN18CompleteBinaryTreeD2Ev
FN:32,56,_ZN18CompleteBinaryTree6insertEi
FN:58,70,_ZN18CompleteBinaryTree4findEi
FN:72,87,_ZN18CompleteBinaryTree10saveToTextENSt7__cxx1112basic_stringIcSt11char_traitsIcESaIcEEE
FN:89,104,_ZN18CompleteBinaryTree12loadFromTextENSt7__cxx1112basic_stringIcSt11char_traitsIcESaIcEEE
FNDA:6,_ZN8TreeNodeC2Ei
FNDA:16,_ZN18CompleteBinaryTree10deleteTreeEP8TreeNode
FNDA:3,_ZN18CompleteBinaryTreeC2Ev
FNDA:3,_ZN18CompleteBinaryTreeD2Ev
FNDA:6,_ZN18CompleteBinaryTree6insertEi
FNDA:6,_ZN18CompleteBinaryTree4findEi
FNDA:2,_ZN18CompleteBinaryTree10saveToTextENSt7__cxx1112basic_stringIcSt11char_traitsIcESaIcEEE
FNDA:1,_ZN18CompleteBinaryTree12loadFromTextENSt7__cxx1112basic_stringIcSt11char_traitsIcESaIcEEE
FNF:8
FNH:8
DA:12,6
DA:20,16
DA:21,16
DA:22,6
DA:23,6
DA:24,6
DA:28,3
DA:29,3
DA:32,6
DA:33,6
DA:34,6
DA:35,2
DA:36,2
DA:37,6
DA:39,4
DA:40,4
DA:41,4
DA:42,4
DA:43,4
DA:44,4
DA:45,2
DA:46,2
DA:47,2
DA:48,2
DA:50,2
DA:51,2
DA:52,2
DA:53,2
DA:54,0
DA:56,4
DA:58,6
DA:59,6
DA:60,5
DA:61,5
DA:62,17
DA:63,11
DA:64,11
DA:65,11
DA:66,7
DA:67,7
DA:69,1
DA:70,5
DA:72,2
DA:73,2
DA:74,2
DA:75,2
DA:77,1
DA:78,1
DA:79,5
DA:80,3
DA:81,3
DA:82,3
DA:83,3
DA:84,3
DA:86,1
DA:87,2
DA:89,1
DA:90,1
DA:92,1
DA:94,1
DA:95,1
DA:96,1
DA:99,4
DA:100,3
DA:101,3
DA:103,1
DA:104,1
LF:67
LH:66
end_of_record
TN:
SF:/home/savvich/lab3/DoublyList.h
FN:10,10,_ZN5DNodeC2ENSt7__cxx1112basic_stringIcSt11char_traitsIcESaIcEEE
FN:18,18,_ZN10DoublyListC2Ev
FN:20,28,_ZN10DoublyList8pushBackENSt7__cxx1112basic_stringIcSt11char_traitsIcESaIcEEE
FN:30,33,_ZN10DoublyList7getTailB5cxx11Ev
FNDA:2,_ZN5DNodeC2ENSt7__cxx1112basic_stringIcSt11char_traitsIcESaIcEEE
FNDA:2,_ZN10DoublyListC2Ev
FNDA:2,_ZN10DoublyList8pushBackENSt7__cxx1112basic_stringIcSt11char_traitsIcESaIcEEE
FNDA:2,_ZN10DoublyList7getTailB5cxx11Ev
FNF:4
FNH:4
DA:10,2
DA:18,2
DA:20,2
DA:21,2
DA:22,2
DA:24,1
DA:25,1
DA:26,1
DA:28,2
DA:30,2
DA:31,4
DA:32,1
LF:12
LH:12
end_of_record
TN:
SF:/home/savvich/lab3/DynamicArray.h
FN:14,20,_ZN12DynamicArray6resizeEv
FN:24,28,_ZN12DynamicArrayC2Ei
FN:31,33,_ZN12DynamicArrayD2Ev
FN:35,38,_ZN12DynamicArray8pushBackENSt7__cxx1112basic_stringIcSt11char_traitsIcESaIcEEE
FN:40,43,_ZN12DynamicArray3getB5cxx11Ei
FN:45,45,_ZN12DynamicArray7getSizeEv
FN:48,53,_ZN12DynamicArray10saveToTextENSt7__cxx1112basic_stringIcSt11char_traitsIcESaIcEEE
FN:56,71,_ZN12DynamicArray12loadFromTextENSt7__cxx1112basic_stringIcSt11char_traitsIcESaIcEEE
FN:74,83,_ZN12DynamicArray12saveToBinaryENSt7__cxx1112basic_stringIcSt11char_traitsIcESaIcEEE
FN:86,103,_ZN12DynamicArray14loadFromBinaryENSt7__cxx1112basic_stringIcSt11char_traitsIcESaIcEEE
FNDA:3,_ZN12DynamicArray6resizeEv
FNDA:6,_ZN12DynamicArrayC2Ei
FNDA:6,_ZN12DynamicArrayD2Ev
FNDA:66,_ZN12DynamicArray8pushBackENSt7__cxx1112basic_stringIcSt11char_traitsIcESaIcEEE
FNDA:10,_ZN12DynamicArray3getB5cxx11Ei
FNDA:13,_ZN12DynamicArray7getSizeEv
FNDA:2,_ZN12DynamicArray10saveToTextENSt7__cxx1112basic_stringIcSt11char_traitsIcESaIcEEE
FNDA:3,_ZN12DynamicArray12loadFromTextENSt7__cxx1112basic_stringIcSt11char_traitsIcESaIcEEE
FNDA:1,_ZN12DynamicArray12saveToBinaryENSt7__cxx1112basic_stringIcSt11char_traitsIcESaIcEEE
FNDA:2,_ZN12DynamicArray14loadFromBinaryENSt7__cxx1112basic_stringIcSt11char_traitsIcESaIcEEE
FNF:10
FNH:10
DA:14,3
DA:15,3
DA:16,63
DA:17,33
DA:18,33
DA:19,3
DA:20,3
DA:24,6
DA:25,6
DA:26,6
DA:27,66
DA:28,6
DA:31,6
DA:32,96
DA:33,6
DA:35,66
DA:36,66
DA:37,66
DA:38,66
DA:40,10
DA:41,10
DA:42,8
DA:45,13
DA:48,2
DA:49,2
DA:50,2
DA:51,25
DA:52,2
DA:53,2
DA:56,3
DA:57,3
DA:58,3
DA:60,2
DA:61,2
DA:62,2
DA:65,2
DA:66,25
DA:67,23
DA:68,23
DA:70,2
DA:71,3
DA:74,1
DA:75,1
DA:76,1
DA:77,21
DA:78,20
DA:79,20
DA:80,20
DA:82,1
DA:83,1
DA:86,2
DA:87,2
DA:88,2
DA:90,1
DA:92,1
DA:93,21
DA:95,20
DA:96,20
DA:97,20
DA:98,20
DA:99,20
DA:100,20
DA:102,1
DA:103,2
LF:64
LH:64
end_of_record
TN:
SF:/home/savvich/lab3/HashTable.h
FN:22,26,_ZN9HashTable8hashFuncENSt7__cxx1112basic_stringIcSt11char_traitsIcESaIcEEE
FN:29,31,_ZN9HashTableC2Ei
FN:33,44,_ZN9HashTable3putENSt7__cxx1112basic_stringIcSt11char_traitsIcESaIcEEES5_
FN:46,57,_ZN9HashTable3getENSt7__cxx1112basic_stringIcSt11char_traitsIcESaIcEEE
FN:60,69,_ZN9HashTable10saveToTextENSt7__cxx1112basic_stringIcSt11char_traitsIcESaIcEEE
FN:71,88,_ZN9HashTable12loadFromTextENSt7__cxx1112basic_stringIcSt11char_traitsIcESaIcEEE
FNDA:12,_ZN9HashTable8hashFuncENSt7__cxx1112basic_stringIcSt11char_traitsIcESaIcEEE
FNDA:2,_ZN9HashTableC2Ei
FNDA:7,_ZN9HashTable3putENSt7__cxx1112basic_stringIcSt11char_traitsIcESaIcEEES5_
FNDA:5,_ZN9HashTable3getENSt7__cxx1112basic_stringIcSt11char_traitsIcESaIcEEE
FNDA:1,_ZN9HashTable10saveToTextENSt7__cxx1112basic_stringIcSt11char_traitsIcESaIcEEE
FNDA:1,_ZN9HashTable12loadFromTextENSt7__cxx1112basic_stringIcSt11char_traitsIcESaIcEEE
FNF:6
FNH:6
DA:22,12
DA:23,12
DA:24,24
DA:25,12
DA:29,2
DA:30,2
DA:31,2
DA:33,7
DA:34,7
DA:35,13
DA:36,7
DA:37,1
DA:38,1
DA:40,6
DA:42,6
DA:43,6
DA:44,6
DA:46,5
DA:47,5
DA:48,5
DA:49,9
DA:50,8
DA:51,4
DA:53,4
DA:54,4
DA:56,2
DA:60,1
DA:61,1
DA:62,1
DA:63,6
DA:64,5
DA:65,3
DA:68,1
DA:69,1
DA:71,1
DA:72,1
DA:74,1
DA:75,1
DA:76,1
DA:79,1
DA:80,1
DA:82,4
DA:83,3
DA:84,3
DA:85,3
DA:87,1
DA:88,1
LF:47
LH:47
end_of_record
TN:
SF:/home/savvich/lab3/Queue.h
FN:17,19,_ZN5QueueC2Ei
FN:21,21,_ZN5QueueD2Ev
FN:23,28,_ZN5Queue4pushENSt7__cxx1112basic_stringIcSt11char_traitsIcESaIcEEE
FN:30,36,_ZN5Queue3popB5cxx11Ev
FN:39,46,_ZN5Queue10saveToTextENSt7__cxx1112basic_stringIcSt11char_traitsIcESaIcEEE
FN:48,62,_ZN5Queue12loadFromTextENSt7__cxx1112basic_stringIcSt11char_traitsIcESaIcEEE
FNDA:3,_ZN5QueueC2Ei
FNDA:3,_ZN5QueueD2Ev
FNDA:6,_ZN5Queue4pushENSt7__cxx1112basic_stringIcSt11char_traitsIcESaIcEEE
FNDA:3,_ZN5Queue3popB5cxx11Ev
FNDA:1,_ZN5Queue10saveToTextENSt7__cxx1112basic_stringIcSt11char_traitsIcESaIcEEE
FNDA:1,_ZN5Queue12loadFromTextENSt7__cxx1112basic_stringIcSt11char_traitsIcESaIcEEE
FNF:6
FNH:6
DA:17,3
DA:18,26
DA:19,3
DA:21,26
DA:23,6
DA:24,6
DA:25,5
DA:26,5
DA:27,5
DA:30,3
DA:31,5
DA:32,2
DA:33,2
DA:34,2
DA:35,2
DA:36,2
DA:39,1
DA:40,1
DA:41,1
DA:42,3
DA:43,2
DA:45,1
DA:46,1
DA:48,1
DA:49,1
DA:51,1
DA:52,1
DA:53,1
DA:56,1
DA:57,3
DA:58,2
DA:59,2
DA:61,1
DA:62,1
LF:34
LH:34
end_of_record
TN:
SF:/home/savvich/lab3/SinglyList.h
FN:11,11,_ZN5SNodeC2ENSt7__cxx1112basic_stringIcSt11char_traitsIcESaIcEEE
FN:21,21,_ZN10SinglyListC2Ev
FN:23,29,_ZN10SinglyListD2Ev
FN:31,39,_ZN10SinglyList8pushBackENSt7__cxx1112basic_stringIcSt11char_traitsIcESaIcEEE
FN:41,44,_ZN10SinglyList7getHeadB5cxx11Ev
FN:46,55,_ZN10SinglyList10saveToTextENSt7__cxx1112basic_stringIcSt11char_traitsIcESaIcEEE
FN:57,70,_ZN10SinglyList12loadFromTextENSt7__cxx1112basic_stringIcSt11char_traitsIcESaIcEEE
FN:73,84,_ZN10SinglyList12saveToBinaryENSt7__cxx1112basic_stringIcSt11char_traitsIcESaIcEEE
FNDA:4,_ZN5SNodeC2ENSt7__cxx1112basic_stringIcSt11char_traitsIcESaIcEEE
FNDA:3,_ZN10SinglyListC2Ev
FNDA:3,_ZN10SinglyListD2Ev
FNDA:4,_ZN10SinglyList8pushBackENSt7__cxx1112basic_stringIcSt11char_traitsIcESaIcEEE
FNDA:2,_ZN10SinglyList7getHeadB5cxx11Ev
FNDA:1,_ZN10SinglyList10saveToTextENSt7__cxx1112basic_stringIcSt11char_traitsIcESaIcEEE
FNDA:1,_ZN10SinglyList12loadFromTextENSt7__cxx1112basic_stringIcSt11char_traitsIcESaIcEEE
FNDA:2,_ZN10SinglyList12saveToBinaryENSt7__cxx1112basic_stringIcSt11char_traitsIcESaIcEEE
FNF:8
FNH:8
DA:11,4
DA:21,3
DA:23,3
DA:24,10
DA:25,4
DA:26,4
DA:27,4
DA:29,3
DA:31,4
DA:32,4
DA:33,4
DA:35,2
DA:36,2
DA:38,4
DA:39,4
DA:41,2
DA:42,2
DA:43,2
DA:46,1
DA:47,1
DA:48,1
DA:49,1
DA:50,3
DA:51,2
DA:52,2
DA:54,1
DA:55,1
DA:57,1
DA:58,1
DA:60,1
DA:61,1
DA:62,1
DA:65,3
DA:66,2
DA:67,2
DA:69,1
DA:70,1
DA:73,2
DA:74,2
DA:75,2
DA:76,2
DA:77,4
DA:78,2
DA:79,2
DA:80,2
DA:81,2
DA:83,2
DA:84,2
LF:48
LH:48
end_of_record
TN:
SF:/home/savvich/lab3/Stack.h
FN:12,18,_ZN5Stack3popB5cxx11Ev
FN:20,22,_ZN5Stack10saveToTextENSt7__cxx1112basic_stringIcSt11char_traitsIcESaIcEEE
FN:24,26,_ZN5Stack12loadFromTextENSt7__cxx1112basic_stringIcSt11char_traitsIcESaIcEEE
FN:8,10,_ZN5Stack4pushENSt7__cxx1112basic_stringIcSt11char_traitsIcESaIcEEE
FNDA:4,_ZN5Stack3popB5cxx11Ev
FNDA:1,_ZN5Stack10saveToTextENSt7__cxx1112basic_stringIcSt11char_traitsIcESaIcEEE
FNDA:1,_ZN5Stack12loadFromTextENSt7__cxx1112basic_stringIcSt11char_traitsIcESaIcEEE
FNDA:3,_ZN5Stack4pushENSt7__cxx1112basic_stringIcSt11char_traitsIcESaIcEEE
FNF:4
FNH:4
DA:8,3
DA:9,3
DA:10,3
DA:12,4
DA:13,4
DA:15,4
DA:17,4
DA:18,4
DA:20,1
DA:21,1
DA:22,1
DA:24,1
DA:25,1
DA:26,1
LF:14
LH:14
end_of_record
TN:
SF:/home/savvich/lab3/build/_deps/googletest-src/googletest/include/gtest/gtest-assertion-result.h
FN:162,168,_ZN7testing15AssertionResultC2IbEERKT_PNSt9enable_ifIXntsrSt14is_convertibleIS2_S0_E5valueEvE4typeE
FN:181,181,_ZNK7testing15AssertionResultcvbEv
FN:190,192,_ZNK7testing15AssertionResult7messageEv
FN:194,194,_ZNK7testing15AssertionResult15failure_messageEv
FN:198,201,_ZN7testing15AssertionResultlsIA100_cEERS0_RKT_
FN:198,201,_ZN7testing15AssertionResultlsIA106_cEERS0_RKT_
FN:198,201,_ZN7testing15AssertionResultlsIA11_cEERS0_RKT_
FN:198,201,_ZN7testing15AssertionResultlsIA12_cEERS0_RKT_
FN:198,201,_ZN7testing15AssertionResultlsIA13_cEERS0_RKT_
FN:198,201,_ZN7testing15AssertionResultlsIA14_cEERS0_RKT_
FN:198,201,_ZN7testing15AssertionResultlsIA15_cEERS0_RKT_
FN:198,201,_ZN7testing15AssertionResultlsIA16_cEERS0_RKT_
FN:198,201,_ZN7testing15AssertionResultlsIA17_cEERS0_RKT_
FN:198,201,_ZN7testing15AssertionResultlsIA24_cEERS0_RKT_
FN:198,201,_ZN7testing15AssertionResultlsIA27_cEERS0_RKT_
FN:198,201,_ZN7testing15AssertionResultlsIA29_cEERS0_RKT_
FN:198,201,_ZN7testing15AssertionResultlsIA2_cEERS0_RKT_
FN:198,201,_ZN7testing15AssertionResultlsIA3_cEERS0_RKT_
FN:198,201,_ZN7testing15AssertionResultlsIA5_cEERS0_RKT_
FN:198,201,_ZN7testing15AssertionResultlsIA6_cEERS0_RKT_
FN:198,201,_ZN7testing15AssertionResultlsIA7_cEERS0_RKT_
FN:198,201,_ZN7testing15AssertionResultlsIA9_cEERS0_RKT_
FN:198,201,_ZN7testing15AssertionResultlsINS_14TestPartResultEEERS0_RKT_
FN:198,201,_ZN7testing15AssertionResultlsINS_7MessageEEERS0_RKT_
FN:198,201,_ZN7testing15AssertionResultlsINSt7__cxx1112basic_stringIcSt11char_traitsIcESaIcEEEEERS0_RKT_
FN:198,201,_ZN7testing15AssertionResultlsINSt7__cxx1112basic_stringIwSt11char_traitsIwESaIwEEEEERS0_RKT_
FN:198,201,_ZN7testing15AssertionResultlsIPKcEERS0_RKT_
FN:198,201,_ZN7testing15AssertionResultlsIPKwEERS0_RKT_
FN:198,201,_ZN7testing15AssertionResultlsIdEERS0_RKT_
FN:213,216,_ZN7testing15AssertionResult13AppendMessageERKNS_7MessageE
FNDA:31,_ZN7testing15AssertionResultC2IbEERKT_PNSt9enable_ifIXntsrSt14is_convertibleIS2_S0_E5valueEvE4typeE
FNDA:31,_ZNK7testing15AssertionResultcvbEv
FNDA:2,_ZNK7testing15AssertionResult7messageEv
FNDA:2,_ZNK7testing15AssertionResult15failure_messageEv
FNDA:0,_ZN7testing15AssertionResultlsIA100_cEERS0_RKT_
FNDA:0,_ZN7testing15AssertionResultlsIA106_cEERS0_RKT_
FNDA:0,_ZN7testing15AssertionResultlsIA11_cEERS0_RKT_
FNDA:0,_ZN7testing15AssertionResultlsIA12_cEERS0_RKT_
FNDA:0,_ZN7testing15AssertionResultlsIA13_cEERS0_RKT_
FNDA:0,_ZN7testing15AssertionResultlsIA14_cEERS0_RKT_
FNDA:0,_ZN7testing15AssertionResultlsIA15_cEERS0_RKT_
FNDA:0,_ZN7testing15AssertionResultlsIA16_cEERS0_RKT_
FNDA:0,_ZN7testing15AssertionResultlsIA17_cEERS0_RKT_
FNDA:0,_ZN7testing15AssertionResultlsIA24_cEERS0_RKT_
FNDA:0,_ZN7testing15AssertionResultlsIA27_cEERS0_RKT_
FNDA:0,_ZN7testing15AssertionResultlsIA29_cEERS0_RKT_
FNDA:0,_ZN7testing15AssertionResultlsIA2_cEERS0_RKT_
FNDA:0,_ZN7testing15AssertionResultlsIA3_cEERS0_RKT_
FNDA:0,_ZN7testing15AssertionResultlsIA5_cEERS0_RKT_
FNDA:0,_ZN7testing15AssertionResultlsIA6_cEERS0_RKT_
FNDA:0,_ZN7testing15AssertionResultlsIA7_cEERS0_RKT_
FNDA:0,_ZN7testing15AssertionResultlsIA9_cEERS0_RKT_
FNDA:0,_ZN7testing15AssertionResultlsINS_14TestPartResultEEERS0_RKT_
FNDA:2,_ZN7testing15AssertionResultlsINS_7MessageEEERS0_RKT_
FNDA:0,_ZN7testing15AssertionResultlsINSt7__cxx1112basic_stringIcSt11char_traitsIcESaIcEEEEERS0_RKT_
FNDA:0,_ZN7testing15AssertionResultlsINSt7__cxx1112basic_stringIwSt11char_traitsIwESaIwEEEEERS0_RKT_
FNDA:0,_ZN7testing15AssertionResultlsIPKcEERS0_RKT_
FNDA:0,_ZN7testing15AssertionResultlsIPKwEERS0_RKT_
FNDA:0,_ZN7testing15AssertionResultlsIdEERS0_RKT_
FNDA:2,_ZN7testing15AssertionResult13AppendMessageERKNS_7MessageE
FNF:30
FNH:6
DA:162,31
DA:168,31
DA:181,31
DA:190,2
DA:191,2
DA:194,2
DA:198,2
DA:199,2
DA:200,2
DA:213,2
DA:214,2
DA:215,2
DA:216,2
LF:13
LH:13
end_of_record
TN:
SF:/home/savvich/lab3/build/_deps/googletest-src/googletest/include/gtest/gtest-matchers.h
FN:110,110,_ZN7testing19MatchResultListenerD0Ev
FN:110,110,_ZN7testing19MatchResultListenerD2Ev
FN:116,116,_ZN7testing25MatcherDescriberInterfaceD0Ev
FN:116,116,_ZN7testing25MatcherDescriberInterfaceD2Ev
FN:131,135,_ZNK7testing25MatcherDescriberInterface18DescribeNegationToEPSo
FN:185,185,_ZN7testing8internal24DummyMatchResultListenerC2Ev
FN:209,209,_ZN7testing8internal17SharedPayloadBase5UnrefEv
FN:215,215,_ZN7testing8internal13SharedPayloadINS0_9EqMatcherINSt7__cxx1112basic_stringIcSt11char_traitsIcESaIcEEEEEEC2EOS9_
FN:217,219,_ZN7testing8internal13SharedPayloadINS0_9EqMatcherINSt7__cxx1112basic_stringIcSt11char_traitsIcESaIcEEEEEE7DestroyEPNS0_17SharedPayloadBaseE
FN:232,235,_ZNK7testing8internal11MatcherBaseIRKNSt7__cxx1112basic_stringIcSt11char_traitsIcESaIcEEEE15MatchAndExplainES9_PNS_19MatchResultListenerE
FN:238,241,_ZNK7testing8internal11MatcherBaseIRKNSt7__cxx1112basic_stringIcSt11char_traitsIcESaIcEEEE7MatchesES9_
FN:244,247,_ZNK7testing8internal11MatcherBaseINSt7__cxx1112basic_stringIcSt11char_traitsIcESaIcEEEE10DescribeToEPSo
FN:244,247,_ZNK7testing8internal11MatcherBaseIRKNSt7__cxx1112basic_stringIcSt11char_traitsIcESaIcEEEE10DescribeToEPSo
FN:244,247,_ZNK7testing8internal11MatcherBaseIRKSt17basic_string_viewIcSt11char_traitsIcEEE10DescribeToEPSo
FN:244,247,_ZNK7testing8internal11MatcherBaseISt17basic_string_viewIcSt11char_traitsIcEEE10DescribeToEPSo
FN:250,253,_ZNK7testing8internal11MatcherBaseINSt7__cxx1112basic_stringIcSt11char_traitsIcESaIcEEEE18DescribeNegationToEPSo
FN:250,253,_ZNK7testing8internal11MatcherBaseIRKNSt7__cxx1112basic_stringIcSt11char_traitsIcESaIcEEEE18DescribeNegationToEPSo
FN:250,253,_ZNK7testing8internal11MatcherBaseIRKSt17basic_string_viewIcSt11char_traitsIcEEE18DescribeNegationToEPSo
FN:250,253,_ZNK7testing8internal11MatcherBaseISt17basic_string_viewIcSt11char_traitsIcEEE18DescribeNegationToEPSo
FN:270,270,_ZN7testing8internal11MatcherBaseINSt7__cxx1112basic_stringIcSt11char_traitsIcESaIcEEEEC2Ev
FN:270,270,_ZN7testing8internal11MatcherBaseIRKNSt7__cxx1112basic_stringIcSt11char_traitsIcESaIcEEEEC2Ev
FN:270,270,_ZN7testing8internal11MatcherBaseIRKSt17basic_string_viewIcSt11char_traitsIcEEEC2Ev
FN:270,270,_ZN7testing8internal11MatcherBaseISt17basic_string_viewIcSt11char_traitsIcEEEC2Ev
FN:281,283,_ZN7testing8internal11MatcherBaseINSt7__cxx1112basic_stringIcSt11char_traitsIcESaIcEEEEC2INS0_9EqMatcherIS7_EEvEEOT_
FN:281,283,_ZN7testing8internal11MatcherBaseIRKNSt7__cxx1112basic_stringIcSt11char_traitsIcESaIcEEEEC2INS0_9EqMatcherIS7_EEvEEOT_
FN:281,283,_ZN7testing8internal11MatcherBaseIRKSt17basic_string_viewIcSt11char_traitsIcEEEC2INS0_9EqMatcherINSt7__cxx1112basic_stringIcS4_SaIcEEEEEvEEOT_
FN:281,283,_ZN7testing8internal11MatcherBaseISt17basic_string_viewIcSt11char_traitsIcEEEC2INS0_9EqMatcherINSt7__cxx1112basic_stringIcS4_SaIcEEEEEvEEOT_
FN:299,302,_ZN7testing8internal11MatcherBaseIRKNSt7__cxx1112basic_stringIcSt11char_traitsIcESaIcEEEEC2EOSA_
FN:304,311,_ZN7testing8internal11MatcherBaseINSt7__cxx1112basic_stringIcSt11char_traitsIcESaIcEEEEaSEOS8_
FN:304,311,_ZN7testing8internal11MatcherBaseIRKNSt7__cxx1112basic_stringIcSt11char_traitsIcESaIcEEEEaSEOSA_
FN:304,311,_ZN7testing8internal11MatcherBaseIRKSt17basic_string_viewIcSt11char_traitsIcEEEaSEOS8_
FN:304,311,_ZN7testing8internal11MatcherBaseISt17basic_string_viewIcSt11char_traitsIcEEEaSEOS6_
FN:313,313,_ZN7testing8internal11MatcherBaseINSt7__cxx1112basic_stringIcSt11char_traitsIcESaIcEEEED0Ev
FN:313,313,_ZN7testing8internal11MatcherBaseINSt7__cxx1112basic_stringIcSt11char_traitsIcESaIcEEEED2Ev
FN:313,313,_ZN7testing8internal11MatcherBaseIRKNSt7__cxx1112basic_stringIcSt11char_traitsIcESaIcEEEED0Ev
FN:313,313,_ZN7testing8internal11MatcherBaseIRKNSt7__cxx1112basic_stringIcSt11char_traitsIcESaIcEEEED2Ev
FN:313,313,_ZN7testing8internal11MatcherBaseIRKSt17basic_string_viewIcSt11char_traitsIcEEED0Ev
FN:313,313,_ZN7testing8internal11MatcherBaseIRKSt17basic_string_viewIcSt11char_traitsIcEEED2Ev
FN:313,313,_ZN7testing8internal11MatcherBaseISt17basic_string_viewIcSt11char_traitsIcEEED0Ev
FN:313,313,_ZN7testing8internal11MatcherBaseISt17basic_string_viewIcSt11char_traitsIcEEED2Ev
FN:327,329,_ZNK7testing8internal11MatcherBaseINSt7__cxx1112basic_stringIcSt11char_traitsIcESaIcEEEE8IsSharedEv
FN:327,329,_ZNK7testing8internal11MatcherBaseIRKNSt7__cxx1112basic_stringIcSt11char_traitsIcESaIcEEEE8IsSharedEv
FN:327,329,_ZNK7testing8internal11MatcherBaseIRKSt17basic_string_viewIcSt11char_traitsIcEEE8IsSharedEv
FN:327,329,_ZNK7testing8internal11MatcherBaseISt17basic_string_viewIcSt11char_traitsIcEEE8IsSharedEv
FN:333,337,_ZN7testing8internal11MatcherBaseINSt7__cxx1112basic_stringIcSt11char_traitsIcESaIcEEEE19MatchAndExplainImplINS8_11ValuePolicyINS0_9EqMatcherIS7_EELb0EEEEEDTcldtclsrT_3Getfp_E15MatchAndExplainfp0_clptfp1_L_ZNS_19MatchResultListener6streamEvEEEERKS8_RKS7_PSF_
FN:333,337,_ZN7testing8internal11MatcherBaseIRKNSt7__cxx1112basic_stringIcSt11char_traitsIcESaIcEEEE19MatchAndExplainImplINSA_11ValuePolicyINS0_9EqMatcherIS7_EELb0EEEEEDTcldtclsrT_3Getfp_E15MatchAndExplainfp0_clptfp1_L_ZNS_19MatchResultListener6streamEvEEEERKSA_S9_PSH_
FN:333,337,_ZN7testing8internal11MatcherBaseIRKSt17basic_string_viewIcSt11char_traitsIcEEE19MatchAndExplainImplINS8_11ValuePolicyINS0_9EqMatcherINSt7__cxx1112basic_stringIcS4_SaIcEEEEELb0EEEEEDTcldtclsrT_3Getfp_E15MatchAndExplainfp0_clptfp1_L_ZNS_19MatchResultListener6streamEvEEEERKS8_S7_PSJ_
FN:333,337,_ZN7testing8internal11MatcherBaseISt17basic_string_viewIcSt11char_traitsIcEEE19MatchAndExplainImplINS6_11ValuePolicyINS0_9EqMatcherINSt7__cxx1112basic_stringIcS4_SaIcEEEEELb0EEEEEDTcldtclsrT_3Getfp_E15MatchAndExplainfp0_clptfp1_L_ZNS_19MatchResultListener6streamEvEEEERKS6_RKS5_PSH_
FN:347,354,_ZN7testing8internal11MatcherBaseINSt7__cxx1112basic_stringIcSt11char_traitsIcESaIcEEEE12DescribeImplINS8_11ValuePolicyINS0_9EqMatcherIS7_EELb0EEEEEvRKS8_PSob
FN:347,354,_ZN7testing8internal11MatcherBaseIRKNSt7__cxx1112basic_stringIcSt11char_traitsIcESaIcEEEE12DescribeImplINSA_11ValuePolicyINS0_9EqMatcherIS7_EELb0EEEEEvRKSA_PSob
FN:347,354,_ZN7testing8internal11MatcherBaseIRKSt17basic_string_viewIcSt11char_traitsIcEEE12DescribeImplINS8_11ValuePolicyINS0_9EqMatcherINSt7__cxx1112basic_stringIcS4_SaIcEEEEELb0EEEEEvRKS8_PSob
FN:347,354,_ZN7testing8internal11MatcherBaseISt17basic_string_viewIcSt11char_traitsIcEEE12DescribeImplINS6_11ValuePolicyINS0_9EqMatcherINSt7__cxx1112basic_stringIcS4_SaIcEEEEELb0EEEEEvRKS6_PSob
FN:357,370,_ZN7testing8internal11MatcherBaseINSt7__cxx1112basic_stringIcSt11char_traitsIcESaIcEEEE16GetDescriberImplINS8_11ValuePolicyINS0_9EqMatcherIS7_EELb0EEEEEPKNS_25MatcherDescriberInterfaceERKS8_
FN:357,370,_ZN7testing8internal11MatcherBaseIRKNSt7__cxx1112basic_stringIcSt11char_traitsIcESaIcEEEE16GetDescriberImplINSA_11ValuePolicyINS0_9EqMatcherIS7_EELb0EEEEEPKNS_25MatcherDescriberInterfaceERKSA_
FN:357,370,_ZN7testing8internal11MatcherBaseIRKSt17basic_string_viewIcSt11char_traitsIcEEE16GetDescriberImplINS8_11ValuePolicyINS0_9EqMatcherINSt7__cxx1112basic_stringIcS4_SaIcEEEEELb0EEEEEPKNS_25MatcherDescriberInterfaceERKS8_
FN:357,370,_ZN7testing8internal11MatcherBaseISt17basic_string_viewIcSt11char_traitsIcEEE16GetDescriberImplINS6_11ValuePolicyINS0_9EqMatcherINSt7__cxx1112basic_stringIcS4_SaIcEEEEELb0EEEEEPKNS_25MatcherDescriberInterfaceERKS6_
FN:373,378,_ZN7testing8internal11MatcherBaseINSt7__cxx1112basic_stringIcSt11char_traitsIcESaIcEEEE9GetVTableINS8_11ValuePolicyINS0_9EqMatcherIS7_EELb0EEEEEPKNS8_6VTableEv
FN:373,378,_ZN7testing8internal11MatcherBaseIRKNSt7__cxx1112basic_stringIcSt11char_traitsIcESaIcEEEE9GetVTableINSA_11ValuePolicyINS0_9EqMatcherIS7_EELb0EEEEEPKNSA_6VTableEv
FN:373,378,_ZN7testing8internal11MatcherBaseIRKSt17basic_string_viewIcSt11char_traitsIcEEE9GetVTableINS8_11ValuePolicyINS0_9EqMatcherINSt7__cxx1112basic_stringIcS4_SaIcEEEEELb0EEEEEPKNS8_6VTableEv
FN:373,378,_ZN7testing8internal11MatcherBaseISt17basic_string_viewIcSt11char_traitsIcEEE9GetVTableINS6_11ValuePolicyINS0_9EqMatcherINSt7__cxx1112basic_stringIcS4_SaIcEEEEELb0EEEEEPKNS6_6VTableEv
FN:389,393,_ZN7testing8internal11MatcherBaseINSt7__cxx1112basic_stringIcSt11char_traitsIcESaIcEEEE7DestroyEv
FN:389,393,_ZN7testing8internal11MatcherBaseIRKNSt7__cxx1112basic_stringIcSt11char_traitsIcESaIcEEEE7DestroyEv
FN:389,393,_ZN7testing8internal11MatcherBaseIRKSt17basic_string_viewIcSt11char_traitsIcEEE7DestroyEv
FN:389,393,_ZN7testing8internal11MatcherBaseISt17basic_string_viewIcSt11char_traitsIcEEE7DestroyEv
FN:420,422,_ZN7testing8internal11MatcherBaseINSt7__cxx1112basic_stringIcSt11char_traitsIcESaIcEEEE11ValuePolicyINS0_9EqMatcherIS7_EELb0EE3GetERKS8_
FN:420,422,_ZN7testing8internal11MatcherBaseIRKNSt7__cxx1112basic_stringIcSt11char_traitsIcESaIcEEEE11ValuePolicyINS0_9EqMatcherIS7_EELb0EE3GetERKSA_
FN:420,422,_ZN7testing8internal11MatcherBaseIRKSt17basic_string_viewIcSt11char_traitsIcEEE11ValuePolicyINS0_9EqMatcherINSt7__cxx1112basic_stringIcS4_SaIcEEEEELb0EE3GetERKS8_
FN:420,422,_ZN7testing8internal11MatcherBaseISt17basic_string_viewIcSt11char_traitsIcEEE11ValuePolicyINS0_9EqMatcherINSt7__cxx1112basic_stringIcS4_SaIcEEEEELb0EE3GetERKS6_
FN:424,426,_ZN7testing8internal11MatcherBaseINSt7__cxx1112basic_stringIcSt11char_traitsIcESaIcEEEE11ValuePolicyINS0_9EqMatcherIS7_EELb0EE4InitISB_EEvRS8_OT_
FN:424,426,_ZN7testing8internal11MatcherBaseIRKNSt7__cxx1112basic_stringIcSt11char_traitsIcESaIcEEEE11ValuePolicyINS0_9EqMatcherIS7_EELb0EE4InitISD_EEvRSA_OT_
FN:424,426,_ZN7testing8internal11MatcherBaseIRKSt17basic_string_viewIcSt11char_traitsIcEEE11ValuePolicyINS0_9EqMatcherINSt7__cxx1112basic_stringIcS4_SaIcEEEEELb0EE4InitISF_EEvRS8_OT_
FN:424,426,_ZN7testing8internal11MatcherBaseISt17basic_string_viewIcSt11char_traitsIcEEE11ValuePolicyINS0_9EqMatcherINSt7__cxx1112basic_stringIcS4_SaIcEEEEELb0EE4InitISD_EEvRS6_OT_
FN:445,450,_ZN7testing8internal11MatcherBaseINSt7__cxx1112basic_stringIcSt11char_traitsIcESaIcEEEE4InitINS0_9EqMatcherIS7_EEEEvOT_
FN:445,450,_ZN7testing8internal11MatcherBaseIRKNSt7__cxx1112basic_stringIcSt11char_traitsIcESaIcEEEE4InitINS0_9EqMatcherIS7_EEEEvOT_
FN:445,450,_ZN7testing8internal11MatcherBaseIRKSt17basic_string_viewIcSt11char_traitsIcEEE4InitINS0_9EqMatcherINSt7__cxx1112basic_stringIcS4_SaIcEEEEEEEvOT_
FN:445,450,_ZN7testing8internal11MatcherBaseISt17basic_string_viewIcSt11char_traitsIcEEE4InitINS0_9EqMatcherINSt7__cxx1112basic_stringIcS4_SaIcEEEEEEEvOT_
FN:504,505,_ZN7testing7MatcherIRKNSt7__cxx1112basic_stringIcSt11char_traitsIcESaIcEEEEC2INS_8internal9EqMatcherIS6_EEvEEOT_
FN:528,529,_ZN7testing7MatcherINSt7__cxx1112basic_stringIcSt11char_traitsIcESaIcEEEEC2INS_8internal9EqMatcherIS6_EEvEEOT_
FN:554,556,_ZN7testing7MatcherIRKSt17basic_string_viewIcSt11char_traitsIcEEEC2INS_8internal9EqMatcherINSt7__cxx1112basic_stringIcS3_SaIcEEEEEvEEOT_
FN:582,583,_ZN7testing7MatcherISt17basic_string_viewIcSt11char_traitsIcEEEC2INS_8internal9EqMatcherINSt7__cxx1112basic_stringIcS3_SaIcEEEEEvEEOT_
FN:694,694,_ZN7testing8internal14ComparisonBaseINS0_9EqMatcherINSt7__cxx1112basic_stringIcSt11char_traitsIcESaIcEEEEES8_St8equal_toIvEEC2ERKS8_
FN:699,701,_ZNK7testing8internal14ComparisonBaseINS0_9EqMatcherINSt7__cxx1112basic_stringIcSt11char_traitsIcESaIcEEEEES8_St8equal_toIvEE15MatchAndExplainIS8_EEbRKT_PSo
FN:699,701,_ZNK7testing8internal14ComparisonBaseINS0_9EqMatcherINSt7__cxx1112basic_stringIcSt11char_traitsIcESaIcEEEEES8_St8equal_toIvEE15MatchAndExplainISt17basic_string_viewIcS6_EEEbRKT_PSo
FN:702,705,_ZNK7testing8internal14ComparisonBaseINS0_9EqMatcherINSt7__cxx1112basic_stringIcSt11char_traitsIcESaIcEEEEES8_St8equal_toIvEE10DescribeToEPSo
FN:706,709,_ZNK7testing8internal14ComparisonBaseINS0_9EqMatcherINSt7__cxx1112basic_stringIcSt11char_traitsIcESaIcEEEEES8_St8equal_toIvEE18DescribeNegationToEPSo
FN:713,715,_ZN7testing8internal14ComparisonBaseINS0_9EqMatcherINSt7__cxx1112basic_stringIcSt11char_traitsIcESaIcEEEEES8_St8equal_toIvEE6UnwrapIS8_EERKT_SG_
FN:727,728,_ZN7testing8internal9EqMatcherINSt7__cxx1112basic_stringIcSt11char_traitsIcESaIcEEEEC2ERKS7_
FN:729,729,_ZN7testing8internal9EqMatcherINSt7__cxx1112basic_stringIcSt11char_traitsIcESaIcEEEE4DescEv
FN:730,730,_ZN7testing8internal9EqMatcherINSt7__cxx1112basic_stringIcSt11char_traitsIcESaIcEEEE11NegatedDescEv
FN:83,83,_ZN7testing19MatchResultListenerC2EPSo
FN:891,893,_ZN7testing2EqINSt7__cxx1112basic_stringIcSt11char_traitsIcESaIcEEEEENS_8internal9EqMatcherIT_EES9_
FN:95,95,_ZN7testing19MatchResultListener6streamEv
FNDA:0,_ZN7testing19MatchResultListenerD0Ev
FNDA:0,_ZN7testing19MatchResultListenerD2Ev
FNDA:0,_ZN7testing25MatcherDescriberInterfaceD0Ev
FNDA:0,_ZN7testing25MatcherDescriberInterfaceD2Ev
FNDA:0,_ZNK7testing25MatcherDescriberInterface18DescribeNegationToEPSo
FNDA:0,_ZN7testing8internal24DummyMatchResultListenerC2Ev
FNDA:0,_ZN7testing8internal17SharedPayloadBase5UnrefEv
FNDA:0,_ZN7testing8internal13SharedPayloadINS0_9EqMatcherINSt7__cxx1112basic_stringIcSt11char_traitsIcESaIcEEEEEEC2EOS9_
FNDA:0,_ZN7testing8internal13SharedPayloadINS0_9EqMatcherINSt7__cxx1112basic_stringIcSt11char_traitsIcESaIcEEEEEE7DestroyEPNS0_17SharedPayloadBaseE
FNDA:0,_ZNK7testing8internal11MatcherBaseIRKNSt7__cxx1112basic_stringIcSt11char_traitsIcESaIcEEEE15MatchAndExplainES9_PNS_19MatchResultListenerE
FNDA:0,_ZNK7testing8internal11MatcherBaseIRKNSt7__cxx1112basic_stringIcSt11char_traitsIcESaIcEEEE7MatchesES9_
FNDA:0,_ZNK7testing8internal11MatcherBaseINSt7__cxx1112basic_stringIcSt11char_traitsIcESaIcEEEE10DescribeToEPSo
FNDA:0,_ZNK7testing8internal11MatcherBaseIRKNSt7__cxx1112basic_stringIcSt11char_traitsIcESaIcEEEE10DescribeToEPSo
FNDA:0,_ZNK7testing8internal11MatcherBaseIRKSt17basic_string_viewIcSt11char_traitsIcEEE10DescribeToEPSo
FNDA:0,_ZNK7testing8internal11MatcherBaseISt17basic_string_viewIcSt11char_traitsIcEEE10DescribeToEPSo
FNDA:0,_ZNK7testing8internal11MatcherBaseINSt7__cxx1112basic_stringIcSt11char_traitsIcESaIcEEEE18DescribeNegationToEPSo
FNDA:0,_ZNK7testing8internal11MatcherBaseIRKNSt7__cxx1112basic_stringIcSt11char_traitsIcESaIcEEEE18DescribeNegationToEPSo
FNDA:0,_ZNK7testing8internal11MatcherBaseIRKSt17basic_string_viewIcSt11char_traitsIcEEE18DescribeNegationToEPSo
FNDA:0,_ZNK7testing8internal11MatcherBaseISt17basic_string_viewIcSt11char_traitsIcEEE18DescribeNegationToEPSo
FNDA:0,_ZN7testing8internal11MatcherBaseINSt7__cxx1112basic_stringIcSt11char_traitsIcESaIcEEEEC2Ev
FNDA:0,_ZN7testing8internal11MatcherBaseIRKNSt7__cxx1112basic_stringIcSt11char_traitsIcESaIcEEEEC2Ev
FNDA:0,_ZN7testing8internal11MatcherBaseIRKSt17basic_string_viewIcSt11char_traitsIcEEEC2Ev
FNDA:0,_ZN7testing8internal11MatcherBaseISt17basic_string_viewIcSt11char_traitsIcEEEC2Ev
FNDA:0,_ZN7testing8internal11MatcherBaseINSt7__cxx1112basic_stringIcSt11char_traitsIcESaIcEEEEC2INS0_9EqMatcherIS7_EEvEEOT_
FNDA:0,_ZN7testing8internal11MatcherBaseIRKNSt7__cxx1112basic_stringIcSt11char_traitsIcESaIcEEEEC2INS0_9EqMatcherIS7_EEvEEOT_
FNDA:0,_ZN7testing8internal11MatcherBaseIRKSt17basic_string_viewIcSt11char_traitsIcEEEC2INS0_9EqMatcherINSt7__cxx1112basic_stringIcS4_SaIcEEEEEvEEOT_
FNDA:0,_ZN7testing8internal11MatcherBaseISt17basic_string_viewIcSt11char_traitsIcEEEC2INS0_9EqMatcherINSt7__cxx1112basic_stringIcS4_SaIcEEEEEvEEOT_
FNDA:0,_ZN7testing8internal11MatcherBaseIRKNSt7__cxx1112basic_stringIcSt11char_traitsIcESaIcEEEEC2EOSA_
FNDA:0,_ZN7testing8internal11MatcherBaseINSt7__cxx1112basic_stringIcSt11char_traitsIcESaIcEEEEaSEOS8_
FNDA:0,_ZN7testing8internal11MatcherBaseIRKNSt7__cxx1112basic_stringIcSt11char_traitsIcESaIcEEEEaSEOSA_
FNDA:0,_ZN7testing8internal11MatcherBaseIRKSt17basic_string_viewIcSt11char_traitsIcEEEaSEOS8_
FNDA:0,_ZN7testing8internal11MatcherBaseISt17basic_string_viewIcSt11char_traitsIcEEEaSEOS6_
FNDA:0,_ZN7testing8internal11MatcherBaseINSt7__cxx1112basic_stringIcSt11char_traitsIcESaIcEEEED0Ev
FNDA:0,_ZN7testing8internal11MatcherBaseINSt7__cxx1112basic_stringIcSt11char_traitsIcESaIcEEEED2Ev
FNDA:0,_ZN7testing8internal11MatcherBaseIRKNSt7__cxx1112basic_stringIcSt11char_traitsIcESaIcEEEED0Ev
FNDA:0,_ZN7testing8internal11MatcherBaseIRKNSt7__cxx1112basic_stringIcSt11char_traitsIcESaIcEEEED2Ev
FNDA:0,_ZN7testing8internal11MatcherBaseIRKSt17basic_string_viewIcSt11char_traitsIcEEED0Ev
FNDA:0,_ZN7testing8internal11MatcherBaseIRKSt17basic_string_viewIcSt11char_traitsIcEEED2Ev
FNDA:0,_ZN7testing8internal11MatcherBaseISt17basic_string_viewIcSt11char_traitsIcEEED0Ev
FNDA:0,_ZN7testing8internal11MatcherBaseISt17basic_string_viewIcSt11char_traitsIcEEED2Ev
FNDA:0,_ZNK7testing8internal11MatcherBaseINSt7__cxx1112basic_stringIcSt11char_traitsIcESaIcEEEE8IsSharedEv
FNDA:0,_ZNK7testing8internal11MatcherBaseIRKNSt7__cxx1112basic_stringIcSt11char_traitsIcESaIcEEEE8IsSharedEv
FNDA:0,_ZNK7testing8internal11MatcherBaseIRKSt17basic_string_viewIcSt11char_traitsIcEEE8IsSharedEv
FNDA:0,_ZNK7testing8internal11MatcherBaseISt17basic_string_viewIcSt11char_traitsIcEEE8IsSharedEv
FNDA:0,_ZN7testing8internal11MatcherBaseINSt7__cxx1112basic_stringIcSt11char_traitsIcESaIcEEEE19MatchAndExplainImplINS8_11ValuePolicyINS0_9EqMatcherIS7_EELb0EEEEEDTcldtclsrT_3Getfp_E15MatchAndExplainfp0_clptfp1_L_ZNS_19MatchResultListener6streamEvEEEERKS8_RKS7_PSF_
FNDA:0,_ZN7testing8internal11MatcherBaseIRKNSt7__cxx1112basic_stringIcSt11char_traitsIcESaIcEEEE19MatchAndExplainImplINSA_11ValuePolicyINS0_9EqMatcherIS7_EELb0EEEEEDTcldtclsrT_3Getfp_E15MatchAndExplainfp0_clptfp1_L_ZNS_19MatchResultListener6streamEvEEEERKSA_S9_PSH_
FNDA:0,_ZN7testing8internal11MatcherBaseIRKSt17basic_string_viewIcSt11char_traitsIcEEE19MatchAndExplainImplINS8_11ValuePolicyINS0_9EqMatcherINSt7__cxx1112basic_stringIcS4_SaIcEEEEELb0EEEEEDTcldtclsrT_3Getfp_E15MatchAndExplainfp0_clptfp1_L_ZNS_19MatchResultListener6streamEvEEEERKS8_S7_PSJ_
FNDA:0,_ZN7testing8internal11MatcherBaseISt17basic_string_viewIcSt11char_traitsIcEEE19MatchAndExplainImplINS6_11ValuePolicyINS0_9EqMatcherINSt7__cxx1112basic_stringIcS4_SaIcEEEEELb0EEEEEDTcldtclsrT_3Getfp_E15MatchAndExplainfp0_clptfp1_L_ZNS_19MatchResultListener6streamEvEEEERKS6_RKS5_PSH_
FNDA:0,_ZN7testing8internal11MatcherBaseINSt7__cxx1112basic_stringIcSt11char_traitsIcESaIcEEEE12DescribeImplINS8_11ValuePolicyINS0_9EqMatcherIS7_EELb0EEEEEvRKS8_PSob
FNDA:0,_ZN7testing8internal11MatcherBaseIRKNSt7__cxx1112basic_stringIcSt11char_traitsIcESaIcEEEE12DescribeImplINSA_11ValuePolicyINS0_9EqMatcherIS7_EELb0EEEEEvRKSA_PSob
FNDA:0,_ZN7testing8internal11MatcherBaseIRKSt17basic_string_viewIcSt11char_traitsIcEEE12DescribeImplINS8_11ValuePolicyINS0_9EqMatcherINSt7__cxx1112basic_stringIcS4_SaIcEEEEELb0EEEEEvRKS8_PSob
FNDA:0,_ZN7testing8internal11MatcherBaseISt17basic_string_viewIcSt11char_traitsIcEEE12DescribeImplINS6_11ValuePolicyINS0_9EqMatcherINSt7__cxx1112basic_stringIcS4_SaIcEEEEELb0EEEEEvRKS6_PSob
FNDA:0,_ZN7testing8internal11MatcherBaseINSt7__cxx1112basic_stringIcSt11char_traitsIcESaIcEEEE16GetDescriberImplINS8_11ValuePolicyINS0_9EqMatcherIS7_EELb0EEEEEPKNS_25MatcherDescriberInterfaceERKS8_
FNDA:0,_ZN7testing8internal11MatcherBaseIRKNSt7__cxx1112basic_stringIcSt11char_traitsIcESaIcEEEE16GetDescriberImplINSA_11ValuePolicyINS0_9EqMatcherIS7_EELb0EEEEEPKNS_25MatcherDescriberInterfaceERKSA_
FNDA:0,_ZN7testing8internal11MatcherBaseIRKSt17basic_string_viewIcSt11char_traitsIcEEE16GetDescriberImplINS8_11ValuePolicyINS0_9EqMatcherINSt7__cxx1112basic_stringIcS4_SaIcEEEEELb0EEEEEPKNS_25MatcherDescriberInterfaceERKS8_
FNDA:0,_ZN7testing8internal11MatcherBaseISt17basic_string_viewIcSt11char_traitsIcEEE16GetDescriberImplINS6_11ValuePolicyINS0_9EqMatcherINSt7__cxx1112basic_stringIcS4_SaIcEEEEELb0EEEEEPKNS_25MatcherDescriberInterfaceERKS6_
FNDA:0,_ZN7testing8internal11MatcherBaseINSt7__cxx1112basic_stringIcSt11char_traitsIcESaIcEEEE9GetVTableINS8_11ValuePolicyINS0_9EqMatcherIS7_EELb0EEEEEPKNS8_6VTableEv
FNDA:0,_ZN7testing8internal11MatcherBaseIRKNSt7__cxx1112basic_stringIcSt11char_traitsIcESaIcEEEE9GetVTableINSA_11ValuePolicyINS0_9EqMatcherIS7_EELb0EEEEEPKNSA_6VTableEv
FNDA:0,_ZN7testing8internal11MatcherBaseIRKSt17basic_string_viewIcSt11char_traitsIcEEE9GetVTableINS8_11ValuePolicyINS0_9EqMatcherINSt7__cxx1112basic_stringIcS4_SaIcEEEEELb0EEEEEPKNS8_6VTableEv
FNDA:0,_ZN7testing8internal11MatcherBaseISt17basic_string_viewIcSt11char_traitsIcEEE9GetVTableINS6_11ValuePolicyINS0_9EqMatcherINSt7__cxx1112basic_stringIcS4_SaIcEEEEELb0EEEEEPKNS6_6VTableEv
FNDA:0,_ZN7testing8internal11MatcherBaseINSt7__cxx1112basic_stringIcSt11char_traitsIcESaIcEEEE7DestroyEv
FNDA:0,_ZN7testing8internal11MatcherBaseIRKNSt7__cxx1112basic_stringIcSt11char_traitsIcESaIcEEEE7DestroyEv
FNDA:0,_ZN7testing8internal11MatcherBaseIRKSt17basic_string_viewIcSt11char_traitsIcEEE7DestroyEv
FNDA:0,_ZN7testing8internal11MatcherBaseISt17basic_string_viewIcSt11char_traitsIcEEE7DestroyEv
FNDA:0,_ZN7testing8internal11MatcherBaseINSt7__cxx1112basic_stringIcSt11char_traitsIcESaIcEEEE11ValuePolicyINS0_9EqMatcherIS7_EELb0EE3GetERKS8_
FNDA:0,_ZN7testing8internal11MatcherBaseIRKNSt7__cxx1112basic_stringIcSt11char_traitsIcESaIcEEEE11ValuePolicyINS0_9EqMatcherIS7_EELb0EE3GetERKSA_
FNDA:0,_ZN7testing8internal11MatcherBaseIRKSt17basic_string_viewIcSt11char_traitsIcEEE11ValuePolicyINS0_9EqMatcherINSt7__cxx1112basic_stringIcS4_SaIcEEEEELb0EE3GetERKS8_
FNDA:0,_ZN7testing8internal11MatcherBaseISt17basic_string_viewIcSt11char_traitsIcEEE11ValuePolicyINS0_9EqMatcherINSt7__cxx1112basic_stringIcS4_SaIcEEEEELb0EE3GetERKS6_
FNDA:0,_ZN7testing8internal11MatcherBaseINSt7__cxx1112basic_stringIcSt11char_traitsIcESaIcEEEE11ValuePolicyINS0_9EqMatcherIS7_EELb0EE4InitISB_EEvRS8_OT_
FNDA:0,_ZN7testing8internal11MatcherBaseIRKNSt7__cxx1112basic_stringIcSt11char_traitsIcESaIcEEEE11ValuePolicyINS0_9EqMatcherIS7_EELb0EE4InitISD_EEvRSA_OT_
FNDA:0,_ZN7testing8internal11MatcherBaseIRKSt17basic_string_viewIcSt11char_traitsIcEEE11ValuePolicyINS0_9EqMatcherINSt7__cxx1112basic_stringIcS4_SaIcEEEEELb0EE4InitISF_EEvRS8_OT_
FNDA:0,_ZN7testing8internal11MatcherBaseISt17basic_string_viewIcSt11char_traitsIcEEE11ValuePolicyINS0_9EqMatcherINSt7__cxx1112basic_stringIcS4_SaIcEEEEELb0EE4InitISD_EEvRS6_OT_
FNDA:0,_ZN7testing8internal11MatcherBaseINSt7__cxx1112basic_stringIcSt11char_traitsIcESaIcEEEE4InitINS0_9EqMatcherIS7_EEEEvOT_
FNDA:0,_ZN7testing8internal11MatcherBaseIRKNSt7__cxx1112basic_stringIcSt11char_traitsIcESaIcEEEE4InitINS0_9EqMatcherIS7_EEEEvOT_
FNDA:0,_ZN7testing8internal11MatcherBaseIRKSt17basic_string_viewIcSt11char_traitsIcEEE4InitINS0_9EqMatcherINSt7__cxx1112basic_stringIcS4_SaIcEEEEEEEvOT_
FNDA:0,_ZN7testing8internal11MatcherBaseISt17basic_string_viewIcSt11char_traitsIcEEE4InitINS0_9EqMatcherINSt7__cxx1112basic_stringIcS4_SaIcEEEEEEEvOT_
FNDA:0,_ZN7testing7MatcherIRKNSt7__cxx1112basic_stringIcSt11char_traitsIcESaIcEEEEC2INS_8internal9EqMatcherIS6_EEvEEOT_
FNDA:0,_ZN7testing7MatcherINSt7__cxx1112basic_stringIcSt11char_traitsIcESaIcEEEEC2INS_8internal9EqMatcherIS6_EEvEEOT_
FNDA:0,_ZN7testing7MatcherIRKSt17basic_string_viewIcSt11char_traitsIcEEEC2INS_8internal9EqMatcherINSt7__cxx1112basic_stringIcS3_SaIcEEEEEvEEOT_
FNDA:0,_ZN7testing7MatcherISt17basic_string_viewIcSt11char_traitsIcEEEC2INS_8internal9EqMatcherINSt7__cxx1112basic_stringIcS3_SaIcEEEEEvEEOT_
FNDA:0,_ZN7testing8internal14ComparisonBaseINS0_9EqMatcherINSt7__cxx1112basic_stringIcSt11char_traitsIcESaIcEEEEES8_St8equal_toIvEEC2ERKS8_
FNDA:0,_ZNK7testing8internal14ComparisonBaseINS0_9EqMatcherINSt7__cxx1112basic_stringIcSt11char_traitsIcESaIcEEEEES8_St8equal_toIvEE15MatchAndExplainIS8_EEbRKT_PSo
FNDA:0,_ZNK7testing8internal14ComparisonBaseINS0_9EqMatcherINSt7__cxx1112basic_stringIcSt11char_traitsIcESaIcEEEEES8_St8equal_toIvEE15MatchAndExplainISt17basic_string_viewIcS6_EEEbRKT_PSo
FNDA:0,_ZNK7testing8internal14ComparisonBaseINS0_9EqMatcherINSt7__cxx1112basic_stringIcSt11char_traitsIcESaIcEEEEES8_St8equal_toIvEE10DescribeToEPSo
FNDA:0,_ZNK7testing8internal14ComparisonBaseINS0_9EqMatcherINSt7__cxx1112basic_stringIcSt11char_traitsIcESaIcEEEEES8_St8equal_toIvEE18DescribeNegationToEPSo
FNDA:0,_ZN7testing8internal14ComparisonBaseINS0_9EqMatcherINSt7__cxx1112basic_stringIcSt11char_traitsIcESaIcEEEEES8_St8equal_toIvEE6UnwrapIS8_EERKT_SG_
FNDA:0,_ZN7testing8internal9EqMatcherINSt7__cxx1112basic_stringIcSt11char_traitsIcESaIcEEEEC2ERKS7_
FNDA:0,_ZN7testing8internal9EqMatcherINSt7__cxx1112basic_stringIcSt11char_traitsIcESaIcEEEE4DescEv
FNDA:0,_ZN7testing8internal9EqMatcherINSt7__cxx1112basic_stringIcSt11char_traitsIcESaIcEEEE11NegatedDescEv
FNDA:0,_ZN7testing19MatchResultListenerC2EPSo
FNDA:0,_ZN7testing2EqINSt7__cxx1112basic_stringIcSt11char_traitsIcESaIcEEEEENS_8internal9EqMatcherIT_EES9_
FNDA:0,_ZN7testing19MatchResultListener6streamEv
FNF:92
FNH:0
DA:83,0
DA:95,0
DA:110,0
DA:116,0
DA:131,0
DA:132,0
DA:133,0
DA:134,0
DA:135,0
DA:185,0
DA:209,0
DA:215,0
DA:217,0
DA:218,0
DA:219,0
DA:232,0
DA:233,0
DA:234,0
DA:238,0
DA:239,0
DA:240,0
DA:241,0
DA:244,0
DA:245,0
DA:246,0
DA:247,0
DA:250,0
DA:251,0
DA:252,0
DA:253,0
DA:270,0
DA:281,0
DA:282,0
DA:283,0
DA:299,0
DA:300,0
DA:301,0
DA:302,0
DA:304,0
DA:305,0
DA:306,0
DA:307,0
DA:308,0
DA:309,0
DA:310,0
DA:313,0
DA:327,0
DA:328,0
DA:333,0
DA:336,0
DA:347,0
DA:349,0
DA:350,0
DA:352,0
DA:354,0
DA:357,0
DA:369,0
DA:373,0
DA:377,0
DA:389,0
DA:390,0
DA:391,0
DA:393,0
DA:420,0
DA:421,0
DA:424,0
DA:425,0
DA:426,0
DA:445,0
DA:448,0
DA:449,0
DA:450,0
DA:504,0
DA:505,0
DA:528,0
DA:529,0
DA:554,0
DA:555,0
DA:556,0
DA:582,0
DA:583,0
DA:694,0
DA:699,0
DA:700,0
DA:702,0
DA:703,0
DA:704,0
DA:705,0
DA:706,0
DA:707,0
DA:708,0
DA:709,0
DA:713,0
DA:714,0
DA:727,0
DA:728,0
DA:729,0
DA:730,0
DA:891,0
DA:892,0
LF:100
LH:0
end_of_record
TN:
SF:/home/savvich/lab3/build/_deps/googletest-src/googletest/include/gtest/gtest-message.h
FN:112,114,_ZN7testing7MessageC2ERKS0_
FN:132,150,_ZN7testing7MessagelsIA100_cEERS0_RKT_
FN:132,150,_ZN7testing7MessagelsIA106_cEERS0_RKT_
FN:132,150,_ZN7testing7MessagelsIA10_cEERS0_RKT_
FN:132,150,_ZN7testing7MessagelsIA11_cEERS0_RKT_
FN:132,150,_ZN7testing7MessagelsIA12_cEERS0_RKT_
FN:132,150,_ZN7testing7MessagelsIA13_cEERS0_RKT_
FN:132,150,_ZN7testing7MessagelsIA14_cEERS0_RKT_
FN:132,150,_ZN7testing7MessagelsIA15_cEERS0_RKT_
FN:132,150,_ZN7testing7MessagelsIA16_cEERS0_RKT_
FN:132,150,_ZN7testing7MessagelsIA17_cEERS0_RKT_
FN:132,150,_ZN7testing7MessagelsIA18_cEERS0_RKT_
FN:132,150,_ZN7testing7MessagelsIA19_cEERS0_RKT_
FN:132,150,_ZN7testing7MessagelsIA20_cEERS0_RKT_
FN:132,150,_ZN7testing7MessagelsIA21_cEERS0_RKT_
FN:132,150,_ZN7testing7MessagelsIA22_cEERS0_RKT_
FN:132,150,_ZN7testing7MessagelsIA24_cEERS0_RKT_
FN:132,150,_ZN7testing7MessagelsIA256_cEERS0_RKT_
FN:132,150,_ZN7testing7MessagelsIA25_cEERS0_RKT_
FN:132,150,_ZN7testing7MessagelsIA27_cEERS0_RKT_
FN:132,150,_ZN7testing7MessagelsIA28_cEERS0_RKT_
FN:132,150,_ZN7testing7MessagelsIA29_cEERS0_RKT_
FN:132,150,_ZN7testing7MessagelsIA2_cEERS0_RKT_
FN:132,150,_ZN7testing7MessagelsIA30_cEERS0_RKT_
FN:132,150,_ZN7testing7MessagelsIA32_cEERS0_RKT_
FN:132,150,_ZN7testing7MessagelsIA33_cEERS0_RKT_
FN:132,150,_ZN7testing7MessagelsIA35_cEERS0_RKT_
FN:132,150,_ZN7testing7MessagelsIA38_cEERS0_RKT_
FN:132,150,_ZN7testing7MessagelsIA39_cEERS0_RKT_
FN:132,150,_ZN7testing7MessagelsIA3_cEERS0_RKT_
FN:132,150,_ZN7testing7MessagelsIA40_cEERS0_RKT_
FN:132,150,_ZN7testing7MessagelsIA41_cEERS0_RKT_
FN:132,150,_ZN7testing7MessagelsIA47_cEERS0_RKT_
FN:132,150,_ZN7testing7MessagelsIA48_cEERS0_RKT_
FN:132,150,_ZN7testing7MessagelsIA4_cEERS0_RKT_
FN:132,150,_ZN7testing7MessagelsIA50_cEERS0_RKT_
FN:132,150,_ZN7testing7MessagelsIA51_cEERS0_RKT_
FN:132,150,_ZN7testing7MessagelsIA52_cEERS0_RKT_
FN:132,150,_ZN7testing7MessagelsIA53_cEERS0_RKT_
FN:132,150,_ZN7testing7MessagelsIA5_cEERS0_RKT_
FN:132,150,_ZN7testing7MessagelsIA60_cEERS0_RKT_
FN:132,150,_ZN7testing7MessagelsIA61_cEERS0_RKT_
FN:132,150,_ZN7testing7MessagelsIA62_cEERS0_RKT_
FN:132,150,_ZN7testing7MessagelsIA63_cEERS0_RKT_
FN:132,150,_ZN7testing7MessagelsIA65_cEERS0_RKT_
FN:132,150,_ZN7testing7MessagelsIA68_cEERS0_RKT_
FN:132,150,_ZN7testing7MessagelsIA6_cEERS0_RKT_
FN:132,150,_ZN7testing7MessagelsIA7_cEERS0_RKT_
FN:132,150,_ZN7testing7MessagelsIA8_cEERS0_RKT_
FN:132,150,_ZN7testing7MessagelsIA93_cEERS0_RKT_
FN:132,150,_ZN7testing7MessagelsIA9_cEERS0_RKT_
FN:132,150,_ZN7testing7MessagelsINS_14TestPartResultEEERS0_RKT_
FN:132,150,_ZN7testing7MessagelsINSt7__cxx1112basic_stringIcSt11char_traitsIcESaIcEEEEERS0_RKT_
FN:132,150,_ZN7testing7MessagelsIS0_EERS0_RKT_
FN:132,150,_ZN7testing7MessagelsIcEERS0_RKT_
FN:132,150,_ZN7testing7MessagelsIdEERS0_RKT_
FN:132,150,_ZN7testing7MessagelsIiEERS0_RKT_
FN:132,150,_ZN7testing7MessagelsIlEERS0_RKT_
FN:132,150,_ZN7testing7MessagelsImEERS0_RKT_
FN:181,188,_ZN7testing7MessagelsIKcEERS0_RKPT_
FN:181,188,_ZN7testing7MessagelsIcEERS0_RKPT_
FN:231,233,_ZN7testinglsERSoRKNS_7MessageE
FN:242,244,_ZN7testing8internal18StreamableToStringIPcEENSt7__cxx1112basic_stringIcSt11char_traitsIcESaIcEEERKT_
FN:242,244,_ZN7testing8internal18StreamableToStringIPwEENSt7__cxx1112basic_stringIcSt11char_traitsIcESaIcEEERKT_
FN:242,244,_ZN7testing8internal18StreamableToStringIiEENSt7__cxx1112basic_stringIcSt11char_traitsIcESaIcEEERKT_
FN:242,244,_ZN7testing8internal18StreamableToStringIlEENSt7__cxx1112basic_stringIcSt11char_traitsIcESaIcEEERKT_
FNDA:0,_ZN7testing7MessageC2ERKS0_
FNDA:0,_ZN7testing7MessagelsIA100_cEERS0_RKT_
FNDA:0,_ZN7testing7MessagelsIA106_cEERS0_RKT_
FNDA:0,_ZN7testing7MessagelsIA10_cEERS0_RKT_
FNDA:0,_ZN7testing7MessagelsIA11_cEERS0_RKT_
FNDA:0,_ZN7testing7MessagelsIA12_cEERS0_RKT_
FNDA:0,_ZN7testing7MessagelsIA13_cEERS0_RKT_
FNDA:0,_ZN7testing7MessagelsIA14_cEERS0_RKT_
FNDA:0,_ZN7testing7MessagelsIA15_cEERS0_RKT_
FNDA:2,_ZN7testing7MessagelsIA16_cEERS0_RKT_
FNDA:0,_ZN7testing7MessagelsIA17_cEERS0_RKT_
FNDA:0,_ZN7testing7MessagelsIA18_cEERS0_RKT_
FNDA:0,_ZN7testing7MessagelsIA19_cEERS0_RKT_
FNDA:0,_ZN7testing7MessagelsIA20_cEERS0_RKT_
FNDA:0,_ZN7testing7MessagelsIA21_cEERS0_RKT_
FNDA:0,_ZN7testing7MessagelsIA22_cEERS0_RKT_
FNDA:0,_ZN7testing7MessagelsIA24_cEERS0_RKT_
FNDA:0,_ZN7testing7MessagelsIA256_cEERS0_RKT_
FNDA:0,_ZN7testing7MessagelsIA25_cEERS0_RKT_
FNDA:0,_ZN7testing7MessagelsIA27_cEERS0_RKT_
FNDA:0,_ZN7testing7MessagelsIA28_cEERS0_RKT_
FNDA:0,_ZN7testing7MessagelsIA29_cEERS0_RKT_
FNDA:4,_ZN7testing7MessagelsIA2_cEERS0_RKT_
FNDA:0,_ZN7testing7MessagelsIA30_cEERS0_RKT_
FNDA:0,_ZN7testing7MessagelsIA32_cEERS0_RKT_
FNDA:0,_ZN7testing7MessagelsIA33_cEERS0_RKT_
FNDA:2,_ZN7testing7MessagelsIA35_cEERS0_RKT_
FNDA:0,_ZN7testing7MessagelsIA38_cEERS0_RKT_
FNDA:0,_ZN7testing7MessagelsIA39_cEERS0_RKT_
FNDA:0,_ZN7testing7MessagelsIA3_cEERS0_RKT_
FNDA:0,_ZN7testing7MessagelsIA40_cEERS0_RKT_
FNDA:0,_ZN7testing7MessagelsIA41_cEERS0_RKT_
FNDA:0,_ZN7testing7MessagelsIA47_cEERS0_RKT_
FNDA:0,_ZN7testing7MessagelsIA48_cEERS0_RKT_
FNDA:4,_ZN7testing7MessagelsIA4_cEERS0_RKT_
FNDA:0,_ZN7testing7MessagelsIA50_cEERS0_RKT_
FNDA:0,_ZN7testing7MessagelsIA51_cEERS0_RKT_
FNDA:0,_ZN7testing7MessagelsIA52_cEERS0_RKT_
FNDA:0,_ZN7testing7MessagelsIA53_cEERS0_RKT_
FNDA:0,_ZN7testing7MessagelsIA5_cEERS0_RKT_
FNDA:0,_ZN7testing7MessagelsIA60_cEERS0_RKT_
FNDA:0,_ZN7testing7MessagelsIA61_cEERS0_RKT_
FNDA:0,_ZN7testing7MessagelsIA62_cEERS0_RKT_
FNDA:0,_ZN7testing7MessagelsIA63_cEERS0_RKT_
FNDA:0,_ZN7testing7MessagelsIA65_cEERS0_RKT_
FNDA:0,_ZN7testing7MessagelsIA68_cEERS0_RKT_
FNDA:0,_ZN7testing7MessagelsIA6_cEERS0_RKT_
FNDA:23,_ZN7testing7MessagelsIA7_cEERS0_RKT_
FNDA:0,_ZN7testing7MessagelsIA8_cEERS0_RKT_
FNDA:0,_ZN7testing7MessagelsIA93_cEERS0_RKT_
FNDA:0,_ZN7testing7MessagelsIA9_cEERS0_RKT_
FNDA:0,_ZN7testing7MessagelsINS_14TestPartResultEEERS0_RKT_
FNDA:6,_ZN7testing7MessagelsINSt7__cxx1112basic_stringIcSt11char_traitsIcESaIcEEEEERS0_RKT_
FNDA:2,_ZN7testing7MessagelsIS0_EERS0_RKT_
FNDA:472,_ZN7testing7MessagelsIcEERS0_RKT_
FNDA:0,_ZN7testing7MessagelsIdEERS0_RKT_
FNDA:22,_ZN7testing7MessagelsIiEERS0_RKT_
FNDA:15,_ZN7testing7MessagelsIlEERS0_RKT_
FNDA:0,_ZN7testing7MessagelsImEERS0_RKT_
FNDA:31,_ZN7testing7MessagelsIKcEERS0_RKPT_
FNDA:1,_ZN7testing7MessagelsIcEERS0_RKPT_
FNDA:2,_ZN7testinglsERSoRKNS_7MessageE
FNDA:1,_ZN7testing8internal18StreamableToStringIPcEENSt7__cxx1112basic_stringIcSt11char_traitsIcESaIcEEERKT_
FNDA:0,_ZN7testing8internal18StreamableToStringIPwEENSt7__cxx1112basic_stringIcSt11char_traitsIcESaIcEEERKT_
FNDA:22,_ZN7testing8internal18StreamableToStringIiEENSt7__cxx1112basic_stringIcSt11char_traitsIcESaIcEEERKT_
FNDA:15,_ZN7testing8internal18StreamableToStringIlEENSt7__cxx1112basic_stringIcSt11char_traitsIcESaIcEEERKT_
FNF:66
FNH:16
DA:112,0
DA:113,0
DA:114,0
DA:132,552
DA:148,552
DA:149,552
DA:181,32
DA:182,32
DA:183,0
DA:185,32
DA:187,32
DA:231,2
DA:232,2
DA:242,38
DA:243,38
LF:15
LH:11
end_of_record
TN:
SF:/home/savvich/lab3/build/_deps/googletest-src/googletest/include/gtest/gtest-printers.h
FN:1070,1072,_ZN7testing8internal21UniversalTersePrinterINSt7__cxx1112basic_stringIcSt11char_traitsIcESaIcEEEE5PrintERKS7_PSo
FN:1070,1072,_ZN7testing8internal21UniversalTersePrinterIiE5PrintERKiPSo
FN:1098,1104,_ZN7testing8internal21UniversalTersePrinterIPKcE5PrintES3_PSo
FN:1161,1167,_ZN7testing8internal21UniversalTersePrinterIPKwE5PrintES3_PSo
FN:1189,1194,_ZN7testing8internal14UniversalPrintINSt7__cxx1112basic_stringIcSt11char_traitsIcESaIcEEEEEvRKT_PSo
FN:1189,1194,_ZN7testing8internal14UniversalPrintINSt7__cxx1112basic_stringIwSt11char_traitsIwESaIwEEEEEvRKT_PSo
FN:1189,1194,_ZN7testing8internal14UniversalPrintIiEEvRKT_PSo
FN:1229,1233,_ZN7testing13PrintToStringINSt7__cxx1112basic_stringIcSt11char_traitsIcESaIcEEEEES6_RKT_
FN:1229,1233,_ZN7testing13PrintToStringIPKcEENSt7__cxx1112basic_stringIcSt11char_traitsIcESaIcEEERKT_
FN:1229,1233,_ZN7testing13PrintToStringIPKwEENSt7__cxx1112basic_stringIcSt11char_traitsIcESaIcEEERKT_
FN:1229,1233,_ZN7testing13PrintToStringIiEENSt7__cxx1112basic_stringIcSt11char_traitsIcESaIcEEERKT_
FN:252,257,_ZN7testing8internal52internal_stream_operator_without_lexical_name_lookup13StreamPrinter10PrintValueIivEEDTcvvlsdefp0_fp_ERKT_PSo
FN:356,367,_ZN7testing8internal17PrintWithFallbackIiEEvRKT_PSo
FN:387,389,_ZN7testing8internal19FormatForComparisonINSt7__cxx1112basic_stringIcSt11char_traitsIcESaIcEEEA1_cE6FormatERKS7_
FN:387,389,_ZN7testing8internal19FormatForComparisonINSt7__cxx1112basic_stringIcSt11char_traitsIcESaIcEEEA2_cE6FormatERKS7_
FN:387,389,_ZN7testing8internal19FormatForComparisonINSt7__cxx1112basic_stringIcSt11char_traitsIcESaIcEEEA3_cE6FormatERKS7_
FN:387,389,_ZN7testing8internal19FormatForComparisonINSt7__cxx1112basic_stringIcSt11char_traitsIcESaIcEEEA5_cE6FormatERKS7_
FN:387,389,_ZN7testing8internal19FormatForComparisonINSt7__cxx1112basic_stringIcSt11char_traitsIcESaIcEEEA6_cE6FormatERKS7_
FN:387,389,_ZN7testing8internal19FormatForComparisonINSt7__cxx1112basic_stringIcSt11char_traitsIcESaIcEEEA8_cE6FormatERKS7_
FN:387,389,_ZN7testing8internal19FormatForComparisonIiiE6FormatB5cxx11ERKi
FN:396,398,_ZN7testing8internal19FormatForComparisonIA1_cNSt7__cxx1112basic_stringIcSt11char_traitsIcESaIcEEEE6FormatEPKc
FN:396,398,_ZN7testing8internal19FormatForComparisonIA2_cNSt7__cxx1112basic_stringIcSt11char_traitsIcESaIcEEEE6FormatEPKc
FN:396,398,_ZN7testing8internal19FormatForComparisonIA3_cNSt7__cxx1112basic_stringIcSt11char_traitsIcESaIcEEEE6FormatEPKc
FN:396,398,_ZN7testing8internal19FormatForComparisonIA5_cNSt7__cxx1112basic_stringIcSt11char_traitsIcESaIcEEEE6FormatEPKc
FN:396,398,_ZN7testing8internal19FormatForComparisonIA6_cNSt7__cxx1112basic_stringIcSt11char_traitsIcESaIcEEEE6FormatEPKc
FN:396,398,_ZN7testing8internal19FormatForComparisonIA8_cNSt7__cxx1112basic_stringIcSt11char_traitsIcESaIcEEEE6FormatEPKc
FN:441,441,_ZN7testing8internal19FormatForComparisonIPKcNSt7__cxx1112basic_stringIcSt11char_traitsIcESaIcEEEE6FormatES3_
FN:467,470,_ZN7testing8internal33FormatForComparisonFailureMessageIA1_cNSt7__cxx1112basic_stringIcSt11char_traitsIcESaIcEEEEES8_RKT_RKT0_
FN:467,470,_ZN7testing8internal33FormatForComparisonFailureMessageIA2_cNSt7__cxx1112basic_stringIcSt11char_traitsIcESaIcEEEEES8_RKT_RKT0_
FN:467,470,_ZN7testing8internal33FormatForComparisonFailureMessageIA3_cNSt7__cxx1112basic_stringIcSt11char_traitsIcESaIcEEEEES8_RKT_RKT0_
FN:467,470,_ZN7testing8internal33FormatForComparisonFailureMessageIA5_cNSt7__cxx1112basic_stringIcSt11char_traitsIcESaIcEEEEES8_RKT_RKT0_
FN:467,470,_ZN7testing8internal33FormatForComparisonFailureMessageIA6_cNSt7__cxx1112basic_stringIcSt11char_traitsIcESaIcEEEEES8_RKT_RKT0_
FN:467,470,_ZN7testing8internal33FormatForComparisonFailureMessageIA8_cNSt7__cxx1112basic_stringIcSt11char_traitsIcESaIcEEEEES8_RKT_RKT0_
FN:467,470,_ZN7testing8internal33FormatForComparisonFailureMessageINSt7__cxx1112basic_stringIcSt11char_traitsIcESaIcEEEA1_cEES7_RKT_RKT0_
FN:467,470,_ZN7testing8internal33FormatForComparisonFailureMessageINSt7__cxx1112basic_stringIcSt11char_traitsIcESaIcEEEA2_cEES7_RKT_RKT0_
FN:467,470,_ZN7testing8internal33FormatForComparisonFailureMessageINSt7__cxx1112basic_stringIcSt11char_traitsIcESaIcEEEA3_cEES7_RKT_RKT0_
FN:467,470,_ZN7testing8internal33FormatForComparisonFailureMessageINSt7__cxx1112basic_stringIcSt11char_traitsIcESaIcEEEA5_cEES7_RKT_RKT0_
FN:467,470,_ZN7testing8internal33FormatForComparisonFailureMessageINSt7__cxx1112basic_stringIcSt11char_traitsIcESaIcEEEA6_cEES7_RKT_RKT0_
FN:467,470,_ZN7testing8internal33FormatForComparisonFailureMessageINSt7__cxx1112basic_stringIcSt11char_traitsIcESaIcEEEA8_cEES7_RKT_RKT0_
FN:467,470,_ZN7testing8internal33FormatForComparisonFailureMessageIiiEENSt7__cxx1112basic_stringIcSt11char_traitsIcESaIcEEERKT_RKT0_
FN:494,496,_ZN7testing8internal7PrintToIiEEvRKT_PSo
FN:708,710,_ZN7testing8internal7PrintToERKNSt7__cxx1112basic_stringIcSt11char_traitsIcESaIcEEEPSo
FN:747,749,_ZN7testing8internal7PrintToERKNSt7__cxx1112basic_stringIwSt11char_traitsIwESaIwEEEPSo
FN:901,911,_ZN7testing8internal16UniversalPrinterINSt7__cxx1112basic_stringIcSt11char_traitsIcESaIcEEEE5PrintERKS7_PSo
FN:901,911,_ZN7testing8internal16UniversalPrinterINSt7__cxx1112basic_stringIwSt11char_traitsIwESaIwEEEE5PrintERKS7_PSo
FN:901,911,_ZN7testing8internal16UniversalPrinterIiE5PrintERKiPSo
FNDA:2,_ZN7testing8internal21UniversalTersePrinterINSt7__cxx1112basic_stringIcSt11char_traitsIcESaIcEEEE5PrintERKS7_PSo
FNDA:0,_ZN7testing8internal21UniversalTersePrinterIiE5PrintERKiPSo
FNDA:2,_ZN7testing8internal21UniversalTersePrinterIPKcE5PrintES3_PSo
FNDA:0,_ZN7testing8internal21UniversalTersePrinterIPKwE5PrintES3_PSo
FNDA:4,_ZN7testing8internal14UniversalPrintINSt7__cxx1112basic_stringIcSt11char_traitsIcESaIcEEEEEvRKT_PSo
FNDA:0,_ZN7testing8internal14UniversalPrintINSt7__cxx1112basic_stringIwSt11char_traitsIwESaIwEEEEEvRKT_PSo
FNDA:0,_ZN7testing8internal14UniversalPrintIiEEvRKT_PSo
FNDA:2,_ZN7testing13PrintToStringINSt7__cxx1112basic_stringIcSt11char_traitsIcESaIcEEEEES6_RKT_
FNDA:2,_ZN7testing13PrintToStringIPKcEENSt7__cxx1112basic_stringIcSt11char_traitsIcESaIcEEERKT_
FNDA:0,_ZN7testing13PrintToStringIPKwEENSt7__cxx1112basic_stringIcSt11char_traitsIcESaIcEEERKT_
FNDA:0,_ZN7testing13PrintToStringIiEENSt7__cxx1112basic_stringIcSt11char_traitsIcESaIcEEERKT_
FNDA:0,_ZN7testing8internal52internal_stream_operator_without_lexical_name_lookup13StreamPrinter10PrintValueIivEEDTcvvlsdefp0_fp_ERKT_PSo
FNDA:0,_ZN7testing8internal17PrintWithFallbackIiEEvRKT_PSo
FNDA:1,_ZN7testing8internal19FormatForComparisonINSt7__cxx1112basic_stringIcSt11char_traitsIcESaIcEEEA1_cE6FormatERKS7_
FNDA:0,_ZN7testing8internal19FormatForComparisonINSt7__cxx1112basic_stringIcSt11char_traitsIcESaIcEEEA2_cE6FormatERKS7_
FNDA:1,_ZN7testing8internal19FormatForComparisonINSt7__cxx1112basic_stringIcSt11char_traitsIcESaIcEEEA3_cE6FormatERKS7_
FNDA:0,_ZN7testing8internal19FormatForComparisonINSt7__cxx1112basic_stringIcSt11char_traitsIcESaIcEEEA5_cE6FormatERKS7_
FNDA:0,_ZN7testing8internal19FormatForComparisonINSt7__cxx1112basic_stringIcSt11char_traitsIcESaIcEEEA6_cE6FormatERKS7_
FNDA:0,_ZN7testing8internal19FormatForComparisonINSt7__cxx1112basic_stringIcSt11char_traitsIcESaIcEEEA8_cE6FormatERKS7_
FNDA:0,_ZN7testing8internal19FormatForComparisonIiiE6FormatB5cxx11ERKi
FNDA:1,_ZN7testing8internal19FormatForComparisonIA1_cNSt7__cxx1112basic_stringIcSt11char_traitsIcESaIcEEEE6FormatEPKc
FNDA:0,_ZN7testing8internal19FormatForComparisonIA2_cNSt7__cxx1112basic_stringIcSt11char_traitsIcESaIcEEEE6FormatEPKc
FNDA:1,_ZN7testing8internal19FormatForComparisonIA3_cNSt7__cxx1112basic_stringIcSt11char_traitsIcESaIcEEEE6FormatEPKc
FNDA:0,_ZN7testing8internal19FormatForComparisonIA5_cNSt7__cxx1112basic_stringIcSt11char_traitsIcESaIcEEEE6FormatEPKc
FNDA:0,_ZN7testing8internal19FormatForComparisonIA6_cNSt7__cxx1112basic_stringIcSt11char_traitsIcESaIcEEEE6FormatEPKc
FNDA:0,_ZN7testing8internal19FormatForComparisonIA8_cNSt7__cxx1112basic_stringIcSt11char_traitsIcESaIcEEEE6FormatEPKc
FNDA:2,_ZN7testing8internal19FormatForComparisonIPKcNSt7__cxx1112basic_stringIcSt11char_traitsIcESaIcEEEE6FormatES3_
FNDA:1,_ZN7testing8internal33FormatForComparisonFailureMessageIA1_cNSt7__cxx1112basic_stringIcSt11char_traitsIcESaIcEEEEES8_RKT_RKT0_
FNDA:0,_ZN7testing8internal33FormatForComparisonFailureMessageIA2_cNSt7__cxx1112basic_stringIcSt11char_traitsIcESaIcEEEEES8_RKT_RKT0_
FNDA:1,_ZN7testing8internal33FormatForComparisonFailureMessageIA3_cNSt7__cxx1112basic_stringIcSt11char_traitsIcESaIcEEEEES8_RKT_RKT0_
FNDA:0,_ZN7testing8internal33FormatForComparisonFailureMessageIA5_cNSt7__cxx1112basic_stringIcSt11char_traitsIcESaIcEEEEES8_RKT_RKT0_
FNDA:0,_ZN7testing8internal33FormatForComparisonFailureMessageIA6_cNSt7__cxx1112basic_stringIcSt11char_traitsIcESaIcEEEEES8_RKT_RKT0_
FNDA:0,_ZN7testing8internal33FormatForComparisonFailureMessageIA8_cNSt7__cxx1112basic_stringIcSt11char_traitsIcESaIcEEEEES8_RKT_RKT0_
FNDA:1,_ZN7testing8internal33FormatForComparisonFailureMessageINSt7__cxx1112basic_stringIcSt11char_traitsIcESaIcEEEA1_cEES7_RKT_RKT0_
FNDA:0,_ZN7testing8internal33FormatForComparisonFailureMessageINSt7__cxx1112basic_stringIcSt11char_traitsIcESaIcEEEA2_cEES7_RKT_RKT0_
FNDA:1,_ZN7testing8internal33FormatForComparisonFailureMessageINSt7__cxx1112basic_stringIcSt11char_traitsIcESaIcEEEA3_cEES7_RKT_RKT0_
FNDA:0,_ZN7testing8internal33FormatForComparisonFailureMessageINSt7__cxx1112basic_stringIcSt11char_traitsIcESaIcEEEA5_cEES7_RKT_RKT0_
FNDA:0,_ZN7testing8internal33FormatForComparisonFailureMessageINSt7__cxx1112basic_stringIcSt11char_traitsIcESaIcEEEA6_cEES7_RKT_RKT0_
FNDA:0,_ZN7testing8internal33FormatForComparisonFailureMessageINSt7__cxx1112basic_stringIcSt11char_traitsIcESaIcEEEA8_cEES7_RKT_RKT0_
FNDA:0,_ZN7testing8internal33FormatForComparisonFailureMessageIiiEENSt7__cxx1112basic_stringIcSt11char_traitsIcESaIcEEERKT_RKT0_
FNDA:0,_ZN7testing8internal7PrintToIiEEvRKT_PSo
FNDA:4,_ZN7testing8internal7PrintToERKNSt7__cxx1112basic_stringIcSt11char_traitsIcESaIcEEEPSo
FNDA:0,_ZN7testing8internal7PrintToERKNSt7__cxx1112basic_stringIwSt11char_traitsIwESaIwEEEPSo
FNDA:4,_ZN7testing8internal16UniversalPrinterINSt7__cxx1112basic_stringIcSt11char_traitsIcESaIcEEEE5PrintERKS7_PSo
FNDA:0,_ZN7testing8internal16UniversalPrinterINSt7__cxx1112basic_stringIwSt11char_traitsIwESaIwEEEE5PrintERKS7_PSo
FNDA:0,_ZN7testing8internal16UniversalPrinterIiE5PrintERKiPSo
FNF:46
FNH:16
DA:252,0
DA:256,0
DA:257,0
DA:356,0
DA:366,0
DA:367,0
DA:387,2
DA:388,2
DA:396,2
DA:397,2
DA:441,2
DA:467,4
DA:469,4
DA:494,0
DA:495,0
DA:496,0
DA:708,4
DA:709,4
DA:710,4
DA:747,0
DA:748,0
DA:749,0
DA:901,4
DA:910,4
DA:911,4
DA:1070,2
DA:1071,2
DA:1072,2
DA:1098,2
DA:1099,2
DA:1100,0
DA:1102,4
DA:1104,2
DA:1161,0
DA:1162,0
DA:1163,0
DA:1165,0
DA:1167,0
DA:1189,4
DA:1193,4
DA:1194,4
DA:1229,4
DA:1230,4
DA:1231,4
DA:1232,8
DA:1233,4
LF:46
LH:28
end_of_record
TN:
SF:/home/savvich/lab3/build/_deps/googletest-src/googletest/include/gtest/gtest-test-part.h
FN:102,102,_ZNK7testing14TestPartResult17nonfatally_failedEv
FN:105,105,_ZNK7testing14TestPartResult14fatally_failedEv
FN:108,108,_ZNK7testing14TestPartResult6failedEv
FN:157,157,_ZN7testing31TestPartResultReporterInterfaceD0Ev
FN:157,157,_ZN7testing31TestPartResultReporterInterfaceD2Ev
FN:68,74,_ZN7testing14TestPartResultC2ENS0_4TypeEPKciS3_
FN:77,77,_ZNK7testing14TestPartResult4typeEv
FN:81,83,_ZNK7testing14TestPartResult9file_nameEv
FN:87,87,_ZNK7testing14TestPartResult11line_numberEv
FN:90,90,_ZNK7testing14TestPartResult7summaryEv
FN:93,93,_ZNK7testing14TestPartResult7messageEv
FN:96,96,_ZNK7testing14TestPartResult7skippedEv
FNDA:12,_ZNK7testing14TestPartResult17nonfatally_failedEv
FNDA:12,_ZNK7testing14TestPartResult14fatally_failedEv
FNDA:12,_ZNK7testing14TestPartResult6failedEv
FNDA:0,_ZN7testing31TestPartResultReporterInterfaceD0Ev
FNDA:2,_ZN7testing31TestPartResultReporterInterfaceD2Ev
FNDA:2,_ZN7testing14TestPartResultC2ENS0_4TypeEPKciS3_
FNDA:4,_ZNK7testing14TestPartResult4typeEv
FNDA:2,_ZNK7testing14TestPartResult9file_nameEv
FNDA:2,_ZNK7testing14TestPartResult11line_numberEv
FNDA:0,_ZNK7testing14TestPartResult7summaryEv
FNDA:2,_ZNK7testing14TestPartResult7messageEv
FNDA:0,_ZNK7testing14TestPartResult7skippedEv
FNF:12
FNH:9
DA:68,2
DA:70,2
DA:71,4
DA:72,2
DA:73,2
DA:74,6
DA:77,4
DA:81,2
DA:82,2
DA:87,2
DA:90,0
DA:93,2
DA:96,0
DA:102,12
DA:105,12
DA:108,12
DA:157,2
LF:17
LH:15
end_of_record
TN:
SF:/home/savvich/lab3/build/_deps/googletest-src/googletest/include/gtest/gtest.h
FN:1002,1002,_ZN7testing22EmptyTestEventListener15OnTestCaseStartERKNS_9TestSuiteE
FN:1005,1005,_ZN7testing22EmptyTestEventListener11OnTestStartERKNS_8TestInfoE
FN:1006,1006,_ZN7testing22EmptyTestEventListener14OnTestDisabledERKNS_8TestInfoE
FN:1007,1007,_ZN7testing22EmptyTestEventListener16OnTestPartResultERKNS_14TestPartResultE
FN:1008,1008,_ZN7testing22EmptyTestEventListener9OnTestEndERKNS_8TestInfoE
FN:1009,1009,_ZN7testing22EmptyTestEventListener14OnTestSuiteEndERKNS_9TestSuiteE
FN:1011,1011,_ZN7testing22EmptyTestEventListener13OnTestCaseEndERKNS_9TestSuiteE
FN:1014,1014,_ZN7testing22EmptyTestEventListener27OnEnvironmentsTearDownStartERKNS_8UnitTestE
FN:1015,1015,_ZN7testing22EmptyTestEventListener25OnEnvironmentsTearDownEndERKNS_8UnitTestE
FN:1016,1017,_ZN7testing22EmptyTestEventListener18OnTestIterationEndERKNS_8UnitTestEi
FN:1018,1018,_ZN7testing22EmptyTestEventListener16OnTestProgramEndERKNS_8UnitTestE
FN:1280,1280,_ZN7testing8UnitTest4implEv
FN:1281,1281,_ZNK7testing8UnitTest4implEv
FN:1374,1380,_ZN7testing8internal18CmpHelperEQFailureINSt7__cxx1112basic_stringIcSt11char_traitsIcESaIcEEEA1_cEENS_15AssertionResultEPKcSB_RKT_RKT0_
FN:1374,1380,_ZN7testing8internal18CmpHelperEQFailureINSt7__cxx1112basic_stringIcSt11char_traitsIcESaIcEEEA2_cEENS_15AssertionResultEPKcSB_RKT_RKT0_
FN:1374,1380,_ZN7testing8internal18CmpHelperEQFailureINSt7__cxx1112basic_stringIcSt11char_traitsIcESaIcEEEA3_cEENS_15AssertionResultEPKcSB_RKT_RKT0_
FN:1374,1380,_ZN7testing8internal18CmpHelperEQFailureINSt7__cxx1112basic_stringIcSt11char_traitsIcESaIcEEEA5_cEENS_15AssertionResultEPKcSB_RKT_RKT0_
FN:1374,1380,_ZN7testing8internal18CmpHelperEQFailureINSt7__cxx1112basic_stringIcSt11char_traitsIcESaIcEEEA6_cEENS_15AssertionResultEPKcSB_RKT_RKT0_
FN:1374,1380,_ZN7testing8internal18CmpHelperEQFailureINSt7__cxx1112basic_stringIcSt11char_traitsIcESaIcEEEA8_cEENS_15AssertionResultEPKcSB_RKT_RKT0_
FN:1374,1380,_ZN7testing8internal18CmpHelperEQFailureIiiEENS_15AssertionResultEPKcS4_RKT_RKT0_
FN:1391,1399,_ZN7testing8internal11CmpHelperEQINSt7__cxx1112basic_stringIcSt11char_traitsIcESaIcEEEA1_cEENS_15AssertionResultEPKcSB_RKT_RKT0_
FN:1391,1399,_ZN7testing8internal11CmpHelperEQINSt7__cxx1112basic_stringIcSt11char_traitsIcESaIcEEEA2_cEENS_15AssertionResultEPKcSB_RKT_RKT0_
FN:1391,1399,_ZN7testing8internal11CmpHelperEQINSt7__cxx1112basic_stringIcSt11char_traitsIcESaIcEEEA3_cEENS_15AssertionResultEPKcSB_RKT_RKT0_
FN:1391,1399,_ZN7testing8internal11CmpHelperEQINSt7__cxx1112basic_stringIcSt11char_traitsIcESaIcEEEA5_cEENS_15AssertionResultEPKcSB_RKT_RKT0_
FN:1391,1399,_ZN7testing8internal11CmpHelperEQINSt7__cxx1112basic_stringIcSt11char_traitsIcESaIcEEEA6_cEENS_15AssertionResultEPKcSB_RKT_RKT0_
FN:1391,1399,_ZN7testing8internal11CmpHelperEQINSt7__cxx1112basic_stringIcSt11char_traitsIcESaIcEEEA8_cEENS_15AssertionResultEPKcSB_RKT_RKT0_
FN:1391,1399,_ZN7testing8internal11CmpHelperEQIiiEENS_15AssertionResultEPKcS4_RKT_RKT0_
FN:1410,1414,_ZN7testing8internal8EqHelper7CompareINSt7__cxx1112basic_stringIcSt11char_traitsIcESaIcEEEA1_cLPv0EEENS_15AssertionResultEPKcSD_RKT_RKT0_
FN:1410,1414,_ZN7testing8internal8EqHelper7CompareINSt7__cxx1112basic_stringIcSt11char_traitsIcESaIcEEEA2_cLPv0EEENS_15AssertionResultEPKcSD_RKT_RKT0_
FN:1410,1414,_ZN7testing8internal8EqHelper7CompareINSt7__cxx1112basic_stringIcSt11char_traitsIcESaIcEEEA3_cLPv0EEENS_15AssertionResultEPKcSD_RKT_RKT0_
FN:1410,1414,_ZN7testing8internal8EqHelper7CompareINSt7__cxx1112basic_stringIcSt11char_traitsIcESaIcEEEA5_cLPv0EEENS_15AssertionResultEPKcSD_RKT_RKT0_
FN:1410,1414,_ZN7testing8internal8EqHelper7CompareINSt7__cxx1112basic_stringIcSt11char_traitsIcESaIcEEEA6_cLPv0EEENS_15AssertionResultEPKcSD_RKT_RKT0_
FN:1410,1414,_ZN7testing8internal8EqHelper7CompareINSt7__cxx1112basic_stringIcSt11char_traitsIcESaIcEEEA8_cLPv0EEENS_15AssertionResultEPKcSD_RKT_RKT0_
FN:1410,1414,_ZN7testing8internal8EqHelper7CompareIiiLPv0EEENS_15AssertionResultEPKcS6_RKT_RKT0_
FN:1443,1450,_ZN7testing8internal18CmpHelperOpFailureINSt7__cxx1112basic_stringIcSt11char_traitsIcESaIcEEEA1_cEENS_15AssertionResultEPKcSB_RKT_RKT0_SB_
FN:1472,1472,_ZN7testing8internal11CmpHelperNEINSt7__cxx1112basic_stringIcSt11char_traitsIcESaIcEEEA1_cEENS_15AssertionResultEPKcSB_RKT_RKT0_
FN:1635,1637,_ZN7testing8internal12AssertHelper16AssertHelperDataC2ENS_14TestPartResult4TypeEPKciS6_
FN:2302,2322,_ZN7testing12RegisterTestIJEZNS_8internal23InsertSyntheticTestCaseERKNSt7__cxx1112basic_stringIcSt11char_traitsIcESaIcEEENS1_12CodeLocationEbEUlvE_EEPNS_8TestInfoEPKcSF_SF_SF_SF_iT0_
FN:2302,2322,_ZN7testing12RegisterTestIJEZNS_8internal34TypeParameterizedTestSuiteRegistry22CheckForInstantiationsEvEUlvE_EEPNS_8TestInfoEPKcS7_S7_S7_S7_iT0_
FN:2309,2309,_ZZN7testing12RegisterTestIJEZNS_8internal23InsertSyntheticTestCaseERKNSt7__cxx1112basic_stringIcSt11char_traitsIcESaIcEEENS1_12CodeLocationEbEUlvE_EEPNS_8TestInfoEPKcSF_SF_SF_SF_iT0_EN11FactoryImplC2ESB_
FN:2309,2309,_ZZN7testing12RegisterTestIJEZNS_8internal34TypeParameterizedTestSuiteRegistry22CheckForInstantiationsEvEUlvE_EEPNS_8TestInfoEPKcS7_S7_S7_S7_iT0_EN11FactoryImplC2ES3_
FN:2310,2310,_ZZN7testing12RegisterTestIJEZNS_8internal23InsertSyntheticTestCaseERKNSt7__cxx1112basic_stringIcSt11char_traitsIcESaIcEEENS1_12CodeLocationEbEUlvE_EEPNS_8TestInfoEPKcSF_SF_SF_SF_iT0_EN11FactoryImpl10CreateTestEv
FN:2310,2310,_ZZN7testing12RegisterTestIJEZNS_8internal34TypeParameterizedTestSuiteRegistry22CheckForInstantiationsEvEUlvE_EEPNS_8TestInfoEPKcS7_S7_S7_S7_iT0_EN11FactoryImpl10CreateTestEv
FN:2337,2337,_Z13RUN_ALL_TESTSv
FN:255,255,_ZN7testing4Test14SetUpTestSuiteEv
FN:263,263,_ZN7testing4Test17TearDownTestSuiteEv
FN:268,268,_ZN7testing4Test16TearDownTestCaseEv
FN:269,269,_ZN7testing4Test13SetUpTestCaseEv
FN:335,335,_ZN7testing4Test11DeleteSelf_Ev
FN:356,356,_ZN7testing4Test5SetupEv
FN:374,375,_ZN7testing12TestPropertyC2ERKNSt7__cxx1112basic_stringIcSt11char_traitsIcESaIcEEES8_
FN:378,378,_ZNK7testing12TestProperty3keyEv
FN:381,381,_ZNK7testing12TestProperty5valueEv
FN:384,384,_ZN7testing12TestProperty8SetValueERKNSt7__cxx1112basic_stringIcSt11char_traitsIcESaIcEEE
FN:415,415,_ZNK7testing10TestResult6PassedEv
FN:430,430,_ZNK7testing10TestResult12elapsed_timeEv
FN:434,434,_ZNK7testing10TestResult15start_timestampEv
FN:467,467,_ZN7testing10TestResult19set_start_timestampEl
FN:470,470,_ZN7testing10TestResult16set_elapsed_timeEl
FN:491,491,_ZNK7testing10TestResult16death_test_countEv
FN:494,494,_ZN7testing10TestResult26increment_death_test_countEv
FN:540,540,_ZNK7testing8TestInfo15test_suite_nameEv
FN:548,548,_ZNK7testing8TestInfo4nameEv
FN:552,555,_ZNK7testing8TestInfo10type_paramEv
FN:559,562,_ZNK7testing8TestInfo11value_paramEv
FN:565,565,_ZNK7testing8TestInfo4fileEv
FN:568,568,_ZNK7testing8TestInfo4lineEv
FN:571,571,_ZNK7testing8TestInfo19is_in_another_shardEv
FN:589,589,_ZNK7testing8TestInfo10should_runEv
FN:592,596,_ZNK7testing8TestInfo13is_reportableEv
FN:599,599,_ZNK7testing8TestInfo6resultEv
FN:627,629,_ZN7testing8TestInfo26increment_death_test_countEv
FN:638,640,_ZN7testing8TestInfo15ClearTestResultEPS0_
FN:694,694,_ZNK7testing9TestSuite4nameEv
FN:698,701,_ZNK7testing9TestSuite10type_paramEv
FN:704,704,_ZNK7testing9TestSuite10should_runEv
FN:731,731,_ZNK7testing9TestSuite6PassedEv
FN:734,736,_ZNK7testing9TestSuite6FailedEv
FN:739,739,_ZNK7testing9TestSuite12elapsed_timeEv
FN:743,743,_ZNK7testing9TestSuite15start_timestampEv
FN:751,751,_ZNK7testing9TestSuite18ad_hoc_test_resultEv
FN:758,758,_ZN7testing9TestSuite14test_info_listEv
FN:761,763,_ZNK7testing9TestSuite14test_info_listEv
FN:770,770,_ZN7testing9TestSuite14set_should_runEb
FN:780,782,_ZN7testing9TestSuite20ClearTestSuiteResultEPS0_
FN:792,796,_ZN7testing9TestSuite17RunSetUpTestSuiteEv
FN:800,804,_ZN7testing9TestSuite20RunTearDownTestSuiteEv
FN:807,809,_ZN7testing9TestSuite10TestPassedEPKNS_8TestInfoE
FN:812,814,_ZN7testing9TestSuite11TestSkippedEPKNS_8TestInfoE
FN:817,819,_ZN7testing9TestSuite10TestFailedEPKNS_8TestInfoE
FN:823,825,_ZN7testing9TestSuite22TestReportableDisabledEPKNS_8TestInfoE
FN:828,830,_ZN7testing9TestSuite12TestDisabledEPKNS_8TestInfoE
FN:833,835,_ZN7testing9TestSuite14TestReportableEPKNS_8TestInfoE
FN:838,840,_ZN7testing9TestSuite13ShouldRunTestEPKNS_8TestInfoE
FN:927,927,_ZN7testing17TestEventListenerD0Ev
FN:927,927,_ZN7testing17TestEventListenerD2Ev
FN:945,945,_ZN7testing17TestEventListener16OnTestSuiteStartERKNS_9TestSuiteE
FN:949,949,_ZN7testing17TestEventListener15OnTestCaseStartERKNS_9TestSuiteE
FN:956,956,_ZN7testing17TestEventListener14OnTestDisabledERKNS_8TestInfoE
FN:967,967,_ZN7testing17TestEventListener14OnTestSuiteEndERKNS_9TestSuiteE
FN:971,971,_ZN7testing17TestEventListener13OnTestCaseEndERKNS_9TestSuiteE
FN:994,994,_ZN7testing22EmptyTestEventListener18OnTestProgramStartERKNS_8UnitTestE
FN:995,996,_ZN7testing22EmptyTestEventListener20OnTestIterationStartERKNS_8UnitTestEi
FN:997,997,_ZN7testing22EmptyTestEventListener24OnEnvironmentsSetUpStartERKNS_8UnitTestE
FN:998,998,_ZN7testing22EmptyTestEventListener22OnEnvironmentsSetUpEndERKNS_8UnitTestE
FN:999,999,_ZN7testing22EmptyTestEventListener16OnTestSuiteStartERKNS_9TestSuiteE
FNDA:0,_ZN7testing22EmptyTestEventListener15OnTestCaseStartERKNS_9TestSuiteE
FNDA:0,_ZN7testing22EmptyTestEventListener11OnTestStartERKNS_8TestInfoE
FNDA:0,_ZN7testing22EmptyTestEventListener14OnTestDisabledERKNS_8TestInfoE
FNDA:0,_ZN7testing22EmptyTestEventListener16OnTestPartResultERKNS_14TestPartResultE
FNDA:0,_ZN7testing22EmptyTestEventListener9OnTestEndERKNS_8TestInfoE
FNDA:0,_ZN7testing22EmptyTestEventListener14OnTestSuiteEndERKNS_9TestSuiteE
FNDA:0,_ZN7testing22EmptyTestEventListener13OnTestCaseEndERKNS_9TestSuiteE
FNDA:0,_ZN7testing22EmptyTestEventListener27OnEnvironmentsTearDownStartERKNS_8UnitTestE
FNDA:0,_ZN7testing22EmptyTestEventListener25OnEnvironmentsTearDownEndERKNS_8UnitTestE
FNDA:0,_ZN7testing22EmptyTestEventListener18OnTestIterationEndERKNS_8UnitTestEi
FNDA:0,_ZN7testing22EmptyTestEventListener16OnTestProgramEndERKNS_8UnitTestE
FNDA:149,_ZN7testing8UnitTest4implEv
FNDA:40,_ZNK7testing8UnitTest4implEv
FNDA:1,_ZN7testing8internal18CmpHelperEQFailureINSt7__cxx1112basic_stringIcSt11char_traitsIcESaIcEEEA1_cEENS_15AssertionResultEPKcSB_RKT_RKT0_
FNDA:0,_ZN7testing8internal18CmpHelperEQFailureINSt7__cxx1112basic_stringIcSt11char_traitsIcESaIcEEEA2_cEENS_15AssertionResultEPKcSB_RKT_RKT0_
FNDA:1,_ZN7testing8internal18CmpHelperEQFailureINSt7__cxx1112basic_stringIcSt11char_traitsIcESaIcEEEA3_cEENS_15AssertionResultEPKcSB_RKT_RKT0_
FNDA:0,_ZN7testing8internal18CmpHelperEQFailureINSt7__cxx1112basic_stringIcSt11char_traitsIcESaIcEEEA5_cEENS_15AssertionResultEPKcSB_RKT_RKT0_
FNDA:0,_ZN7testing8internal18CmpHelperEQFailureINSt7__cxx1112basic_stringIcSt11char_traitsIcESaIcEEEA6_cEENS_15AssertionResultEPKcSB_RKT_RKT0_
FNDA:0,_ZN7testing8internal18CmpHelperEQFailureINSt7__cxx1112basic_stringIcSt11char_traitsIcESaIcEEEA8_cEENS_15AssertionResultEPKcSB_RKT_RKT0_
FNDA:0,_ZN7testing8internal18CmpHelperEQFailureIiiEENS_15AssertionResultEPKcS4_RKT_RKT0_
FNDA:4,_ZN7testing8internal11CmpHelperEQINSt7__cxx1112basic_stringIcSt11char_traitsIcESaIcEEEA1_cEENS_15AssertionResultEPKcSB_RKT_RKT0_
FNDA:6,_ZN7testing8internal11CmpHelperEQINSt7__cxx1112basic_stringIcSt11char_traitsIcESaIcEEEA2_cEENS_15AssertionResultEPKcSB_RKT_RKT0_
FNDA:5,_ZN7testing8internal11CmpHelperEQINSt7__cxx1112basic_stringIcSt11char_traitsIcESaIcEEEA3_cEENS_15AssertionResultEPKcSB_RKT_RKT0_
FNDA:2,_ZN7testing8internal11CmpHelperEQINSt7__cxx1112basic_stringIcSt11char_traitsIcESaIcEEEA5_cEENS_15AssertionResultEPKcSB_RKT_RKT0_
FNDA:1,_ZN7testing8internal11CmpHelperEQINSt7__cxx1112basic_stringIcSt11char_traitsIcESaIcEEEA6_cEENS_15AssertionResultEPKcSB_RKT_RKT0_
FNDA:1,_ZN7testing8internal11CmpHelperEQINSt7__cxx1112basic_stringIcSt11char_traitsIcESaIcEEEA8_cEENS_15AssertionResultEPKcSB_RKT_RKT0_
FNDA:5,_ZN7testing8internal11CmpHelperEQIiiEENS_15AssertionResultEPKcS4_RKT_RKT0_
FNDA:4,_ZN7testing8internal8EqHelper7CompareINSt7__cxx1112basic_stringIcSt11char_traitsIcESaIcEEEA1_cLPv0EEENS_15AssertionResultEPKcSD_RKT_RKT0_
FNDA:6,_ZN7testing8internal8EqHelper7CompareINSt7__cxx1112basic_stringIcSt11char_traitsIcESaIcEEEA2_cLPv0EEENS_15AssertionResultEPKcSD_RKT_RKT0_
FNDA:5,_ZN7testing8internal8EqHelper7CompareINSt7__cxx1112basic_stringIcSt11char_traitsIcESaIcEEEA3_cLPv0EEENS_15AssertionResultEPKcSD_RKT_RKT0_
FNDA:2,_ZN7testing8internal8EqHelper7CompareINSt7__cxx1112basic_stringIcSt11char_traitsIcESaIcEEEA5_cLPv0EEENS_15AssertionResultEPKcSD_RKT_RKT0_
FNDA:1,_ZN7testing8internal8EqHelper7CompareINSt7__cxx1112basic_stringIcSt11char_traitsIcESaIcEEEA6_cLPv0EEENS_15AssertionResultEPKcSD_RKT_RKT0_
FNDA:1,_ZN7testing8internal8EqHelper7CompareINSt7__cxx1112basic_stringIcSt11char_traitsIcESaIcEEEA8_cLPv0EEENS_15AssertionResultEPKcSD_RKT_RKT0_
FNDA:5,_ZN7testing8internal8EqHelper7CompareIiiLPv0EEENS_15AssertionResultEPKcS6_RKT_RKT0_
FNDA:0,_ZN7testing8internal18CmpHelperOpFailureINSt7__cxx1112basic_stringIcSt11char_traitsIcESaIcEEEA1_cEENS_15AssertionResultEPKcSB_RKT_RKT0_SB_
FNDA:1,_ZN7testing8internal11CmpHelperNEINSt7__cxx1112basic_stringIcSt11char_traitsIcESaIcEEEA1_cEENS_15AssertionResultEPKcSB_RKT_RKT0_
FNDA:2,_ZN7testing8internal12AssertHelper16AssertHelperDataC2ENS_14TestPartResult4TypeEPKciS6_
FNDA:0,_ZN7testing12RegisterTestIJEZNS_8internal23InsertSyntheticTestCaseERKNSt7__cxx1112basic_stringIcSt11char_traitsIcESaIcEEENS1_12CodeLocationEbEUlvE_EEPNS_8TestInfoEPKcSF_SF_SF_SF_iT0_
FNDA:0,_ZN7testing12RegisterTestIJEZNS_8internal34TypeParameterizedTestSuiteRegistry22CheckForInstantiationsEvEUlvE_EEPNS_8TestInfoEPKcS7_S7_S7_S7_iT0_
FNDA:0,_ZZN7testing12RegisterTestIJEZNS_8internal23InsertSyntheticTestCaseERKNSt7__cxx1112basic_stringIcSt11char_traitsIcESaIcEEENS1_12CodeLocationEbEUlvE_EEPNS_8TestInfoEPKcSF_SF_SF_SF_iT0_EN11FactoryImplC2ESB_
FNDA:0,_ZZN7testing12RegisterTestIJEZNS_8internal34TypeParameterizedTestSuiteRegistry22CheckForInstantiationsEvEUlvE_EEPNS_8TestInfoEPKcS7_S7_S7_S7_iT0_EN11FactoryImplC2ES3_
FNDA:0,_ZZN7testing12RegisterTestIJEZNS_8internal23InsertSyntheticTestCaseERKNSt7__cxx1112basic_stringIcSt11char_traitsIcESaIcEEENS1_12CodeLocationEbEUlvE_EEPNS_8TestInfoEPKcSF_SF_SF_SF_iT0_EN11FactoryImpl10CreateTestEv
FNDA:0,_ZZN7testing12RegisterTestIJEZNS_8internal34TypeParameterizedTestSuiteRegistry22CheckForInstantiationsEvEUlvE_EEPNS_8TestInfoEPKcS7_S7_S7_S7_iT0_EN11FactoryImpl10CreateTestEv
FNDA:1,_Z13RUN_ALL_TESTSv
FNDA:0,_ZN7testing4Test14SetUpTestSuiteEv
FNDA:0,_ZN7testing4Test17TearDownTestSuiteEv
FNDA:0,_ZN7testing4Test16TearDownTestCaseEv
FNDA:0,_ZN7testing4Test13SetUpTestCaseEv
FNDA:7,_ZN7testing4Test11DeleteSelf_Ev
FNDA:0,_ZN7testing4Test5SetupEv
FNDA:0,_ZN7testing12TestPropertyC2ERKNSt7__cxx1112basic_stringIcSt11char_traitsIcESaIcEEES8_
FNDA:0,_ZNK7testing12TestProperty3keyEv
FNDA:0,_ZNK7testing12TestProperty5valueEv
FNDA:0,_ZN7testing12TestProperty8SetValueERKNSt7__cxx1112basic_stringIcSt11char_traitsIcESaIcEEE
FNDA:14,_ZNK7testing10TestResult6PassedEv
FNDA:7,_ZNK7testing10TestResult12elapsed_timeEv
FNDA:0,_ZNK7testing10TestResult15start_timestampEv
FNDA:7,_ZN7testing10TestResult19set_start_timestampEl
FNDA:7,_ZN7testing10TestResult16set_elapsed_timeEl
FNDA:0,_ZNK7testing10TestResult16death_test_countEv
FNDA:0,_ZN7testing10TestResult26increment_death_test_countEv
FNDA:14,_ZNK7testing8TestInfo15test_suite_nameEv
FNDA:29,_ZNK7testing8TestInfo4nameEv
FNDA:9,_ZNK7testing8TestInfo10type_paramEv
FNDA:2,_ZNK7testing8TestInfo11value_paramEv
FNDA:0,_ZNK7testing8TestInfo4fileEv
FNDA:0,_ZNK7testing8TestInfo4lineEv
FNDA:0,_ZNK7testing8TestInfo19is_in_another_shardEv
FNDA:71,_ZNK7testing8TestInfo10should_runEv
FNDA:7,_ZNK7testing8TestInfo13is_reportableEv
FNDA:65,_ZNK7testing8TestInfo6resultEv
FNDA:0,_ZN7testing8TestInfo26increment_death_test_countEv
FNDA:7,_ZN7testing8TestInfo15ClearTestResultEPS0_
FNDA:15,_ZNK7testing9TestSuite4nameEv
FNDA:7,_ZNK7testing9TestSuite10type_paramEv
FNDA:49,_ZNK7testing9TestSuite10should_runEv
FNDA:0,_ZNK7testing9TestSuite6PassedEv
FNDA:14,_ZNK7testing9TestSuite6FailedEv
FNDA:7,_ZNK7testing9TestSuite12elapsed_timeEv
FNDA:0,_ZNK7testing9TestSuite15start_timestampEv
FNDA:33,_ZNK7testing9TestSuite18ad_hoc_test_resultEv
FNDA:8,_ZN7testing9TestSuite14test_info_listEv
FNDA:7,_ZNK7testing9TestSuite14test_info_listEv
FNDA:14,_ZN7testing9TestSuite14set_should_runEb
FNDA:7,_ZN7testing9TestSuite20ClearTestSuiteResultEPS0_
FNDA:7,_ZN7testing9TestSuite17RunSetUpTestSuiteEv
FNDA:7,_ZN7testing9TestSuite20RunTearDownTestSuiteEv
FNDA:7,_ZN7testing9TestSuite10TestPassedEPKNS_8TestInfoE
FNDA:7,_ZN7testing9TestSuite11TestSkippedEPKNS_8TestInfoE
FNDA:28,_ZN7testing9TestSuite10TestFailedEPKNS_8TestInfoE
FNDA:7,_ZN7testing9TestSuite22TestReportableDisabledEPKNS_8TestInfoE
FNDA:0,_ZN7testing9TestSuite12TestDisabledEPKNS_8TestInfoE
FNDA:0,_ZN7testing9TestSuite14TestReportableEPKNS_8TestInfoE
FNDA:28,_ZN7testing9TestSuite13ShouldRunTestEPKNS_8TestInfoE
FNDA:0,_ZN7testing17TestEventListenerD0Ev
FNDA:2,_ZN7testing17TestEventListenerD2Ev
FNDA:7,_ZN7testing17TestEventListener16OnTestSuiteStartERKNS_9TestSuiteE
FNDA:0,_ZN7testing17TestEventListener15OnTestCaseStartERKNS_9TestSuiteE
FNDA:0,_ZN7testing17TestEventListener14OnTestDisabledERKNS_8TestInfoE
FNDA:7,_ZN7testing17TestEventListener14OnTestSuiteEndERKNS_9TestSuiteE
FNDA:0,_ZN7testing17TestEventListener13OnTestCaseEndERKNS_9TestSuiteE
FNDA:0,_ZN7testing22EmptyTestEventListener18OnTestProgramStartERKNS_8UnitTestE
FNDA:0,_ZN7testing22EmptyTestEventListener20OnTestIterationStartERKNS_8UnitTestEi
FNDA:0,_ZN7testing22EmptyTestEventListener24OnEnvironmentsSetUpStartERKNS_8UnitTestE
FNDA:0,_ZN7testing22EmptyTestEventListener22OnEnvironmentsSetUpEndERKNS_8UnitTestE
FNDA:0,_ZN7testing22EmptyTestEventListener16OnTestSuiteStartERKNS_9TestSuiteE
FNF:106
FNH:54
DA:255,0
DA:263,0
DA:268,0
DA:269,0
DA:335,7
DA:356,0
DA:374,0
DA:375,0
DA:378,0
DA:381,0
DA:384,0
DA:415,14
DA:430,7
DA:434,0
DA:467,7
DA:470,7
DA:491,0
DA:494,0
DA:540,14
DA:548,29
DA:552,9
DA:553,9
DA:554,9
DA:559,2
DA:560,2
DA:561,2
DA:565,0
DA:568,0
DA:571,0
DA:589,71
DA:592,7
DA:595,7
DA:599,65
DA:627,0
DA:628,0
DA:638,7
DA:639,7
DA:640,7
DA:694,15
DA:698,7
DA:699,7
DA:700,7
DA:704,49
DA:731,0
DA:734,14
DA:735,14
DA:739,7
DA:743,0
DA:751,33
DA:758,8
DA:761,7
DA:762,7
DA:770,14
DA:780,7
DA:781,7
DA:782,7
DA:792,7
DA:793,7
DA:794,0
DA:796,7
DA:800,7
DA:801,7
DA:802,0
DA:804,7
DA:807,7
DA:808,7
DA:812,7
DA:813,7
DA:817,28
DA:818,28
DA:823,7
DA:824,7
DA:828,0
DA:829,0
DA:833,0
DA:834,0
DA:838,28
DA:839,28
DA:927,2
DA:945,7
DA:949,0
DA:956,0
DA:967,7
DA:971,0
DA:994,0
DA:995,0
DA:996,0
DA:997,0
DA:998,0
DA:999,0
DA:1002,0
DA:1005,0
DA:1006,0
DA:1007,0
DA:1008,0
DA:1009,0
DA:1011,0
DA:1014,0
DA:1015,0
DA:1016,0
DA:1017,0
DA:1018,0
DA:1280,149
DA:1281,40
DA:1374,2
DA:1379,2
DA:1391,24
DA:1394,24
DA:1395,22
DA:1398,2
DA:1410,24
DA:1413,24
DA:1443,0
DA:1447,0
DA:1448,0
DA:1449,0
DA:1472,1
DA:1635,2
DA:1637,6
DA:2302,0
DA:2309,0
DA:2310,0
DA:2316,0
DA:2318,0
DA:2321,0
DA:2337,1
LF:126
LH:69
end_of_record
TN:
SF:/home/savvich/lab3/build/_deps/googletest-src/googletest/include/gtest/internal/gtest-death-test-internal.h
FN:112,112,_ZN7testing8internal9DeathTestD0Ev
FN:112,112,_ZN7testing8internal9DeathTestD2Ev
FN:177,177,_ZN7testing8internal16DeathTestFactoryD0Ev
FN:177,177,_ZN7testing8internal16DeathTestFactoryD2Ev
FN:273,275,_ZN7testing8internal24InternalRunDeathTestFlagC2ERKNSt7__cxx1112basic_stringIcSt11char_traitsIcESaIcEEEiii
FN:277,279,_ZN7testing8internal24InternalRunDeathTestFlagD2Ev
FN:281,281,_ZNK7testing8internal24InternalRunDeathTestFlag4fileB5cxx11Ev
FN:282,282,_ZNK7testing8internal24InternalRunDeathTestFlag4lineEv
FN:283,283,_ZNK7testing8internal24InternalRunDeathTestFlag5indexEv
FN:284,284,_ZNK7testing8internal24InternalRunDeathTestFlag8write_fdEv
FNDA:0,_ZN7testing8internal9DeathTestD0Ev
FNDA:0,_ZN7testing8internal9DeathTestD2Ev
FNDA:0,_ZN7testing8internal16DeathTestFactoryD0Ev
FNDA:1,_ZN7testing8internal16DeathTestFactoryD2Ev
FNDA:0,_ZN7testing8internal24InternalRunDeathTestFlagC2ERKNSt7__cxx1112basic_stringIcSt11char_traitsIcESaIcEEEiii
FNDA:0,_ZN7testing8internal24InternalRunDeathTestFlagD2Ev
FNDA:0,_ZNK7testing8internal24InternalRunDeathTestFlag4fileB5cxx11Ev
FNDA:0,_ZNK7testing8internal24InternalRunDeathTestFlag4lineEv
FNDA:0,_ZNK7testing8internal24InternalRunDeathTestFlag5indexEv
FNDA:0,_ZNK7testing8internal24InternalRunDeathTestFlag8write_fdEv
FNF:10
FNH:1
DA:112,0
DA:177,1
DA:273,0
DA:275,0
DA:277,0
DA:278,0
DA:279,0
DA:281,0
DA:282,0
DA:283,0
DA:284,0
LF:11
LH:1
end_of_record
TN:
SF:/home/savvich/lab3/build/_deps/googletest-src/googletest/include/gtest/internal/gtest-filepath.h
FN:124,124,_ZNK7testing8internal8FilePath7IsEmptyEv
FN:72,72,_ZN7testing8internal8FilePathC2Ev
FN:73,73,_ZN7testing8internal8FilePathC2ERKS1_
FN:76,78,_ZN7testing8internal8FilePathC2ENSt7__cxx1112basic_stringIcSt11char_traitsIcESaIcEEE
FN:84,87,_ZN7testing8internal8FilePathaSEOS1_
FN:89,89,_ZN7testing8internal8FilePath3SetERKS1_
FN:91,91,_ZNK7testing8internal8FilePath6stringB5cxx11Ev
FN:92,92,_ZNK7testing8internal8FilePath5c_strEv
FNDA:8,_ZNK7testing8internal8FilePath7IsEmptyEv
FNDA:1,_ZN7testing8internal8FilePathC2Ev
FNDA:0,_ZN7testing8internal8FilePathC2ERKS1_
FNDA:1,_ZN7testing8internal8FilePathC2ENSt7__cxx1112basic_stringIcSt11char_traitsIcESaIcEEE
FNDA:1,_ZN7testing8internal8FilePathaSEOS1_
FNDA:0,_ZN7testing8internal8FilePath3SetERKS1_
FNDA:0,_ZNK7testing8internal8FilePath6stringB5cxx11Ev
FNDA:0,_ZNK7testing8internal8FilePath5c_strEv
FNF:8
FNH:4
DA:72,3
DA:73,0
DA:76,1
DA:77,1
DA:78,1
DA:84,1
DA:85,1
DA:86,1
DA:89,0
DA:91,0
DA:92,0
DA:124,8
LF:12
LH:8
end_of_record
TN:
SF:/home/savvich/lab3/build/_deps/googletest-src/googletest/include/gtest/internal/gtest-internal.h
FN:293,293,_ZN7testing8internal13FloatingPointIdEC2Ed
FN:293,293,_ZN7testing8internal13FloatingPointIfEC2Ef
FN:315,315,_ZNK7testing8internal13FloatingPointIdE13exponent_bitsEv
FN:315,315,_ZNK7testing8internal13FloatingPointIfE13exponent_bitsEv
FN:318,318,_ZNK7testing8internal13FloatingPointIdE13fraction_bitsEv
FN:318,318,_ZNK7testing8internal13FloatingPointIfE13fraction_bitsEv
FN:324,328,_ZNK7testing8internal13FloatingPointIdE6is_nanEv
FN:324,328,_ZNK7testing8internal13FloatingPointIfE6is_nanEv
FN:336,342,_ZNK7testing8internal13FloatingPointIdE12AlmostEqualsERKS2_
FN:336,342,_ZNK7testing8internal13FloatingPointIfE12AlmostEqualsERKS2_
FN:360,368,_ZN7testing8internal13FloatingPointIdE24SignAndMagnitudeToBiasedEm
FN:360,368,_ZN7testing8internal13FloatingPointIfE24SignAndMagnitudeToBiasedEj
FN:372,376,_ZN7testing8internal13FloatingPointIdE38DistanceBetweenSignAndMagnitudeNumbersEmm
FN:372,376,_ZN7testing8internal13FloatingPointIfE38DistanceBetweenSignAndMagnitudeNumbersEjj
FN:410,416,_ZN7testing8internal9GetTypeIdINS0_12_GLOBAL__N_111FailureTestEEEPKvv
FN:410,416,_ZN7testing8internal9GetTypeIdINS_4TestEEEPKvv
FN:429,429,_ZN7testing8internal15TestFactoryBaseD0Ev
FN:429,429,_ZN7testing8internal15TestFactoryBaseD2Ev
FN:436,436,_ZN7testing8internal15TestFactoryBaseC2Ev
FN:448,448,_ZN7testing8internal15TestFactoryImplI26TreeTest_FullCoverage_TestE10CreateTestEv
FN:448,448,_ZN7testing8internal15TestFactoryImplI27QueueTest_FullCoverage_TestE10CreateTestEv
FN:448,448,_ZN7testing8internal15TestFactoryImplI27StackTest_FullCoverage_TestE10CreateTestEv
FN:448,448,_ZN7testing8internal15TestFactoryImplI31HashTableTest_FullCoverage_TestE10CreateTestEv
FN:448,448,_ZN7testing8internal15TestFactoryImplI32DoublyListTest_FullCoverage_TestE10CreateTestEv
FN:448,448,_ZN7testing8internal15TestFactoryImplI32SinglyListTest_FullCoverage_TestE10CreateTestEv
FN:448,448,_ZN7testing8internal15TestFactoryImplI34DynamicArrayTest_FullCoverage_TestE10CreateTestEv
FN:469,470,_ZN7testing8internal12CodeLocationC2ENSt7__cxx1112basic_stringIcSt11char_traitsIcESaIcEEEi
FN:482,485,_ZN7testing8internal19GetNotDefaultOrNullEPFvvES2_
FN:497,516,_ZN7testing8internal16SuiteApiResolverINS0_12_GLOBAL__N_111FailureTestEE19GetSetUpCaseOrSuiteEPKci
FN:497,516,_ZN7testing8internal16SuiteApiResolverINS_4TestEE19GetSetUpCaseOrSuiteEPKci
FN:518,537,_ZN7testing8internal16SuiteApiResolverINS0_12_GLOBAL__N_111FailureTestEE22GetTearDownCaseOrSuiteEPKci
FN:518,537,_ZN7testing8internal16SuiteApiResolverINS_4TestEE22GetTearDownCaseOrSuiteEPKci
FN:627,635,_ZN7testing8internal9SkipCommaEPKc
FN:639,642,_ZN7testing8internal19GetPrefixUntilCommaB5cxx11EPKc
FN:815,815,_ZN7testing8internal11AlwaysFalseEv
FN:829,829,_ZN7testing8internal14TrueWithStringC2Ev
FN:832,832,_ZNK7testing8internal14TrueWithStringcvbEv
FN:845,845,_ZN7testing8internal6RandomC2Ej
FN:847,847,_ZN7testing8internal6Random6ReseedEj
FNDA:0,_ZN7testing8internal13FloatingPointIdEC2Ed
FNDA:0,_ZN7testing8internal13FloatingPointIfEC2Ef
FNDA:0,_ZNK7testing8internal13FloatingPointIdE13exponent_bitsEv
FNDA:0,_ZNK7testing8internal13FloatingPointIfE13exponent_bitsEv
FNDA:0,_ZNK7testing8internal13FloatingPointIdE13fraction_bitsEv
FNDA:0,_ZNK7testing8internal13FloatingPointIfE13fraction_bitsEv
FNDA:0,_ZNK7testing8internal13FloatingPointIdE6is_nanEv
FNDA:0,_ZNK7testing8internal13FloatingPointIfE6is_nanEv
FNDA:0,_ZNK7testing8internal13FloatingPointIdE12AlmostEqualsERKS2_
FNDA:0,_ZNK7testing8internal13FloatingPointIfE12AlmostEqualsERKS2_
FNDA:0,_ZN7testing8internal13FloatingPointIdE24SignAndMagnitudeToBiasedEm
FNDA:0,_ZN7testing8internal13FloatingPointIfE24SignAndMagnitudeToBiasedEj
FNDA:0,_ZN7testing8internal13FloatingPointIdE38DistanceBetweenSignAndMagnitudeNumbersEmm
FNDA:0,_ZN7testing8internal13FloatingPointIfE38DistanceBetweenSignAndMagnitudeNumbersEjj
FNDA:0,_ZN7testing8internal9GetTypeIdINS0_12_GLOBAL__N_111FailureTestEEEPKvv
FNDA:8,_ZN7testing8internal9GetTypeIdINS_4TestEEEPKvv
FNDA:0,_ZN7testing8internal15TestFactoryBaseD0Ev
FNDA:7,_ZN7testing8internal15TestFactoryBaseD2Ev
FNDA:7,_ZN7testing8internal15TestFactoryBaseC2Ev
FNDA:1,_ZN7testing8internal15TestFactoryImplI26TreeTest_FullCoverage_TestE10CreateTestEv
FNDA:1,_ZN7testing8internal15TestFactoryImplI27QueueTest_FullCoverage_TestE10CreateTestEv
FNDA:1,_ZN7testing8internal15TestFactoryImplI27StackTest_FullCoverage_TestE10CreateTestEv
FNDA:1,_ZN7testing8internal15TestFactoryImplI31HashTableTest_FullCoverage_TestE10CreateTestEv
FNDA:1,_ZN7testing8internal15TestFactoryImplI32DoublyListTest_FullCoverage_TestE10CreateTestEv
FNDA:1,_ZN7testing8internal15TestFactoryImplI32SinglyListTest_FullCoverage_TestE10CreateTestEv
FNDA:1,_ZN7testing8internal15TestFactoryImplI34DynamicArrayTest_FullCoverage_TestE10CreateTestEv
FNDA:7,_ZN7testing8internal12CodeLocationC2ENSt7__cxx1112basic_stringIcSt11char_traitsIcESaIcEEEi
FNDA:28,_ZN7testing8internal19GetNotDefaultOrNullEPFvvES2_
FNDA:0,_ZN7testing8internal16SuiteApiResolverINS0_12_GLOBAL__N_111FailureTestEE19GetSetUpCaseOrSuiteEPKci
FNDA:7,_ZN7testing8internal16SuiteApiResolverINS_4TestEE19GetSetUpCaseOrSuiteEPKci
FNDA:0,_ZN7testing8internal16SuiteApiResolverINS0_12_GLOBAL__N_111FailureTestEE22GetTearDownCaseOrSuiteEPKci
FNDA:7,_ZN7testing8internal16SuiteApiResolverINS_4TestEE22GetTearDownCaseOrSuiteEPKci
FNDA:0,_ZN7testing8internal9SkipCommaEPKc
FNDA:0,_ZN7testing8internal19GetPrefixUntilCommaB5cxx11EPKc
FNDA:0,_ZN7testing8internal11AlwaysFalseEv
FNDA:2,_ZN7testing8internal14TrueWithStringC2Ev
FNDA:2,_ZNK7testing8internal14TrueWithStringcvbEv
FNDA:1,_ZN7testing8internal6RandomC2Ej
FNDA:0,_ZN7testing8internal6Random6ReseedEj
FNF:39
FNH:17
DA:293,0
DA:315,0
DA:318,0
DA:324,0
DA:327,0
DA:336,0
DA:339,0
DA:341,0
DA:360,0
DA:361,0
DA:363,0
DA:366,0
DA:372,0
DA:373,0
DA:374,0
DA:375,0
DA:410,8
DA:415,8
DA:429,7
DA:436,7
DA:448,7
DA:469,7
DA:470,7
DA:482,28
DA:484,28
DA:497,7
DA:501,7
DA:503,7
DA:505,7
DA:508,0
DA:510,7
DA:518,7
DA:522,7
DA:524,7
DA:526,7
DA:529,0
DA:531,7
DA:627,0
DA:628,0
DA:629,0
DA:630,0
DA:632,0
DA:634,0
DA:639,0
DA:640,0
DA:641,0
DA:815,0
DA:829,2
DA:832,2
DA:845,1
DA:847,0
LF:51
LH:22
end_of_record
TN:
SF:/home/savvich/lab3/build/_deps/googletest-src/googletest/include/gtest/internal/gtest-param-util.h
FN:693,693,_ZN7testing8internal30ParameterizedTestSuiteRegistryC2Ev
FN:694,698,_ZN7testing8internal30ParameterizedTestSuiteRegistryD2Ev
FN:734,738,_ZN7testing8internal30ParameterizedTestSuiteRegistry13RegisterTestsEv
FN:780,781,_ZN7testing8internal34TypeParameterizedTestSuiteRegistry30TypeParameterizedTestSuiteInfoC2ENS0_12CodeLocationE
FNDA:1,_ZN7testing8internal30ParameterizedTestSuiteRegistryC2Ev
FNDA:1,_ZN7testing8internal30ParameterizedTestSuiteRegistryD2Ev
FNDA:1,_ZN7testing8internal30ParameterizedTestSuiteRegistry13RegisterTestsEv
FNDA:0,_ZN7testing8internal34TypeParameterizedTestSuiteRegistry30TypeParameterizedTestSuiteInfoC2ENS0_12CodeLocationE
FNF:4
FNH:3
DA:693,1
DA:694,1
DA:695,1
DA:696,0
DA:698,1
DA:734,1
DA:735,1
DA:736,0
DA:738,1
DA:780,0
DA:781,0
LF:11
LH:7
end_of_record
TN:
SF:/home/savvich/lab3/build/_deps/googletest-src/googletest/include/gtest/internal/gtest-port.h
FN:1037,1037,_ZN7testing8internal8GTestLog9GetStreamEv
FN:1053,1053,_ZN7testing8internal11LogToStderrEv
FN:1054,1054,_ZN7testing8internal12FlushInfoLogEv
FN:1135,1137,_ZN7testing8internal13ImplicitCast_IPKvEET_S4_
FN:1145,1152,_ZN7testing8internal27CheckedDowncastToActualTypeINS0_11ThreadLocalIPNS_31TestPartResultReporterInterfaceEE11ValueHolderENS0_26ThreadLocalValueHolderBaseEEEPT_PT0_
FN:1145,1152,_ZN7testing8internal27CheckedDowncastToActualTypeINS0_11ThreadLocalISt6vectorINS0_9TraceInfoESaIS4_EEE11ValueHolderENS0_26ThreadLocalValueHolderBaseEEEPT_PT0_
FN:1643,1647,_ZN7testing8internal9MutexBase4lockEv
FN:1650,1657,_ZN7testing8internal9MutexBase6unlockEv
FN:1700,1703,_ZN7testing8internal5MutexC2Ev
FN:1704,1704,_ZN7testing8internal5MutexD2Ev
FN:1718,1718,_ZN7testing8internal14GTestMutexLockC2ERNS0_9MutexBaseE
FN:1719,1719,_ZN7testing8internal14GTestMutexLockD2Ev
FN:1738,1738,_ZN7testing8internal26ThreadLocalValueHolderBaseD0Ev
FN:1738,1738,_ZN7testing8internal26ThreadLocalValueHolderBaseD2Ev
FN:1743,1745,DeleteThreadLocalValue
FN:1751,1752,_ZN7testing8internal11ThreadLocalISt6vectorINS0_9TraceInfoESaIS3_EEEC2Ev
FN:1753,1755,_ZN7testing8internal11ThreadLocalIPNS_31TestPartResultReporterInterfaceEEC2ERKS3_
FN:1757,1764,_ZN7testing8internal11ThreadLocalIPNS_31TestPartResultReporterInterfaceEED2Ev
FN:1757,1764,_ZN7testing8internal11ThreadLocalISt6vectorINS0_9TraceInfoESaIS3_EEED2Ev
FN:1766,1766,_ZN7testing8internal11ThreadLocalIPNS_31TestPartResultReporterInterfaceEE7pointerEv
FN:1766,1766,_ZN7testing8internal11ThreadLocalISt6vectorINS0_9TraceInfoESaIS3_EEE7pointerEv
FN:1767,1767,_ZNK7testing8internal11ThreadLocalIPNS_31TestPartResultReporterInterfaceEE7pointerEv
FN:1768,1768,_ZNK7testing8internal11ThreadLocalIPNS_31TestPartResultReporterInterfaceEE3getEv
FN:1769,1769,_ZN7testing8internal11ThreadLocalIPNS_31TestPartResultReporterInterfaceEE3setERKS3_
FN:1775,1775,_ZN7testing8internal11ThreadLocalISt6vectorINS0_9TraceInfoESaIS3_EEE11ValueHolderC2Ev
FN:1776,1776,_ZN7testing8internal11ThreadLocalIPNS_31TestPartResultReporterInterfaceEE11ValueHolderC2ERKS3_
FN:1778,1778,_ZN7testing8internal11ThreadLocalIPNS_31TestPartResultReporterInterfaceEE11ValueHolder7pointerEv
FN:1778,1778,_ZN7testing8internal11ThreadLocalISt6vectorINS0_9TraceInfoESaIS3_EEE11ValueHolder7pointerEv
FN:1786,1793,_ZN7testing8internal11ThreadLocalIPNS_31TestPartResultReporterInterfaceEE9CreateKeyEv
FN:1786,1793,_ZN7testing8internal11ThreadLocalISt6vectorINS0_9TraceInfoESaIS3_EEE9CreateKeyEv
FN:1795,1806,_ZNK7testing8internal11ThreadLocalIPNS_31TestPartResultReporterInterfaceEE16GetOrCreateValueEv
FN:1795,1806,_ZNK7testing8internal11ThreadLocalISt6vectorINS0_9TraceInfoESaIS3_EEE16GetOrCreateValueEv
FN:1810,1810,_ZN7testing8internal11ThreadLocalIPNS_31TestPartResultReporterInterfaceEE18ValueHolderFactoryC2Ev
FN:1810,1810,_ZN7testing8internal11ThreadLocalISt6vectorINS0_9TraceInfoESaIS3_EEE18ValueHolderFactoryC2Ev
FN:1811,1811,_ZN7testing8internal11ThreadLocalIPNS_31TestPartResultReporterInterfaceEE18ValueHolderFactoryD0Ev
FN:1811,1811,_ZN7testing8internal11ThreadLocalIPNS_31TestPartResultReporterInterfaceEE18ValueHolderFactoryD2Ev
FN:1811,1811,_ZN7testing8internal11ThreadLocalISt6vectorINS0_9TraceInfoESaIS3_EEE18ValueHolderFactoryD0Ev
FN:1811,1811,_ZN7testing8internal11ThreadLocalISt6vectorINS0_9TraceInfoESaIS3_EEE18ValueHolderFactoryD2Ev
FN:1821,1821,_ZN7testing8internal11ThreadLocalISt6vectorINS0_9TraceInfoESaIS3_EEE25DefaultValueHolderFactoryC2Ev
FN:1822,1822,_ZNK7testing8internal11ThreadLocalISt6vectorINS0_9TraceInfoESaIS3_EEE25DefaultValueHolderFactory13MakeNewHolderEv
FN:1832,1832,_ZN7testing8internal11ThreadLocalIPNS_31TestPartResultReporterInterfaceEE26InstanceValueHolderFactoryC2ERKS3_
FN:1833,1835,_ZNK7testing8internal11ThreadLocalIPNS_31TestPartResultReporterInterfaceEE26InstanceValueHolderFactory13MakeNewHolderEv
FN:1928,1930,_ZN7testing8internal7IsDigitEc
FN:1934,1936,_ZN7testing8internal7IsSpaceEc
FN:1940,1942,_ZN7testing8internal8IsXDigitEc
FN:1948,1951,_ZN7testing8internal8IsXDigitEDs
FN:1952,1955,_ZN7testing8internal8IsXDigitEDi
FN:1956,1959,_ZN7testing8internal8IsXDigitEw
FN:1964,1966,_ZN7testing8internal7ToUpperEc
FN:1968,1972,_ZN7testing8internal19StripTrailingSpacesENSt7__cxx1112basic_stringIcSt11char_traitsIcESaIcEEE
FN:2020,2020,_ZN7testing8internal5posix6FileNoEP8_IO_FILE
FN:2022,2022,_ZN7testing8internal5posix4StatEPKcP4stat
FN:2029,2029,_ZN7testing8internal5posix5IsDirERK4stat
FN:2058,2058,_ZN7testing8internal5posix8DoIsATTYEi
FN:2059,2061,_ZN7testing8internal5posix10StrCaseCmpEPKcS3_
FN:2065,2074,_ZN7testing8internal5posix6IsATTYEi
FN:2090,2100,_ZN7testing8internal5posix5FOpenEPKcS3_
FN:2105,2105,_ZN7testing8internal5posix6FDOpenEiPKc
FN:2107,2107,_ZN7testing8internal5posix6FCloseEP8_IO_FILE
FN:2109,2111,_ZN7testing8internal5posix4ReadEiPvj
FN:2112,2114,_ZN7testing8internal5posix5WriteEiPKvj
FN:2115,2115,_ZN7testing8internal5posix5CloseEi
FN:2120,2120,_ZN7testing8internal5posix8StrErrorEi
FN:2123,2138,_ZN7testing8internal5posix6GetEnvEPKc
FN:2148,2148,_ZN7testing8internal5posix5AbortEv
FNDA:0,_ZN7testing8internal8GTestLog9GetStreamEv
FNDA:0,_ZN7testing8internal11LogToStderrEv
FNDA:0,_ZN7testing8internal12FlushInfoLogEv
FNDA:0,_ZN7testing8internal13ImplicitCast_IPKvEET_S4_
FNDA:1,_ZN7testing8internal27CheckedDowncastToActualTypeINS0_11ThreadLocalIPNS_31TestPartResultReporterInterfaceEE11ValueHolderENS0_26ThreadLocalValueHolderBaseEEEPT_PT0_
FNDA:1,_ZN7testing8internal27CheckedDowncastToActualTypeINS0_11ThreadLocalISt6vectorINS0_9TraceInfoESaIS4_EEE11ValueHolderENS0_26ThreadLocalValueHolderBaseEEEPT_PT0_
FNDA:32,_ZN7testing8internal9MutexBase4lockEv
FNDA:32,_ZN7testing8internal9MutexBase6unlockEv
FNDA:17,_ZN7testing8internal5MutexC2Ev
FNDA:17,_ZN7testing8internal5MutexD2Ev
FNDA:32,_ZN7testing8internal14GTestMutexLockC2ERNS0_9MutexBaseE
FNDA:32,_ZN7testing8internal14GTestMutexLockD2Ev
FNDA:0,_ZN7testing8internal26ThreadLocalValueHolderBaseD0Ev
FNDA:2,_ZN7testing8internal26ThreadLocalValueHolderBaseD2Ev
FNDA:2,DeleteThreadLocalValue
FNDA:1,_ZN7testing8internal11ThreadLocalISt6vectorINS0_9TraceInfoESaIS3_EEEC2Ev
FNDA:1,_ZN7testing8internal11ThreadLocalIPNS_31TestPartResultReporterInterfaceEEC2ERKS3_
FNDA:1,_ZN7testing8internal11ThreadLocalIPNS_31TestPartResultReporterInterfaceEED2Ev
FNDA:1,_ZN7testing8internal11ThreadLocalISt6vectorINS0_9TraceInfoESaIS3_EEED2Ev
FNDA:0,_ZN7testing8internal11ThreadLocalIPNS_31TestPartResultReporterInterfaceEE7pointerEv
FNDA:2,_ZN7testing8internal11ThreadLocalISt6vectorINS0_9TraceInfoESaIS3_EEE7pointerEv
FNDA:2,_ZNK7testing8internal11ThreadLocalIPNS_31TestPartResultReporterInterfaceEE7pointerEv
FNDA:2,_ZNK7testing8internal11ThreadLocalIPNS_31TestPartResultReporterInterfaceEE3getEv
FNDA:0,_ZN7testing8internal11ThreadLocalIPNS_31TestPartResultReporterInterfaceEE3setERKS3_
FNDA:1,_ZN7testing8internal11ThreadLocalISt6vectorINS0_9TraceInfoESaIS3_EEE11ValueHolderC2Ev
FNDA:1,_ZN7testing8internal11ThreadLocalIPNS_31TestPartResultReporterInterfaceEE11ValueHolderC2ERKS3_
FNDA:2,_ZN7testing8internal11ThreadLocalIPNS_31TestPartResultReporterInterfaceEE11ValueHolder7pointerEv
FNDA:2,_ZN7testing8internal11ThreadLocalISt6vectorINS0_9TraceInfoESaIS3_EEE11ValueHolder7pointerEv
FNDA:1,_ZN7testing8internal11ThreadLocalIPNS_31TestPartResultReporterInterfaceEE9CreateKeyEv
FNDA:1,_ZN7testing8internal11ThreadLocalISt6vectorINS0_9TraceInfoESaIS3_EEE9CreateKeyEv
FNDA:2,_ZNK7testing8internal11ThreadLocalIPNS_31TestPartResultReporterInterfaceEE16GetOrCreateValueEv
FNDA:2,_ZNK7testing8internal11ThreadLocalISt6vectorINS0_9TraceInfoESaIS3_EEE16GetOrCreateValueEv
FNDA:1,_ZN7testing8internal11ThreadLocalIPNS_31TestPartResultReporterInterfaceEE18ValueHolderFactoryC2Ev
FNDA:1,_ZN7testing8internal11ThreadLocalISt6vectorINS0_9TraceInfoESaIS3_EEE18ValueHolderFactoryC2Ev
FNDA:0,_ZN7testing8internal11ThreadLocalIPNS_31TestPartResultReporterInterfaceEE18ValueHolderFactoryD0Ev
FNDA:1,_ZN7testing8internal11ThreadLocalIPNS_31TestPartResultReporterInterfaceEE18ValueHolderFactoryD2Ev
FNDA:0,_ZN7testing8internal11ThreadLocalISt6vectorINS0_9TraceInfoESaIS3_EEE18ValueHolderFactoryD0Ev
FNDA:1,_ZN7testing8internal11ThreadLocalISt6vectorINS0_9TraceInfoESaIS3_EEE18ValueHolderFactoryD2Ev
FNDA:1,_ZN7testing8internal11ThreadLocalISt6vectorINS0_9TraceInfoESaIS3_EEE25DefaultValueHolderFactoryC2Ev
FNDA:1,_ZNK7testing8internal11ThreadLocalISt6vectorINS0_9TraceInfoESaIS3_EEE25DefaultValueHolderFactory13MakeNewHolderEv
FNDA:1,_ZN7testing8internal11ThreadLocalIPNS_31TestPartResultReporterInterfaceEE26InstanceValueHolderFactoryC2ERKS3_
FNDA:1,_ZNK7testing8internal11ThreadLocalIPNS_31TestPartResultReporterInterfaceEE26InstanceValueHolderFactory13MakeNewHolderEv
FNDA:0,_ZN7testing8internal7IsDigitEc
FNDA:0,_ZN7testing8internal7IsSpaceEc
FNDA:0,_ZN7testing8internal8IsXDigitEc
FNDA:0,_ZN7testing8internal8IsXDigitEDs
FNDA:0,_ZN7testing8internal8IsXDigitEDi
FNDA:0,_ZN7testing8internal8IsXDigitEw
FNDA:472,_ZN7testing8internal7ToUpperEc
FNDA:0,_ZN7testing8internal19StripTrailingSpacesENSt7__cxx1112basic_stringIcSt11char_traitsIcESaIcEEE
FNDA:1,_ZN7testing8internal5posix6FileNoEP8_IO_FILE
FNDA:0,_ZN7testing8internal5posix4StatEPKcP4stat
FNDA:0,_ZN7testing8internal5posix5IsDirERK4stat
FNDA:1,_ZN7testing8internal5posix8DoIsATTYEi
FNDA:2,_ZN7testing8internal5posix10StrCaseCmpEPKcS3_
FNDA:1,_ZN7testing8internal5posix6IsATTYEi
FNDA:0,_ZN7testing8internal5posix5FOpenEPKcS3_
FNDA:0,_ZN7testing8internal5posix6FDOpenEiPKc
FNDA:0,_ZN7testing8internal5posix6FCloseEP8_IO_FILE
FNDA:0,_ZN7testing8internal5posix4ReadEiPvj
FNDA:0,_ZN7testing8internal5posix5WriteEiPKvj
FNDA:0,_ZN7testing8internal5posix5CloseEi
FNDA:0,_ZN7testing8internal5posix8StrErrorEi
FNDA:33,_ZN7testing8internal5posix6GetEnvEPKc
FNDA:0,_ZN7testing8internal5posix5AbortEv
FNF:65
FNH:39
DA:1037,0
DA:1053,0
DA:1054,0
DA:1135,0
DA:1136,0
DA:1145,2
DA:1149,2
DA:1151,2
DA:1643,32
DA:1644,32
DA:1645,32
DA:1646,32
DA:1647,32
DA:1650,32
DA:1655,32
DA:1656,32
DA:1657,32
DA:1700,17
DA:1701,17
DA:1702,17
DA:1703,17
DA:1704,17
DA:1718,32
DA:1719,32
DA:1738,2
DA:1743,2
DA:1744,2
DA:1745,2
DA:1751,1
DA:1752,1
DA:1753,1
DA:1754,1
DA:1755,1
DA:1757,2
DA:1759,2
DA:1763,2
DA:1764,2
DA:1766,2
DA:1767,2
DA:1768,2
DA:1769,0
DA:1775,1
DA:1776,1
DA:1778,4
DA:1786,2
DA:1790,2
DA:1792,2
DA:1795,4
DA:1797,4
DA:1798,4
DA:1799,2
DA:1802,2
DA:1803,2
DA:1804,2
DA:1805,2
DA:1810,2
DA:1811,2
DA:1821,1
DA:1822,1
DA:1832,1
DA:1833,1
DA:1834,1
DA:1928,0
DA:1929,0
DA:1934,0
DA:1935,0
DA:1940,0
DA:1941,0
DA:1948,0
DA:1949,0
DA:1950,0
DA:1952,0
DA:1953,0
DA:1954,0
DA:1956,0
DA:1957,0
DA:1958,0
DA:1964,472
DA:1965,472
DA:1968,0
DA:1969,0
DA:1970,0
DA:1971,0
DA:2020,1
DA:2022,0
DA:2029,0
DA:2058,1
DA:2059,2
DA:2060,2
DA:2065,1
DA:2069,1
DA:2070,1
DA:2071,1
DA:2073,1
DA:2090,0
DA:2098,0
DA:2105,0
DA:2107,0
DA:2109,0
DA:2110,0
DA:2112,0
DA:2113,0
DA:2115,0
DA:2120,0
DA:2123,33
DA:2136,33
DA:2148,0
LF:107
LH:69
end_of_record
TN:
SF:/home/savvich/lab3/build/_deps/googletest-src/googletest/include/gtest/internal/gtest-type-util.h
FN:61,87,_ZN7testing8internal31CanonicalizeForStdLibVersioningENSt7__cxx1112basic_stringIcSt11char_traitsIcESaIcEEE
FN:91,121,_ZN7testing8internal11GetTypeNameB5cxx11ERKSt9type_info
FNDA:0,_ZN7testing8internal31CanonicalizeForStdLibVersioningENSt7__cxx1112basic_stringIcSt11char_traitsIcESaIcEEE
FNDA:0,_ZN7testing8internal11GetTypeNameB5cxx11ERKSt9type_info
FNF:2
FNH:0
DA:61,0
DA:63,0
DA:64,0
DA:65,0
DA:67,0
DA:74,0
DA:75,0
DA:78,0
DA:79,0
DA:80,0
DA:83,0
DA:84,0
DA:86,0
DA:91,0
DA:92,0
DA:94,0
DA:100,0
DA:101,0
DA:102,0
DA:103,0
DA:121,0
LF:21
LH:0
end_of_record
TN:
SF:/home/savvich/lab3/build/_deps/googletest-src/googletest/src/gtest-assertion-result.cc
FN:45,49,_ZN7testing15AssertionResultC2ERKS0_
FN:52,56,_ZN7testing15AssertionResult4swapERS0_
FN:59,63,_ZNK7testing15AssertionResultntEv
FN:66,66,_ZN7testing16AssertionSuccessEv
FN:69,69,_ZN7testing16AssertionFailureEv
FN:73,75,_ZN7testing16AssertionFailureERKNS_7MessageE
FNDA:2,_ZN7testing15AssertionResultC2ERKS0_
FNDA:0,_ZN7testing15AssertionResult4swapERS0_
FNDA:0,_ZNK7testing15AssertionResultntEv
FNDA:23,_ZN7testing16AssertionSuccessEv
FNDA:2,_ZN7testing16AssertionFailureEv
FNDA:0,_ZN7testing16AssertionFailureERKNS_7MessageE
FNF:6
FNH:3
DA:45,2
DA:46,2
DA:47,4
DA:48,2
DA:49,2
DA:52,0
DA:54,0
DA:55,0
DA:56,0
DA:59,0
DA:60,0
DA:61,0
DA:62,0
DA:63,0
DA:66,23
DA:69,2
DA:73,0
DA:74,0
LF:18
LH:7
end_of_record
TN:
SF:/home/savvich/lab3/build/_deps/googletest-src/googletest/src/gtest-death-test.cc
FN:1064,1064,_ZN7testing8internal16ForkingDeathTest13set_child_pidEi
FN:1072,1074,_ZN7testing8internal16ForkingDeathTestC2EPKcNS_7MatcherIRKNSt7__cxx1112basic_stringIcSt11char_traitsIcESaIcEEEEE
FN:1079,1088,_ZN7testing8internal16ForkingDeathTest4WaitEv
FN:1094,1095,_ZN7testing8internal15NoExecDeathTestC2EPKcNS_7MatcherIRKNSt7__cxx1112basic_stringIcSt11char_traitsIcESaIcEEEEE
FN:1101,1142,_ZN7testing8internal15NoExecDeathTest10AssumeRoleEv
FN:1149,1153,_ZN7testing8internal13ExecDeathTestC2EPKcNS_7MatcherIRKNSt7__cxx1112basic_stringIcSt11char_traitsIcESaIcEEEEES3_i
FN:1157,1165,_ZN7testing8internal13ExecDeathTest32GetArgvsForDeathTestChildProcessB5cxx11Ev
FN:1185,1210,_ZN7testing8internalL22ExecDeathTestChildMainEPv
FN:1233,1236,_ZN7testing8internalL21StackLowerThanAddressEPKvPb
FN:1241,1246,_ZN7testing8internalL14StackGrowsDownEv
FN:1256,1348,_ZN7testing8internalL23ExecDeathTestSpawnChildEPKPci
FN:1354,1398,_ZN7testing8internal13ExecDeathTest10AssumeRoleEv
FN:1407,1465,_ZN7testing8internal23DefaultDeathTestFactory6CreateEPKcNS_7MatcherIRKNSt7__cxx1112basic_stringIcSt11char_traitsIcESaIcEEEEES3_iPPNS0_9DeathTestE
FN:1533,1581,_ZN7testing8internal29ParseInternalRunDeathTestFlagEv
FN:155,169,_ZN7testing8internal16InDeathTestChildEv
FN:174,174,_ZN7testing14ExitedWithCodeC2Ei
FN:177,187,_ZNK7testing14ExitedWithCodeclEi
FN:191,191,_ZN7testing14KilledBySignalC2Ei
FN:194,204,_ZNK7testing14KilledBySignalclEi
FN:213,235,_ZN7testing8internalL11ExitSummaryEi
FN:239,241,_ZN7testing8internal20ExitedUnsuccessfullyEi
FN:248,263,_ZN7testing8internalL22DeathTestThreadWarningEm
FN:293,310,_ZN7testing8internalL14DeathTestAbortERKNSt7__cxx1112basic_stringIcSt11char_traitsIcESaIcEEE
FN:346,348,_ZN7testing8internal23GetLastErrnoDescriptionB5cxx11Ev
FN:354,373,_ZN7testing8internalL21FailFromInternalErrorEi
FN:377,384,_ZN7testing8internal9DeathTestC2Ev
FN:388,393,_ZN7testing8internal9DeathTest6CreateEPKcNS_7MatcherIRKNSt7__cxx1112basic_stringIcSt11char_traitsIcESaIcEEEEES3_iPPS1_
FN:395,397,_ZN7testing8internal9DeathTest11LastMessageEv
FN:399,401,_ZN7testing8internal9DeathTest27set_last_death_test_messageERKNSt7__cxx1112basic_stringIcSt11char_traitsIcESaIcEEE
FN:408,415,_ZN7testing8internal13DeathTestImplC2EPKcNS_7MatcherIRKNSt7__cxx1112basic_stringIcSt11char_traitsIcESaIcEEEEE
FN:418,418,_ZN7testing8internal13DeathTestImplD0Ev
FN:418,418,_ZN7testing8internal13DeathTestImplD2Ev
FN:423,423,_ZNK7testing8internal13DeathTestImpl9statementEv
FN:424,424,_ZNK7testing8internal13DeathTestImpl7spawnedEv
FN:425,425,_ZN7testing8internal13DeathTestImpl11set_spawnedEb
FN:426,426,_ZNK7testing8internal13DeathTestImpl6statusEv
FN:427,427,_ZN7testing8internal13DeathTestImpl10set_statusEi
FN:428,428,_ZNK7testing8internal13DeathTestImpl7outcomeEv
FN:429,429,_ZN7testing8internal13DeathTestImpl11set_outcomeENS0_16DeathTestOutcomeE
FN:430,430,_ZNK7testing8internal13DeathTestImpl7read_fdEv
FN:431,431,_ZN7testing8internal13DeathTestImpl11set_read_fdEi
FN:432,432,_ZNK7testing8internal13DeathTestImpl8write_fdEv
FN:433,433,_ZN7testing8internal13DeathTestImpl12set_write_fdEi
FN:470,509,_ZN7testing8internal13DeathTestImpl26ReadAndInterpretStatusByteEv
FN:511,511,_ZN7testing8internal13DeathTestImpl12GetErrorLogsB5cxx11Ev
FN:517,535,_ZN7testing8internal13DeathTestImpl5AbortENS0_9DeathTest11AbortReasonE
FN:540,553,_ZN7testing8internalL21FormatDeathTestOutputERKNSt7__cxx1112basic_stringIcSt11char_traitsIcESaIcEEE
FN:576,628,_ZN7testing8internal13DeathTestImpl6PassedEb
FN:633,641,_ZN7testing8internalL18CreateArgvFromArgsERSt6vectorINSt7__cxx1112basic_stringIcSt11char_traitsIcESaIcEEESaIS7_EE
FNDA:0,_ZN7testing8internal16ForkingDeathTest13set_child_pidEi
FNDA:0,_ZN7testing8internal16ForkingDeathTestC2EPKcNS_7MatcherIRKNSt7__cxx1112basic_stringIcSt11char_traitsIcESaIcEEEEE
FNDA:0,_ZN7testing8internal16ForkingDeathTest4WaitEv
FNDA:0,_ZN7testing8internal15NoExecDeathTestC2EPKcNS_7MatcherIRKNSt7__cxx1112basic_stringIcSt11char_traitsIcESaIcEEEEE
FNDA:0,_ZN7testing8internal15NoExecDeathTest10AssumeRoleEv
FNDA:0,_ZN7testing8internal13ExecDeathTestC2EPKcNS_7MatcherIRKNSt7__cxx1112basic_stringIcSt11char_traitsIcESaIcEEEEES3_i
FNDA:0,_ZN7testing8internal13ExecDeathTest32GetArgvsForDeathTestChildProcessB5cxx11Ev
FNDA:0,_ZN7testing8internalL22ExecDeathTestChildMainEPv
FNDA:0,_ZN7testing8internalL21StackLowerThanAddressEPKvPb
FNDA:0,_ZN7testing8internalL14StackGrowsDownEv
FNDA:0,_ZN7testing8internalL23ExecDeathTestSpawnChildEPKPci
FNDA:0,_ZN7testing8internal13ExecDeathTest10AssumeRoleEv
FNDA:0,_ZN7testing8internal23DefaultDeathTestFactory6CreateEPKcNS_7MatcherIRKNSt7__cxx1112basic_stringIcSt11char_traitsIcESaIcEEEEES3_iPPNS0_9DeathTestE
FNDA:1,_ZN7testing8internal29ParseInternalRunDeathTestFlagEv
FNDA:0,_ZN7testing8internal16InDeathTestChildEv
FNDA:0,_ZN7testing14ExitedWithCodeC2Ei
FNDA:0,_ZNK7testing14ExitedWithCodeclEi
FNDA:0,_ZN7testing14KilledBySignalC2Ei
FNDA:0,_ZNK7testing14KilledBySignalclEi
FNDA:0,_ZN7testing8internalL11ExitSummaryEi
FNDA:0,_ZN7testing8internal20ExitedUnsuccessfullyEi
FNDA:0,_ZN7testing8internalL22DeathTestThreadWarningEm
FNDA:0,_ZN7testing8internalL14DeathTestAbortERKNSt7__cxx1112basic_stringIcSt11char_traitsIcESaIcEEE
FNDA:0,_ZN7testing8internal23GetLastErrnoDescriptionB5cxx11Ev
FNDA:0,_ZN7testing8internalL21FailFromInternalErrorEi
FNDA:0,_ZN7testing8internal9DeathTestC2Ev
FNDA:0,_ZN7testing8internal9DeathTest6CreateEPKcNS_7MatcherIRKNSt7__cxx1112basic_stringIcSt11char_traitsIcESaIcEEEEES3_iPPS1_
FNDA:0,_ZN7testing8internal9DeathTest11LastMessageEv
FNDA:0,_ZN7testing8internal9DeathTest27set_last_death_test_messageERKNSt7__cxx1112basic_stringIcSt11char_traitsIcESaIcEEE
FNDA:0,_ZN7testing8internal13DeathTestImplC2EPKcNS_7MatcherIRKNSt7__cxx1112basic_stringIcSt11char_traitsIcESaIcEEEEE
FNDA:0,_ZN7testing8internal13DeathTestImplD0Ev
FNDA:0,_ZN7testing8internal13DeathTestImplD2Ev
FNDA:0,_ZNK7testing8internal13DeathTestImpl9statementEv
FNDA:0,_ZNK7testing8internal13DeathTestImpl7spawnedEv
FNDA:0,_ZN7testing8internal13DeathTestImpl11set_spawnedEb
FNDA:0,_ZNK7testing8internal13DeathTestImpl6statusEv
FNDA:0,_ZN7testing8internal13DeathTestImpl10set_statusEi
FNDA:0,_ZNK7testing8internal13DeathTestImpl7outcomeEv
FNDA:0,_ZN7testing8internal13DeathTestImpl11set_outcomeENS0_16DeathTestOutcomeE
FNDA:0,_ZNK7testing8internal13DeathTestImpl7read_fdEv
FNDA:0,_ZN7testing8internal13DeathTestImpl11set_read_fdEi
FNDA:0,_ZNK7testing8internal13DeathTestImpl8write_fdEv
FNDA:0,_ZN7testing8internal13DeathTestImpl12set_write_fdEi
FNDA:0,_ZN7testing8internal13DeathTestImpl26ReadAndInterpretStatusByteEv
FNDA:0,_ZN7testing8internal13DeathTestImpl12GetErrorLogsB5cxx11Ev
FNDA:0,_ZN7testing8internal13DeathTestImpl5AbortENS0_9DeathTest11AbortReasonE
FNDA:0,_ZN7testing8internalL21FormatDeathTestOutputERKNSt7__cxx1112basic_stringIcSt11char_traitsIcESaIcEEE
FNDA:0,_ZN7testing8internal13DeathTestImpl6PassedEb
FNDA:0,_ZN7testing8internalL18CreateArgvFromArgsERSt6vectorINSt7__cxx1112basic_stringIcSt11char_traitsIcESaIcEEESaIS7_EE
FNF:49
FNH:1
DA:155,0
DA:164,0
DA:165,0
DA:167,0
DA:174,0
DA:177,0
DA:184,0
DA:191,0
DA:194,0
DA:203,0
DA:213,0
DA:214,0
DA:222,0
DA:223,0
DA:224,0
DA:225,0
DA:228,0
DA:229,0
DA:234,0
DA:235,0
DA:239,0
DA:240,0
DA:248,0
DA:249,0
DA:250,0
DA:251,0
DA:252,0
DA:253,0
DA:255,0
DA:259,0
DA:260,0
DA:261,0
DA:262,0
DA:263,0
DA:293,0
DA:298,0
DA:299,0
DA:300,0
DA:301,0
DA:302,0
DA:303,0
DA:304,0
DA:306,0
DA:307,0
DA:308,0
DA:346,0
DA:347,0
DA:354,0
DA:355,0
DA:360,0
DA:361,0
DA:362,0
DA:364,0
DA:366,0
DA:367,0
DA:369,0
DA:370,0
DA:371,0
DA:373,0
DA:377,0
DA:378,0
DA:379,0
DA:380,0
DA:384,0
DA:388,0
DA:391,0
DA:392,0
DA:395,0
DA:396,0
DA:399,0
DA:400,0
DA:401,0
DA:408,0
DA:409,0
DA:410,0
DA:411,0
DA:412,0
DA:413,0
DA:414,0
DA:415,0
DA:418,0
DA:423,0
DA:424,0
DA:425,0
DA:426,0
DA:427,0
DA:428,0
DA:429,0
DA:430,0
DA:431,0
DA:432,0
DA:433,0
DA:470,0
DA:479,0
DA:480,0
DA:482,0
DA:483,0
DA:484,0
DA:485,0
DA:486,0
DA:487,0
DA:488,0
DA:489,0
DA:490,0
DA:491,0
DA:492,0
DA:493,0
DA:494,0
DA:495,0
DA:496,0
DA:497,0
DA:498,0
DA:499,0
DA:500,0
DA:501,0
DA:504,0
DA:505,0
DA:507,0
DA:508,0
DA:509,0
DA:511,0
DA:517,0
DA:521,0
DA:525,0
DA:534,0
DA:540,0
DA:541,0
DA:542,0
DA:543,0
DA:544,0
DA:545,0
DA:546,0
DA:547,0
DA:549,0
DA:550,0
DA:551,0
DA:552,0
DA:553,0
DA:576,0
DA:577,0
DA:579,0
DA:581,0
DA:582,0
DA:584,0
DA:585,0
DA:586,0
DA:587,0
DA:588,0
DA:589,0
DA:590,0
DA:591,0
DA:592,0
DA:593,0
DA:594,0
DA:595,0
DA:596,0
DA:597,0
DA:598,0
DA:599,0
DA:600,0
DA:601,0
DA:602,0
DA:603,0
DA:604,0
DA:606,0
DA:607,0
DA:608,0
DA:609,0
DA:610,0
DA:611,0
DA:612,0
DA:614,0
DA:615,0
DA:616,0
DA:617,0
DA:619,0
DA:620,0
DA:622,0
DA:623,0
DA:626,0
DA:627,0
DA:628,0
DA:633,0
DA:634,0
DA:635,0
DA:636,0
DA:637,0
DA:639,0
DA:640,0
DA:641,0
DA:1064,0
DA:1072,0
DA:1073,0
DA:1074,0
DA:1079,0
DA:1080,0
DA:1082,0
DA:1085,0
DA:1086,0
DA:1087,0
DA:1094,0
DA:1095,0
DA:1101,0
DA:1102,0
DA:1103,0
DA:1104,0
DA:1108,0
DA:1110,0
DA:1111,0
DA:1119,0
DA:1121,0
DA:1122,0
DA:1123,0
DA:1124,0
DA:1125,0
DA:1126,0
DA:1130,0
DA:1133,0
DA:1134,0
DA:1135,0
DA:1137,0
DA:1138,0
DA:1139,0
DA:1140,0
DA:1149,0
DA:1151,0
DA:1152,0
DA:1153,0
DA:1157,0
DA:1158,0
DA:1164,0
DA:1185,0
DA:1186,0
DA:1187,0
DA:1193,0
DA:1195,0
DA:1196,0
DA:1197,0
DA:1206,0
DA:1207,0
DA:1208,0
DA:1233,0
DA:1234,0
DA:1235,0
DA:1236,0
DA:1241,0
DA:1242,0
DA:1244,0
DA:1245,0
DA:1256,0
DA:1257,0
DA:1258,0
DA:1297,0
DA:1298,0
DA:1299,0
DA:1300,0
DA:1305,0
DA:1307,0
DA:1308,0
DA:1309,0
DA:1311,0
DA:1313,0
DA:1321,0
DA:1322,0
DA:1323,0
DA:1324,0
DA:1325,0
DA:1329,0
DA:1331,0
DA:1337,0
DA:1338,0
DA:1342,0
DA:1346,0
DA:1347,0
DA:1354,0
DA:1355,0
DA:1357,0
DA:1358,0
DA:1359,0
DA:1361,0
DA:1362,0
DA:1363,0
DA:1367,0
DA:1370,0
DA:1372,0
DA:1373,0
DA:1374,0
DA:1375,0
DA:1376,0
DA:1377,0
DA:1378,0
DA:1379,0
DA:1380,0
DA:1381,0
DA:1382,0
DA:1384,0
DA:1386,0
DA:1389,0
DA:1391,0
DA:1392,0
DA:1393,0
DA:1394,0
DA:1395,0
DA:1396,0
DA:1397,0
DA:1398,0
DA:1407,0
DA:1411,0
DA:1413,0
DA:1415,0
DA:1417,0
DA:1418,0
DA:1419,0
DA:1420,0
DA:1421,0
DA:1422,0
DA:1423,0
DA:1426,0
DA:1427,0
DA:1428,0
DA:1429,0
DA:1449,0
DA:1450,0
DA:1451,0
DA:1452,0
DA:1458,0
DA:1459,0
DA:1461,0
DA:1464,0
DA:1533,1
DA:1534,1
DA:1538,0
DA:1539,0
DA:1540,0
DA:1541,0
DA:1542,0
DA:1571,0
DA:1572,0
DA:1573,0
DA:1574,0
DA:1580,0
DA:1581,0
LF:342
LH:2
end_of_record
TN:
SF:/home/savvich/lab3/build/_deps/googletest-src/googletest/src/gtest-filepath.cc
FN:101,124,_ZN7testing8internal8FilePath13GetCurrentDirEv
FN:130,137,_ZNK7testing8internal8FilePath15RemoveExtensionEPKc
FN:142,153,_ZNK7testing8internal8FilePath21FindLastPathSeparatorEv
FN:155,191,_ZNK7testing8internal8FilePath19CalculateRootLengthEv
FN:199,202,_ZNK7testing8internal8FilePath19RemoveDirectoryNameEv
FN:210,219,_ZNK7testing8internal8FilePath14RemoveFileNameEv
FN:227,238,_ZN7testing8internal8FilePath12MakeFileNameERKS1_S3_iPKc
FN:242,247,_ZN7testing8internal8FilePath11ConcatPathsERKS1_S3_
FN:251,261,_ZNK7testing8internal8FilePath21FileOrDirectoryExistsEv
FN:265,291,_ZNK7testing8internal8FilePath15DirectoryExistsEv
FN:295,299,_ZNK7testing8internal8FilePath15IsRootDirectoryEv
FN:302,302,_ZNK7testing8internal8FilePath14IsAbsolutePathEv
FN:312,321,_ZN7testing8internal8FilePath22GenerateUniqueFileNameERKS1_S3_PKc
FN:326,329,_ZNK7testing8internal8FilePath11IsDirectoryEv
FN:334,345,_ZNK7testing8internal8FilePath28CreateDirectoriesRecursivelyEv
FN:351,372,_ZNK7testing8internal8FilePath12CreateFolderEv
FN:377,380,_ZNK7testing8internal8FilePath27RemoveTrailingPathSeparatorEv
FN:386,409,_ZN7testing8internal8FilePath9NormalizeEv
FN:92,98,_ZN7testing8internalL15IsPathSeparatorEc
FNDA:1,_ZN7testing8internal8FilePath13GetCurrentDirEv
FNDA:0,_ZNK7testing8internal8FilePath15RemoveExtensionEPKc
FNDA:0,_ZNK7testing8internal8FilePath21FindLastPathSeparatorEv
FNDA:0,_ZNK7testing8internal8FilePath19CalculateRootLengthEv
FNDA:0,_ZNK7testing8internal8FilePath19RemoveDirectoryNameEv
FNDA:0,_ZNK7testing8internal8FilePath14RemoveFileNameEv
FNDA:0,_ZN7testing8internal8FilePath12MakeFileNameERKS1_S3_iPKc
FNDA:0,_ZN7testing8internal8FilePath11ConcatPathsERKS1_S3_
FNDA:0,_ZNK7testing8internal8FilePath21FileOrDirectoryExistsEv
FNDA:0,_ZNK7testing8internal8FilePath15DirectoryExistsEv
FNDA:0,_ZNK7testing8internal8FilePath15IsRootDirectoryEv
FNDA:0,_ZNK7testing8internal8FilePath14IsAbsolutePathEv
FNDA:0,_ZN7testing8internal8FilePath22GenerateUniqueFileNameERKS1_S3_PKc
FNDA:0,_ZNK7testing8internal8FilePath11IsDirectoryEv
FNDA:0,_ZNK7testing8internal8FilePath28CreateDirectoriesRecursivelyEv
FNDA:0,_ZNK7testing8internal8FilePath12CreateFolderEv
FNDA:0,_ZNK7testing8internal8FilePath27RemoveTrailingPathSeparatorEv
FNDA:1,_ZN7testing8internal8FilePath9NormalizeEv
FNDA:24,_ZN7testing8internalL15IsPathSeparatorEc
FNF:19
FNH:3
DA:92,24
DA:96,24
DA:101,1
DA:114,1
DA:115,1
DA:122,2
DA:130,0
DA:131,0
DA:132,0
DA:134,0
DA:136,0
DA:137,0
DA:142,0
DA:143,0
DA:152,0
DA:155,0
DA:156,0
DA:157,0
DA:158,0
DA:186,0
DA:187,0
DA:190,0
DA:199,0
DA:200,0
DA:201,0
DA:210,0
DA:211,0
DA:212,0
DA:213,0
DA:214,0
DA:216,0
DA:218,0
DA:219,0
DA:227,0
DA:230,0
DA:231,0
DA:232,0
DA:235,0
DA:237,0
DA:238,0
DA:242,0
DA:244,0
DA:245,0
DA:246,0
DA:247,0
DA:251,0
DA:258,0
DA:259,0
DA:265,0
DA:266,0
DA:273,0
DA:285,0
DA:286,0
DA:287,0
DA:290,0
DA:295,0
DA:296,0
DA:297,0
DA:298,0
DA:302,0
DA:312,0
DA:315,0
DA:316,0
DA:318,0
DA:319,0
DA:320,0
DA:321,0
DA:326,0
DA:327,0
DA:328,0
DA:334,0
DA:335,0
DA:336,0
DA:339,0
DA:340,0
DA:343,0
DA:344,0
DA:345,0
DA:351,0
DA:365,0
DA:368,0
DA:369,0
DA:371,0
DA:377,0
DA:378,0
DA:379,0
DA:386,1
DA:387,1
DA:389,1
DA:398,25
DA:399,24
DA:400,24
DA:401,20
DA:402,7
DA:403,4
DA:405,24
DA:408,1
DA:409,1
LF:98
LH:18
end_of_record
TN:
SF:/home/savvich/lab3/build/_deps/googletest-src/googletest/src/gtest-internal-inl.h
FN:1023,1048,_ZN7testing8internal18ParseNaturalNumberIiEEbRKNSt7__cxx1112basic_stringIcSt11char_traitsIcESaIcEEEPT_
FN:1083,1083,_ZN7testing8internal17StreamingListener20AbstractSocketWriterD0Ev
FN:1083,1083,_ZN7testing8internal17StreamingListener20AbstractSocketWriterD2Ev
FN:1089,1089,_ZN7testing8internal17StreamingListener20AbstractSocketWriter15CloseConnectionEv
FN:1092,1092,_ZN7testing8internal17StreamingListener20AbstractSocketWriter6SendLnERKNSt7__cxx1112basic_stringIcSt11char_traitsIcESaIcEEE
FN:1098,1101,_ZN7testing8internal17StreamingListener12SocketWriterC2ERKNSt7__cxx1112basic_stringIcSt11char_traitsIcESaIcEEESA_
FN:1103,1105,_ZN7testing8internal17StreamingListener12SocketWriterD0Ev
FN:1103,1105,_ZN7testing8internal17StreamingListener12SocketWriterD2Ev
FN:1108,1117,_ZN7testing8internal17StreamingListener12SocketWriter4SendERKNSt7__cxx1112basic_stringIcSt11char_traitsIcESaIcEEE
FN:1124,1130,_ZN7testing8internal17StreamingListener12SocketWriter15CloseConnectionEv
FN:114,126,_ZN7testing8internal21GetRandomSeedFromFlagEi
FN:1143,1146,_ZN7testing8internal17StreamingListenerC2ERKNSt7__cxx1112basic_stringIcSt11char_traitsIcESaIcEEES9_
FN:1153,1155,_ZN7testing8internal17StreamingListener18OnTestProgramStartERKNS_8UnitTestE
FN:1157,1164,_ZN7testing8internal17StreamingListener16OnTestProgramEndERKNS_8UnitTestE
FN:1166,1170,_ZN7testing8internal17StreamingListener20OnTestIterationStartERKNS_8UnitTestEi
FN:1172,1177,_ZN7testing8internal17StreamingListener18OnTestIterationEndERKNS_8UnitTestEi
FN:1181,1183,_ZN7testing8internal17StreamingListener16OnTestSuiteStartERKNS_9TestSuiteE
FN:1187,1191,_ZN7testing8internal17StreamingListener14OnTestSuiteEndERKNS_9TestSuiteE
FN:1193,1195,_ZN7testing8internal17StreamingListener11OnTestStartERKNS_8TestInfoE
FN:1197,1201,_ZN7testing8internal17StreamingListener9OnTestEndERKNS_8TestInfoE
FN:1203,1209,_ZN7testing8internal17StreamingListener16OnTestPartResultERKNS_14TestPartResultE
FN:1213,1213,_ZN7testing8internal17StreamingListener6SendLnERKNSt7__cxx1112basic_stringIcSt11char_traitsIcESaIcEEE
FN:1217,1217,_ZN7testing8internal17StreamingListener5StartEv
FN:1219,1219,_ZN7testing8internal17StreamingListener10FormatBoolB5cxx11Eb
FN:131,137,_ZN7testing8internal17GetNextRandomSeedEi
FN:144,167,_ZN7testing8internal14GTestFlagSaverC2Ev
FN:170,193,_ZN7testing8internal14GTestFlagSaverD2Ev
FN:276,284,_ZN7testing8internal7CountIfISt6vectorINS_14TestPartResultESaIS3_EEPFbRKS3_EEEiRKT_T0_
FN:276,284,_ZN7testing8internal7CountIfISt6vectorIPNS_8TestInfoESaIS4_EEPFbPKS3_EEEiRKT_T0_
FN:276,284,_ZN7testing8internal7CountIfISt6vectorIPNS_9TestSuiteESaIS4_EEPFbPKS3_EEEiRKT_T0_
FN:288,290,_ZN7testing8internal7ForEachISt6vectorIPNS_11EnvironmentESaIS4_EEPFvS4_EEEvRKT_T0_
FN:288,290,_ZN7testing8internal7ForEachISt6vectorIPNS_17TestEventListenerESaIS4_EEPFvS4_EEEvRKT_T0_
FN:288,290,_ZN7testing8internal7ForEachISt6vectorIPNS_8TestInfoESaIS4_EEPFvS4_EEEvRKT_T0_
FN:288,290,_ZN7testing8internal7ForEachISt6vectorIPNS_9TestSuiteESaIS4_EEPFvS4_EEEvRKT_T0_
FN:295,298,_ZN7testing8internal12GetElementOrIiEET_RKSt6vectorIS2_SaIS2_EEiS2_
FN:305,325,_ZN7testing8internal12ShuffleRangeIiEEvPNS0_6RandomEiiPSt6vectorIT_SaIS5_EE
FN:329,331,_ZN7testing8internal7ShuffleIiEEvPNS0_6RandomEPSt6vectorIT_SaIS5_EE
FN:336,338,_ZN7testing8internalL6DeleteINS_11EnvironmentEEEvPT_
FN:336,338,_ZN7testing8internalL6DeleteINS_17TestEventListenerEEEvPT_
FN:336,338,_ZN7testing8internalL6DeleteINS_8TestInfoEEEvPT_
FN:336,338,_ZN7testing8internalL6DeleteINS_9TestSuiteEEEvPT_
FN:348,348,_ZN7testing8internal17TestPropertyKeyIsC2ERKNSt7__cxx1112basic_stringIcSt11char_traitsIcESaIcEEE
FN:351,353,_ZNK7testing8internal17TestPropertyKeyIsclERKNS_12TestPropertyE
FN:411,411,_ZN7testing8internal27OsStackTraceGetterInterfaceC2Ev
FN:412,412,_ZN7testing8internal27OsStackTraceGetterInterfaceD0Ev
FN:412,412,_ZN7testing8internal27OsStackTraceGetterInterfaceD2Ev
FN:440,440,_ZN7testing8internal18OsStackTraceGetterC2Ev
FN:574,574,_ZNK7testing8internal12UnitTestImpl15start_timestampEv
FN:577,577,_ZNK7testing8internal12UnitTestImpl12elapsed_timeEv
FN:581,581,_ZNK7testing8internal12UnitTestImpl6PassedEv
FN:585,587,_ZNK7testing8internal12UnitTestImpl6FailedEv
FN:591,594,_ZNK7testing8internal12UnitTestImpl12GetTestSuiteEi
FN:598,598,_ZNK7testing8internal12UnitTestImpl11GetTestCaseEi
FN:603,606,_ZN7testing8internal12UnitTestImpl19GetMutableSuiteCaseEi
FN:609,609,_ZN7testing8internal12UnitTestImpl9listenersEv
FN:616,616,_ZNK7testing8internal12UnitTestImpl18ad_hoc_test_resultEv
FN:675,696,_ZN7testing8internal12UnitTestImpl11AddTestInfoEPFvvES3_PNS_8TestInfoE
FN:700,702,_ZN7testing8internal12UnitTestImpl27parameterized_test_registryEv
FN:704,706,_ZN7testing8internal12UnitTestImpl33ignored_parameterized_test_suitesB5cxx11Ev
FN:711,713,_ZN7testing8internal12UnitTestImpl32type_parameterized_test_registryEv
FN:730,732,_ZN7testing8internal12UnitTestImpl23ClearNonAdHocTestResultEv
FN:756,756,_ZNK7testing8internal12UnitTestImpl18current_test_suiteEv
FN:757,757,_ZN7testing8internal12UnitTestImpl17current_test_infoEv
FN:758,758,_ZNK7testing8internal12UnitTestImpl17current_test_infoEv
FN:762,762,_ZN7testing8internal12UnitTestImpl12environmentsEv
FN:765,767,_ZN7testing8internal12UnitTestImpl17gtest_trace_stackEv
FN:773,775,_ZN7testing8internal12UnitTestImpl34InitDeathTestSubprocessControlInfoEv
FN:780,782,_ZNK7testing8internal12UnitTestImpl28internal_run_death_test_flagEv
FN:785,787,_ZN7testing8internal12UnitTestImpl18death_test_factoryEv
FN:812,812,_ZNK7testing8internal12UnitTestImpl11random_seedEv
FN:815,815,_ZN7testing8internal12UnitTestImpl6randomEv
FN:826,826,_ZNK7testing8internal12UnitTestImpl16catch_exceptionsEv
FN:843,843,_ZN7testing8internal12UnitTestImpl20set_catch_exceptionsEb
FN:846,848,_ZN7testing8internal12UnitTestImpl22set_current_test_suiteEPNS_9TestSuiteE
FN:853,855,_ZN7testing8internal12UnitTestImpl21set_current_test_infoEPNS_8TestInfoE
FN:982,984,_ZN7testing8internal15GetUnitTestImplEv
FNDA:0,_ZN7testing8internal18ParseNaturalNumberIiEEbRKNSt7__cxx1112basic_stringIcSt11char_traitsIcESaIcEEEPT_
FNDA:0,_ZN7testing8internal17StreamingListener20AbstractSocketWriterD0Ev
FNDA:0,_ZN7testing8internal17StreamingListener20AbstractSocketWriterD2Ev
FNDA:0,_ZN7testing8internal17StreamingListener20AbstractSocketWriter15CloseConnectionEv
FNDA:0,_ZN7testing8internal17StreamingListener20AbstractSocketWriter6SendLnERKNSt7__cxx1112basic_stringIcSt11char_traitsIcESaIcEEE
FNDA:0,_ZN7testing8internal17StreamingListener12SocketWriterC2ERKNSt7__cxx1112basic_stringIcSt11char_traitsIcESaIcEEESA_
FNDA:0,_ZN7testing8internal17StreamingListener12SocketWriterD0Ev
FNDA:0,_ZN7testing8internal17StreamingListener12SocketWriterD2Ev
FNDA:0,_ZN7testing8internal17StreamingListener12SocketWriter4SendERKNSt7__cxx1112basic_stringIcSt11char_traitsIcESaIcEEE
FNDA:0,_ZN7testing8internal17StreamingListener12SocketWriter15CloseConnectionEv
FNDA:1,_ZN7testing8internal21GetRandomSeedFromFlagEi
FNDA:0,_ZN7testing8internal17StreamingListenerC2ERKNSt7__cxx1112basic_stringIcSt11char_traitsIcESaIcEEES9_
FNDA:0,_ZN7testing8internal17StreamingListener18OnTestProgramStartERKNS_8UnitTestE
FNDA:0,_ZN7testing8internal17StreamingListener16OnTestProgramEndERKNS_8UnitTestE
FNDA:0,_ZN7testing8internal17StreamingListener20OnTestIterationStartERKNS_8UnitTestEi
FNDA:0,_ZN7testing8internal17StreamingListener18OnTestIterationEndERKNS_8UnitTestEi
FNDA:0,_ZN7testing8internal17StreamingListener16OnTestSuiteStartERKNS_9TestSuiteE
FNDA:0,_ZN7testing8internal17StreamingListener14OnTestSuiteEndERKNS_9TestSuiteE
FNDA:0,_ZN7testing8internal17StreamingListener11OnTestStartERKNS_8TestInfoE
FNDA:0,_ZN7testing8internal17StreamingListener9OnTestEndERKNS_8TestInfoE
FNDA:0,_ZN7testing8internal17StreamingListener16OnTestPartResultERKNS_14TestPartResultE
FNDA:0,_ZN7testing8internal17StreamingListener6SendLnERKNSt7__cxx1112basic_stringIcSt11char_traitsIcESaIcEEE
FNDA:0,_ZN7testing8internal17StreamingListener5StartEv
FNDA:0,_ZN7testing8internal17StreamingListener10FormatBoolB5cxx11Eb
FNDA:0,_ZN7testing8internal17GetNextRandomSeedEi
FNDA:7,_ZN7testing8internal14GTestFlagSaverC2Ev
FNDA:7,_ZN7testing8internal14GTestFlagSaverD2Ev
FNDA:55,_ZN7testing8internal7CountIfISt6vectorINS_14TestPartResultESaIS3_EEPFbRKS3_EEEiRKT_T0_
FNDA:77,_ZN7testing8internal7CountIfISt6vectorIPNS_8TestInfoESaIS4_EEPFbPKS3_EEEiRKT_T0_
FNDA:4,_ZN7testing8internal7CountIfISt6vectorIPNS_9TestSuiteESaIS4_EEPFbPKS3_EEEiRKT_T0_
FNDA:3,_ZN7testing8internal7ForEachISt6vectorIPNS_11EnvironmentESaIS4_EEPFvS4_EEEvRKT_T0_
FNDA:1,_ZN7testing8internal7ForEachISt6vectorIPNS_17TestEventListenerESaIS4_EEPFvS4_EEEvRKT_T0_
FNDA:14,_ZN7testing8internal7ForEachISt6vectorIPNS_8TestInfoESaIS4_EEPFvS4_EEEvRKT_T0_
FNDA:2,_ZN7testing8internal7ForEachISt6vectorIPNS_9TestSuiteESaIS4_EEPFvS4_EEEvRKT_T0_
FNDA:29,_ZN7testing8internal12GetElementOrIiEET_RKSt6vectorIS2_SaIS2_EEiS2_
FNDA:0,_ZN7testing8internal12ShuffleRangeIiEEvPNS0_6RandomEiiPSt6vectorIT_SaIS5_EE
FNDA:0,_ZN7testing8internal7ShuffleIiEEvPNS0_6RandomEPSt6vectorIT_SaIS5_EE
FNDA:0,_ZN7testing8internalL6DeleteINS_11EnvironmentEEEvPT_
FNDA:1,_ZN7testing8internalL6DeleteINS_17TestEventListenerEEEvPT_
FNDA:7,_ZN7testing8internalL6DeleteINS_8TestInfoEEEvPT_
FNDA:7,_ZN7testing8internalL6DeleteINS_9TestSuiteEEEvPT_
FNDA:0,_ZN7testing8internal17TestPropertyKeyIsC2ERKNSt7__cxx1112basic_stringIcSt11char_traitsIcESaIcEEE
FNDA:0,_ZNK7testing8internal17TestPropertyKeyIsclERKNS_12TestPropertyE
FNDA:1,_ZN7testing8internal27OsStackTraceGetterInterfaceC2Ev
FNDA:0,_ZN7testing8internal27OsStackTraceGetterInterfaceD0Ev
FNDA:1,_ZN7testing8internal27OsStackTraceGetterInterfaceD2Ev
FNDA:1,_ZN7testing8internal18OsStackTraceGetterC2Ev
FNDA:0,_ZNK7testing8internal12UnitTestImpl15start_timestampEv
FNDA:1,_ZNK7testing8internal12UnitTestImpl12elapsed_timeEv
FNDA:2,_ZNK7testing8internal12UnitTestImpl6PassedEv
FNDA:2,_ZNK7testing8internal12UnitTestImpl6FailedEv
FNDA:14,_ZNK7testing8internal12UnitTestImpl12GetTestSuiteEi
FNDA:0,_ZNK7testing8internal12UnitTestImpl11GetTestCaseEi
FNDA:7,_ZN7testing8internal12UnitTestImpl19GetMutableSuiteCaseEi
FNDA:18,_ZN7testing8internal12UnitTestImpl9listenersEv
FNDA:0,_ZNK7testing8internal12UnitTestImpl18ad_hoc_test_resultEv
FNDA:7,_ZN7testing8internal12UnitTestImpl11AddTestInfoEPFvvES3_PNS_8TestInfoE
FNDA:0,_ZN7testing8internal12UnitTestImpl27parameterized_test_registryEv
FNDA:1,_ZN7testing8internal12UnitTestImpl33ignored_parameterized_test_suitesB5cxx11Ev
FNDA:0,_ZN7testing8internal12UnitTestImpl32type_parameterized_test_registryEv
FNDA:1,_ZN7testing8internal12UnitTestImpl23ClearNonAdHocTestResultEv
FNDA:7,_ZNK7testing8internal12UnitTestImpl18current_test_suiteEv
FNDA:7,_ZN7testing8internal12UnitTestImpl17current_test_infoEv
FNDA:0,_ZNK7testing8internal12UnitTestImpl17current_test_infoEv
FNDA:0,_ZN7testing8internal12UnitTestImpl12environmentsEv
FNDA:2,_ZN7testing8internal12UnitTestImpl17gtest_trace_stackEv
FNDA:1,_ZN7testing8internal12UnitTestImpl34InitDeathTestSubprocessControlInfoEv
FNDA:0,_ZNK7testing8internal12UnitTestImpl28internal_run_death_test_flagEv
FNDA:0,_ZN7testing8internal12UnitTestImpl18death_test_factoryEv
FNDA:0,_ZNK7testing8internal12UnitTestImpl11random_seedEv
FNDA:0,_ZN7testing8internal12UnitTestImpl6randomEv
FNDA:50,_ZNK7testing8internal12UnitTestImpl16catch_exceptionsEv
FNDA:1,_ZN7testing8internal12UnitTestImpl20set_catch_exceptionsEb
FNDA:14,_ZN7testing8internal12UnitTestImpl22set_current_test_suiteEPNS_9TestSuiteE
FNDA:14,_ZN7testing8internal12UnitTestImpl21set_current_test_infoEPNS_8TestInfoE
FNDA:102,_ZN7testing8internal15GetUnitTestImplEv
FNF:76
FNH:35
DA:114,1
DA:116,1
DA:117,1
DA:121,1
DA:122,1
DA:125,1
DA:131,0
DA:132,0
DA:133,0
DA:134,0
DA:135,0
DA:136,0
DA:144,7
DA:145,7
DA:146,7
DA:147,7
DA:148,7
DA:149,7
DA:150,7
DA:151,7
DA:152,7
DA:153,7
DA:154,7
DA:155,7
DA:156,7
DA:157,7
DA:158,7
DA:159,7
DA:160,7
DA:161,7
DA:163,7
DA:164,7
DA:165,7
DA:166,7
DA:167,7
DA:170,7
DA:171,7
DA:172,7
DA:173,7
DA:174,7
DA:175,7
DA:176,7
DA:177,7
DA:178,7
DA:179,7
DA:180,7
DA:181,7
DA:182,7
DA:183,7
DA:184,7
DA:185,7
DA:186,7
DA:187,7
DA:189,7
DA:190,7
DA:191,7
DA:192,7
DA:193,7
DA:276,136
DA:279,136
DA:280,241
DA:281,105
DA:283,136
DA:288,20
DA:289,20
DA:290,20
DA:295,29
DA:296,58
DA:297,58
DA:305,0
DA:307,0
DA:308,0
DA:309,0
DA:310,0
DA:311,0
DA:312,0
DA:313,0
DA:317,0
DA:318,0
DA:319,0
DA:321,0
DA:322,0
DA:323,0
DA:325,0
DA:329,0
DA:330,0
DA:331,0
DA:336,15
DA:337,15
DA:338,15
DA:348,0
DA:351,0
DA:352,0
DA:411,1
DA:412,1
DA:440,1
DA:574,0
DA:577,1
DA:581,2
DA:585,2
DA:586,2
DA:591,14
DA:592,14
DA:593,14
DA:598,0
DA:603,7
DA:604,7
DA:605,7
DA:609,18
DA:616,0
DA:675,7
DA:686,7
DA:687,1
DA:688,1
DA:689,0
DA:693,7
DA:695,7
DA:696,7
DA:700,0
DA:701,0
DA:704,1
DA:705,1
DA:711,0
DA:712,0
DA:730,1
DA:731,1
DA:732,1
DA:756,7
DA:757,7
DA:758,0
DA:762,0
DA:765,2
DA:766,2
DA:773,1
DA:774,1
DA:775,1
DA:780,0
DA:781,0
DA:785,0
DA:786,0
DA:812,0
DA:815,0
DA:826,50
DA:843,1
DA:846,14
DA:847,14
DA:848,14
DA:853,14
DA:854,14
DA:855,14
DA:982,102
DA:983,102
DA:1023,0
DA:1027,0
DA:1028,0
DA:1030,0
DA:1037,0
DA:1038,0
DA:1040,0
DA:1042,0
DA:1043,0
DA:1044,0
DA:1045,0
DA:1047,0
DA:1083,0
DA:1089,0
DA:1092,0
DA:1098,0
DA:1099,0
DA:1100,0
DA:1101,0
DA:1103,0
DA:1104,0
DA:1105,0
DA:1108,0
DA:1109,0
DA:1110,0
DA:1112,0
DA:1113,0
DA:1114,0
DA:1115,0
DA:1117,0
DA:1124,0
DA:1125,0
DA:1126,0
DA:1128,0
DA:1129,0
DA:1130,0
DA:1143,0
DA:1144,0
DA:1145,0
DA:1146,0
DA:1153,0
DA:1154,0
DA:1155,0
DA:1157,0
DA:1160,0
DA:1163,0
DA:1164,0
DA:1166,0
DA:1168,0
DA:1169,0
DA:1170,0
DA:1172,0
DA:1174,0
DA:1175,0
DA:1177,0
DA:1181,0
DA:1182,0
DA:1183,0
DA:1187,0
DA:1188,0
DA:1189,0
DA:1191,0
DA:1193,0
DA:1194,0
DA:1195,0
DA:1197,0
DA:1198,0
DA:1199,0
DA:1200,0
DA:1201,0
DA:1203,0
DA:1204,0
DA:1205,0
DA:1206,0
DA:1207,0
DA:1208,0
DA:1209,0
DA:1213,0
DA:1217,0
DA:1219,0
LF:232
LH:109
end_of_record
TN:
SF:/home/savvich/lab3/build/_deps/googletest-src/googletest/src/gtest-matchers.cc
FN:46,46,_ZN7testing7MatcherIRKNSt7__cxx1112basic_stringIcSt11char_traitsIcESaIcEEEEC2ES8_
FN:50,52,_ZN7testing7MatcherIRKNSt7__cxx1112basic_stringIcSt11char_traitsIcESaIcEEEEC2EPKc
FN:56,56,_ZN7testing7MatcherINSt7__cxx1112basic_stringIcSt11char_traitsIcESaIcEEEEC2ERKS6_
FN:60,60,_ZN7testing7MatcherINSt7__cxx1112basic_stringIcSt11char_traitsIcESaIcEEEEC2EPKc
FN:65,67,_ZN7testing7MatcherIRKSt17basic_string_viewIcSt11char_traitsIcEEEC2ERKNSt7__cxx1112basic_stringIcS3_SaIcEEE
FN:71,73,_ZN7testing7MatcherIRKSt17basic_string_viewIcSt11char_traitsIcEEEC2EPKc
FN:77,79,_ZN7testing7MatcherIRKSt17basic_string_viewIcSt11char_traitsIcEEEC2ES4_
FN:83,83,_ZN7testing7MatcherISt17basic_string_viewIcSt11char_traitsIcEEEC2ERKNSt7__cxx1112basic_stringIcS3_SaIcEEE
FN:87,89,_ZN7testing7MatcherISt17basic_string_viewIcSt11char_traitsIcEEEC2EPKc
FN:93,95,_ZN7testing7MatcherISt17basic_string_viewIcSt11char_traitsIcEEEC2ES4_
FNDA:0,_ZN7testing7MatcherIRKNSt7__cxx1112basic_stringIcSt11char_traitsIcESaIcEEEEC2ES8_
FNDA:0,_ZN7testing7MatcherIRKNSt7__cxx1112basic_stringIcSt11char_traitsIcESaIcEEEEC2EPKc
FNDA:0,_ZN7testing7MatcherINSt7__cxx1112basic_stringIcSt11char_traitsIcESaIcEEEEC2ERKS6_
FNDA:0,_ZN7testing7MatcherINSt7__cxx1112basic_stringIcSt11char_traitsIcESaIcEEEEC2EPKc
FNDA:0,_ZN7testing7MatcherIRKSt17basic_string_viewIcSt11char_traitsIcEEEC2ERKNSt7__cxx1112basic_stringIcS3_SaIcEEE
FNDA:0,_ZN7testing7MatcherIRKSt17basic_string_viewIcSt11char_traitsIcEEEC2EPKc
FNDA:0,_ZN7testing7MatcherIRKSt17basic_string_viewIcSt11char_traitsIcEEEC2ES4_
FNDA:0,_ZN7testing7MatcherISt17basic_string_viewIcSt11char_traitsIcEEEC2ERKNSt7__cxx1112basic_stringIcS3_SaIcEEE
FNDA:0,_ZN7testing7MatcherISt17basic_string_viewIcSt11char_traitsIcEEEC2EPKc
FNDA:0,_ZN7testing7MatcherISt17basic_string_viewIcSt11char_traitsIcEEEC2ES4_
FNF:10
FNH:0
DA:46,0
DA:50,0
DA:51,0
DA:52,0
DA:56,0
DA:60,0
DA:65,0
DA:66,0
DA:67,0
DA:71,0
DA:72,0
DA:73,0
DA:77,0
DA:78,0
DA:79,0
DA:83,0
DA:87,0
DA:88,0
DA:89,0
DA:93,0
DA:94,0
DA:95,0
LF:22
LH:0
end_of_record
TN:
SF:/home/savvich/lab3/build/_deps/googletest-src/googletest/src/gtest-port.cc
FN:1003,1014,_ZN7testing8internal18FormatFileLocationB5cxx11EPKci
FN:1021,1029,_ZN7testing8internal37FormatCompilerIndependentFileLocationB5cxx11EPKci
FN:103,112,_ZN7testing8internal12_GLOBAL__N_117ReadProcFileFieldImEET_RKNSt7__cxx1112basic_stringIcSt11char_traitsIcESaIcEEEi
FN:1031,1040,_ZN7testing8internal8GTestLogC2ENS0_16GTestLogSeverityEPKci
FN:1043,1049,_ZN7testing8internal8GTestLogD2Ev
FN:1071,1153,_ZN7testing8internal14CapturedStreamC2Ei
FN:1155,1155,_ZN7testing8internal14CapturedStreamD2Ev
FN:1157,1174,_ZN7testing8internal14CapturedStream17GetCapturedStringB5cxx11Ev
FN:116,120,_ZN7testing8internal14GetThreadCountEv
FN:1192,1199,_ZN7testing8internalL13CaptureStreamEiPKcPPNS0_14CapturedStreamE
FN:1202,1209,_ZN7testing8internalL17GetCapturedStreamEPPNS0_14CapturedStreamE
FN:1221,1223,_ZN7testing8internal13CaptureStdoutEv
FN:1226,1228,_ZN7testing8internal13CaptureStderrEv
FN:1231,1233,_ZN7testing8internal17GetCapturedStdoutB5cxx11Ev
FN:1236,1238,_ZN7testing8internal17GetCapturedStderrB5cxx11Ev
FN:1242,1245,_ZN7testing8internal11GetFileSizeEP8_IO_FILE
FN:1247,1268,_ZN7testing8internal14ReadEntireFileB5cxx11EP8_IO_FILE
FN:1274,1279,_ZN7testing8internal18GetInjectableArgvsB5cxx11Ev
FN:1281,1284,_ZN7testing8internal18SetInjectableArgvsEPKSt6vectorINSt7__cxx1112basic_stringIcSt11char_traitsIcESaIcEEESaIS7_EE
FN:1286,1289,_ZN7testing8internal18SetInjectableArgvsERKSt6vectorINSt7__cxx1112basic_stringIcSt11char_traitsIcESaIcEEESaIS7_EE
FN:1291,1294,_ZN7testing8internal20ClearInjectableArgvsEv
FN:1309,1319,_ZN7testing8internalL12FlagToEnvVarEPKc
FN:1324,1360,_ZN7testing8internal10ParseInt32ERKNS_7MessageEPKcPi
FN:1366,1375,_ZN7testing8internal16BoolFromGTestEnvEPKcb
FN:1380,1402,_ZN7testing8internal17Int32FromGTestEnvEPKci
FN:1412,1419,_ZN7testing8internal25OutputFlagAlsoCheckEnvVarB5cxx11Ev
FN:1423,1431,_ZN7testing8internal18StringFromGTestEnvEPKcS2_
FN:683,692,_ZN7testing8internal2RED2Ev
FN:695,700,_ZN7testing8internal2RE9FullMatchEPKcRKS1_
FN:704,709,_ZN7testing8internal2RE12PartialMatchEPKcRKS1_
FN:712,750,_ZN7testing8internal2RE4InitEPKc
FNDA:2,_ZN7testing8internal18FormatFileLocationB5cxx11EPKci
FNDA:0,_ZN7testing8internal37FormatCompilerIndependentFileLocationB5cxx11EPKci
FNDA:0,_ZN7testing8internal12_GLOBAL__N_117ReadProcFileFieldImEET_RKNSt7__cxx1112basic_stringIcSt11char_traitsIcESaIcEEEi
FNDA:0,_ZN7testing8internal8GTestLogC2ENS0_16GTestLogSeverityEPKci
FNDA:0,_ZN7testing8internal8GTestLogD2Ev
FNDA:0,_ZN7testing8internal14CapturedStreamC2Ei
FNDA:0,_ZN7testing8internal14CapturedStreamD2Ev
FNDA:0,_ZN7testing8internal14CapturedStream17GetCapturedStringB5cxx11Ev
FNDA:0,_ZN7testing8internal14GetThreadCountEv
FNDA:0,_ZN7testing8internalL13CaptureStreamEiPKcPPNS0_14CapturedStreamE
FNDA:0,_ZN7testing8internalL17GetCapturedStreamEPPNS0_14CapturedStreamE
FNDA:0,_ZN7testing8internal13CaptureStdoutEv
FNDA:0,_ZN7testing8internal13CaptureStderrEv
FNDA:0,_ZN7testing8internal17GetCapturedStdoutB5cxx11Ev
FNDA:0,_ZN7testing8internal17GetCapturedStderrB5cxx11Ev
FNDA:0,_ZN7testing8internal11GetFileSizeEP8_IO_FILE
FNDA:0,_ZN7testing8internal14ReadEntireFileB5cxx11EP8_IO_FILE
FNDA:0,_ZN7testing8internal18GetInjectableArgvsB5cxx11Ev
FNDA:0,_ZN7testing8internal18SetInjectableArgvsEPKSt6vectorINSt7__cxx1112basic_stringIcSt11char_traitsIcESaIcEEESaIS7_EE
FNDA:0,_ZN7testing8internal18SetInjectableArgvsERKSt6vectorINSt7__cxx1112basic_stringIcSt11char_traitsIcESaIcEEESaIS7_EE
FNDA:0,_ZN7testing8internal20ClearInjectableArgvsEv
FNDA:23,_ZN7testing8internalL12FlagToEnvVarEPKc
FNDA:0,_ZN7testing8internal10ParseInt32ERKNS_7MessageEPKcPi
FNDA:14,_ZN7testing8internal16BoolFromGTestEnvEPKcb
FNDA:3,_ZN7testing8internal17Int32FromGTestEnvEPKci
FNDA:1,_ZN7testing8internal25OutputFlagAlsoCheckEnvVarB5cxx11Ev
FNDA:6,_ZN7testing8internal18StringFromGTestEnvEPKcS2_
FNDA:0,_ZN7testing8internal2RED2Ev
FNDA:0,_ZN7testing8internal2RE9FullMatchEPKcRKS1_
FNDA:0,_ZN7testing8internal2RE12PartialMatchEPKcRKS1_
FNDA:0,_ZN7testing8internal2RE4InitEPKc
FNF:31
FNH:6
DA:103,0
DA:104,0
DA:105,0
DA:106,0
DA:107,0
DA:109,0
DA:110,0
DA:111,0
DA:112,0
DA:116,0
DA:118,0
DA:119,0
DA:120,0
DA:683,0
DA:684,0
DA:689,0
DA:690,0
DA:692,0
DA:695,0
DA:696,0
DA:699,0
DA:704,0
DA:705,0
DA:708,0
DA:712,0
DA:713,0
DA:723,0
DA:728,0
DA:729,0
DA:731,0
DA:732,0
DA:741,0
DA:742,0
DA:743,0
DA:745,0
DA:746,0
DA:747,0
DA:749,0
DA:750,0
DA:1003,2
DA:1004,2
DA:1006,2
DA:1007,0
DA:1012,2
DA:1014,2
DA:1021,0
DA:1023,0
DA:1025,0
DA:1026,0
DA:1028,0
DA:1029,0
DA:1031,0
DA:1032,0
DA:1033,0
DA:1037,0
DA:1038,0
DA:1039,0
DA:1040,0
DA:1043,0
DA:1044,0
DA:1045,0
DA:1046,0
DA:1047,0
DA:1049,0
DA:1071,0
DA:1089,0
DA:1132,0
DA:1134,0
DA:1142,0
DA:1143,0
DA:1144,0
DA:1146,0
DA:1148,0
DA:1150,0
DA:1151,0
DA:1152,0
DA:1153,0
DA:1155,0
DA:1157,0
DA:1158,0
DA:1160,0
DA:1161,0
DA:1162,0
DA:1163,0
DA:1166,0
DA:1167,0
DA:1168,0
DA:1169,0
DA:1171,0
DA:1172,0
DA:1173,0
DA:1174,0
DA:1192,0
DA:1194,0
DA:1195,0
DA:1196,0
DA:1198,0
DA:1199,0
DA:1202,0
DA:1203,0
DA:1205,0
DA:1206,0
DA:1208,0
DA:1221,0
DA:1222,0
DA:1223,0
DA:1226,0
DA:1227,0
DA:1228,0
DA:1231,0
DA:1232,0
DA:1236,0
DA:1237,0
DA:1242,0
DA:1243,0
DA:1244,0
DA:1247,0
DA:1248,0
DA:1249,0
DA:1251,0
DA:1252,0
DA:1254,0
DA:1260,0
DA:1261,0
DA:1262,0
DA:1264,0
DA:1265,0
DA:1267,0
DA:1274,0
DA:1275,0
DA:1276,0
DA:1278,0
DA:1281,0
DA:1282,0
DA:1283,0
DA:1284,0
DA:1286,0
DA:1287,0
DA:1288,0
DA:1289,0
DA:1291,0
DA:1292,0
DA:1293,0
DA:1294,0
DA:1309,23
DA:1311,23
DA:1313,23
DA:1314,495
DA:1315,472
DA:1318,46
DA:1319,23
DA:1324,0
DA:1326,0
DA:1327,0
DA:1330,0
DA:1332,0
DA:1333,0
DA:1334,0
DA:1335,0
DA:1336,0
DA:1337,0
DA:1338,0
DA:1339,0
DA:1342,0
DA:1343,0
DA:1346,0
DA:1349,0
DA:1350,0
DA:1351,0
DA:1352,0
DA:1353,0
DA:1354,0
DA:1355,0
DA:1356,0
DA:1358,0
DA:1359,0
DA:1366,14
DA:1370,14
DA:1371,14
DA:1372,14
DA:1373,14
DA:1375,14
DA:1380,3
DA:1384,3
DA:1385,3
DA:1386,3
DA:1388,3
DA:1391,0
DA:1392,0
DA:1394,0
DA:1395,0
DA:1396,0
DA:1397,0
DA:1400,0
DA:1402,3
DA:1412,1
DA:1413,1
DA:1414,1
DA:1415,1
DA:1416,0
DA:1418,1
DA:1419,0
DA:1423,6
DA:1427,6
DA:1428,6
DA:1429,12
DA:1431,6
LF:207
LH:34
end_of_record
TN:
SF:/home/savvich/lab3/build/_deps/googletest-src/googletest/src/gtest-printers.cc
FN:116,119,_ZN7testing12_GLOBAL__N_18ToChar32IDiEEDiT_
FN:116,119,_ZN7testing12_GLOBAL__N_18ToChar32IDsEEDiT_
FN:116,119,_ZN7testing12_GLOBAL__N_18ToChar32IaEEDiT_
FN:116,119,_ZN7testing12_GLOBAL__N_18ToChar32IcEEDiT_
FN:116,119,_ZN7testing12_GLOBAL__N_18ToChar32IhEEDiT_
FN:116,119,_ZN7testing12_GLOBAL__N_18ToChar32IwEEDiT_
FN:130,133,_ZN7testing8internal20PrintBytesInObjectToEPKhmPSo
FN:145,145,_ZN7testing8internal16IsPrintableAsciiEDi
FN:151,196,_ZN7testing8internalL20PrintAsCharLiteralToIDiEENS0_10CharFormatET_PSo
FN:151,196,_ZN7testing8internalL20PrintAsCharLiteralToIaEENS0_10CharFormatET_PSo
FN:151,196,_ZN7testing8internalL20PrintAsCharLiteralToIhEENS0_10CharFormatET_PSo
FN:151,196,_ZN7testing8internalL20PrintAsCharLiteralToIwEENS0_10CharFormatET_PSo
FN:200,211,_ZN7testing8internalL22PrintAsStringLiteralToEDiPSo
FN:213,213,_ZN7testing8internalL18GetCharWidthPrefixEc
FN:215,215,_ZN7testing8internalL18GetCharWidthPrefixEa
FN:217,217,_ZN7testing8internalL18GetCharWidthPrefixEh
FN:223,223,_ZN7testing8internalL18GetCharWidthPrefixEDs
FN:225,225,_ZN7testing8internalL18GetCharWidthPrefixEDi
FN:227,227,_ZN7testing8internalL18GetCharWidthPrefixEw
FN:231,233,_ZN7testing8internalL22PrintAsStringLiteralToEcPSo
FN:241,243,_ZN7testing8internalL22PrintAsStringLiteralToEDsPSo
FN:245,247,_ZN7testing8internalL22PrintAsStringLiteralToEwPSo
FN:253,274,_ZN7testing8internal18PrintCharAndCodeToIaEEvT_PSo
FN:253,274,_ZN7testing8internal18PrintCharAndCodeToIhEEvT_PSo
FN:253,274,_ZN7testing8internal18PrintCharAndCodeToIwEEvT_PSo
FN:276,276,_ZN7testing8internal7PrintToEhPSo
FN:277,277,_ZN7testing8internal7PrintToEaPSo
FN:281,281,_ZN7testing8internal7PrintToEwPSo
FN:284,287,_ZN7testing8internal7PrintToEDiPSo
FN:291,323,_ZN7testing8internal7PrintToEoPSo
FN:324,331,_ZN7testing8internal7PrintToEnPSo
FN:342,363,_ZN7testing8internalL20PrintCharsAsStringToIDiEENS0_10CharFormatEPKT_mPSo
FN:342,363,_ZN7testing8internalL20PrintCharsAsStringToIDsEENS0_10CharFormatEPKT_mPSo
FN:342,363,_ZN7testing8internalL20PrintCharsAsStringToIcEENS0_10CharFormatEPKT_mPSo
FN:342,363,_ZN7testing8internalL20PrintCharsAsStringToIwEENS0_10CharFormatEPKT_mPSo
FN:371,391,_ZN7testing8internalL23UniversalPrintCharArrayIDiEEvPKT_mPSo
FN:371,391,_ZN7testing8internalL23UniversalPrintCharArrayIDsEEvPKT_mPSo
FN:371,391,_ZN7testing8internalL23UniversalPrintCharArrayIcEEvPKT_mPSo
FN:371,391,_ZN7testing8internalL23UniversalPrintCharArrayIwEEvPKT_mPSo
FN:394,396,_ZN7testing8internal19UniversalPrintArrayEPKcmPSo
FN:408,410,_ZN7testing8internal19UniversalPrintArrayEPKDsmPSo
FN:414,416,_ZN7testing8internal19UniversalPrintArrayEPKDimPSo
FN:420,422,_ZN7testing8internal19UniversalPrintArrayEPKwmPSo
FN:428,435,_ZN7testing8internal12_GLOBAL__N_114PrintCStringToIDiEEvPKT_PSo
FN:428,435,_ZN7testing8internal12_GLOBAL__N_114PrintCStringToIDsEEvPKT_PSo
FN:428,435,_ZN7testing8internal12_GLOBAL__N_114PrintCStringToIcEEvPKT_PSo
FN:428,435,_ZN7testing8internal12_GLOBAL__N_114PrintCStringToIwEEvPKT_PSo
FN:439,439,_ZN7testing8internal7PrintToEPKcPSo
FN:445,445,_ZN7testing8internal7PrintToEPKDsPSo
FN:447,447,_ZN7testing8internal7PrintToEPKDiPSo
FN:457,457,_ZN7testing8internal7PrintToEPKwPSo
FN:462,479,_ZN7testing8internal12_GLOBAL__N_131ContainsUnprintableControlCodesEPKcm
FN:481,481,_ZN7testing8internal12_GLOBAL__N_115IsUTF8TrailByteEh
FN:483,514,_ZN7testing8internal12_GLOBAL__N_111IsValidUTF8EPKcm
FN:516,521,_ZN7testing8internal12_GLOBAL__N_122ConditionalPrintAsTextEPKcmPSo
FN:525,531,_ZN7testing8internal13PrintStringToESt17basic_string_viewIcSt11char_traitsIcEEPSo
FN:539,541,_ZN7testing8internal16PrintU16StringToESt17basic_string_viewIDsSt11char_traitsIDsEEPSo
FN:543,545,_ZN7testing8internal16PrintU32StringToESt17basic_string_viewIDiSt11char_traitsIDiEEPSo
FN:548,550,_ZN7testing8internal17PrintWideStringToESt17basic_string_viewIwSt11char_traitsIwEEPSo
FN:70,86,_ZN7testing12_GLOBAL__N_126PrintByteSegmentInObjectToEPKhmmPSo
FN:89,109,_ZN7testing12_GLOBAL__N_124PrintBytesInObjectToImplEPKhmPSo
FNDA:6,_ZN7testing12_GLOBAL__N_18ToChar32IDiEEDiT_
FNDA:0,_ZN7testing12_GLOBAL__N_18ToChar32IDsEEDiT_
FNDA:0,_ZN7testing12_GLOBAL__N_18ToChar32IaEEDiT_
FNDA:6,_ZN7testing12_GLOBAL__N_18ToChar32IcEEDiT_
FNDA:0,_ZN7testing12_GLOBAL__N_18ToChar32IhEEDiT_
FNDA:0,_ZN7testing12_GLOBAL__N_18ToChar32IwEEDiT_
FNDA:0,_ZN7testing8internal20PrintBytesInObjectToEPKhmPSo
FNDA:6,_ZN7testing8internal16IsPrintableAsciiEDi
FNDA:6,_ZN7testing8internalL20PrintAsCharLiteralToIDiEENS0_10CharFormatET_PSo
FNDA:0,_ZN7testing8internalL20PrintAsCharLiteralToIaEENS0_10CharFormatET_PSo
FNDA:0,_ZN7testing8internalL20PrintAsCharLiteralToIhEENS0_10CharFormatET_PSo
FNDA:0,_ZN7testing8internalL20PrintAsCharLiteralToIwEENS0_10CharFormatET_PSo
FNDA:6,_ZN7testing8internalL22PrintAsStringLiteralToEDiPSo
FNDA:4,_ZN7testing8internalL18GetCharWidthPrefixEc
FNDA:0,_ZN7testing8internalL18GetCharWidthPrefixEa
FNDA:0,_ZN7testing8internalL18GetCharWidthPrefixEh
FNDA:0,_ZN7testing8internalL18GetCharWidthPrefixEDs
FNDA:0,_ZN7testing8internalL18GetCharWidthPrefixEDi
FNDA:0,_ZN7testing8internalL18GetCharWidthPrefixEw
FNDA:6,_ZN7testing8internalL22PrintAsStringLiteralToEcPSo
FNDA:0,_ZN7testing8internalL22PrintAsStringLiteralToEDsPSo
FNDA:0,_ZN7testing8internalL22PrintAsStringLiteralToEwPSo
FNDA:0,_ZN7testing8internal18PrintCharAndCodeToIaEEvT_PSo
FNDA:0,_ZN7testing8internal18PrintCharAndCodeToIhEEvT_PSo
FNDA:0,_ZN7testing8internal18PrintCharAndCodeToIwEEvT_PSo
FNDA:0,_ZN7testing8internal7PrintToEhPSo
FNDA:0,_ZN7testing8internal7PrintToEaPSo
FNDA:0,_ZN7testing8internal7PrintToEwPSo
FNDA:0,_ZN7testing8internal7PrintToEDiPSo
FNDA:0,_ZN7testing8internal7PrintToEoPSo
FNDA:0,_ZN7testing8internal7PrintToEnPSo
FNDA:0,_ZN7testing8internalL20PrintCharsAsStringToIDiEENS0_10CharFormatEPKT_mPSo
FNDA:0,_ZN7testing8internalL20PrintCharsAsStringToIDsEENS0_10CharFormatEPKT_mPSo
FNDA:4,_ZN7testing8internalL20PrintCharsAsStringToIcEENS0_10CharFormatEPKT_mPSo
FNDA:0,_ZN7testing8internalL20PrintCharsAsStringToIwEENS0_10CharFormatEPKT_mPSo
FNDA:0,_ZN7testing8internalL23UniversalPrintCharArrayIDiEEvPKT_mPSo
FNDA:0,_ZN7testing8internalL23UniversalPrintCharArrayIDsEEvPKT_mPSo
FNDA:0,_ZN7testing8internalL23UniversalPrintCharArrayIcEEvPKT_mPSo
FNDA:0,_ZN7testing8internalL23UniversalPrintCharArrayIwEEvPKT_mPSo
FNDA:0,_ZN7testing8internal19UniversalPrintArrayEPKcmPSo
FNDA:0,_ZN7testing8internal19UniversalPrintArrayEPKDsmPSo
FNDA:0,_ZN7testing8internal19UniversalPrintArrayEPKDimPSo
FNDA:0,_ZN7testing8internal19UniversalPrintArrayEPKwmPSo
FNDA:0,_ZN7testing8internal12_GLOBAL__N_114PrintCStringToIDiEEvPKT_PSo
FNDA:0,_ZN7testing8internal12_GLOBAL__N_114PrintCStringToIDsEEvPKT_PSo
FNDA:0,_ZN7testing8internal12_GLOBAL__N_114PrintCStringToIcEEvPKT_PSo
FNDA:0,_ZN7testing8internal12_GLOBAL__N_114PrintCStringToIwEEvPKT_PSo
FNDA:0,_ZN7testing8internal7PrintToEPKcPSo
FNDA:0,_ZN7testing8internal7PrintToEPKDsPSo
FNDA:0,_ZN7testing8internal7PrintToEPKDiPSo
FNDA:0,_ZN7testing8internal7PrintToEPKwPSo
FNDA:0,_ZN7testing8internal12_GLOBAL__N_131ContainsUnprintableControlCodesEPKcm
FNDA:0,_ZN7testing8internal12_GLOBAL__N_115IsUTF8TrailByteEh
FNDA:0,_ZN7testing8internal12_GLOBAL__N_111IsValidUTF8EPKcm
FNDA:0,_ZN7testing8internal12_GLOBAL__N_122ConditionalPrintAsTextEPKcmPSo
FNDA:4,_ZN7testing8internal13PrintStringToESt17basic_string_viewIcSt11char_traitsIcEEPSo
FNDA:0,_ZN7testing8internal16PrintU16StringToESt17basic_string_viewIDsSt11char_traitsIDsEEPSo
FNDA:0,_ZN7testing8internal16PrintU32StringToESt17basic_string_viewIDiSt11char_traitsIDiEEPSo
FNDA:0,_ZN7testing8internal17PrintWideStringToESt17basic_string_viewIwSt11char_traitsIwEEPSo
FNDA:0,_ZN7testing12_GLOBAL__N_126PrintByteSegmentInObjectToEPKhmmPSo
FNDA:0,_ZN7testing12_GLOBAL__N_124PrintBytesInObjectToImplEPKhmPSo
FNF:61
FNH:9
DA:70,0
DA:72,0
DA:73,0
DA:74,0
DA:75,0
DA:78,0
DA:79,0
DA:81,0
DA:83,0
DA:84,0
DA:86,0
DA:89,0
DA:92,0
DA:94,0
DA:95,0
DA:99,0
DA:100,0
DA:102,0
DA:103,0
DA:105,0
DA:106,0
DA:108,0
DA:109,0
DA:116,12
DA:118,12
DA:130,0
DA:132,0
DA:133,0
DA:145,6
DA:151,6
DA:152,6
DA:153,6
DA:154,0
DA:155,0
DA:156,0
DA:157,0
DA:158,0
DA:159,0
DA:160,0
DA:161,0
DA:162,0
DA:163,0
DA:164,0
DA:165,0
DA:166,0
DA:167,0
DA:168,0
DA:169,0
DA:170,0
DA:171,0
DA:172,0
DA:173,0
DA:174,0
DA:175,0
DA:176,0
DA:177,0
DA:178,0
DA:179,0
DA:180,0
DA:181,0
DA:182,0
DA:183,0
DA:184,6
DA:185,6
DA:186,6
DA:187,6
DA:189,0
DA:190,0
DA:191,0
DA:192,0
DA:195,0
DA:200,6
DA:201,6
DA:202,0
DA:203,0
DA:204,0
DA:205,0
DA:206,0
DA:207,0
DA:208,6
DA:209,6
DA:213,4
DA:215,0
DA:217,0
DA:223,0
DA:225,0
DA:227,0
DA:231,6
DA:232,6
DA:241,0
DA:242,0
DA:245,0
DA:246,0
DA:253,0
DA:255,0
DA:256,0
DA:257,0
DA:262,0
DA:263,0
DA:268,0
DA:271,0
DA:273,0
DA:276,0
DA:277,0
DA:281,0
DA:284,0
DA:285,0
DA:286,0
DA:287,0
DA:291,0
DA:292,0
DA:293,0
DA:294,0
DA:299,0
DA:304,0
DA:305,0
DA:307,0
DA:308,0
DA:309,0
DA:310,0
DA:316,0
DA:317,0
DA:319,0
DA:320,0
DA:322,0
DA:324,0
DA:325,0
DA:326,0
DA:327,0
DA:328,0
DA:330,0
DA:331,0
DA:342,4
DA:343,4
DA:344,4
DA:345,4
DA:346,4
DA:347,10
DA:348,6
DA:349,6
DA:353,0
DA:355,6
DA:357,6
DA:358,0
DA:361,4
DA:362,4
DA:371,0
DA:380,0
DA:381,0
DA:382,0
DA:389,0
DA:390,0
DA:394,0
DA:395,0
DA:396,0
DA:408,0
DA:409,0
DA:410,0
DA:414,0
DA:415,0
DA:416,0
DA:420,0
DA:421,0
DA:422,0
DA:428,0
DA:429,0
DA:430,0
DA:432,0
DA:433,0
DA:435,0
DA:439,0
DA:445,0
DA:447,0
DA:457,0
DA:462,0
DA:463,0
DA:465,0
DA:466,0
DA:467,0
DA:468,0
DA:469,0
DA:472,0
DA:473,0
DA:474,0
DA:478,0
DA:481,0
DA:483,0
DA:484,0
DA:486,0
DA:487,0
DA:489,0
DA:490,0
DA:492,0
DA:493,0
DA:494,0
DA:495,0
DA:496,0
DA:497,0
DA:499,0
DA:500,0
DA:501,0
DA:502,0
DA:503,0
DA:504,0
DA:506,0
DA:507,0
DA:508,0
DA:510,0
DA:513,0
DA:516,0
DA:517,0
DA:518,0
DA:519,0
DA:521,0
DA:525,4
DA:526,4
DA:527,0
DA:528,0
DA:531,4
DA:539,0
DA:540,0
DA:541,0
DA:543,0
DA:544,0
DA:545,0
DA:548,0
DA:549,0
DA:550,0
LF:228
LH:32
end_of_record
TN:
SF:/home/savvich/lab3/build/_deps/googletest-src/googletest/src/gtest-test-part.cc
FN:45,48,_ZN7testing14TestPartResult14ExtractSummaryB5cxx11EPKc
FN:51,62,_ZN7testinglsERSoRKNS_14TestPartResultE
FN:65,67,_ZN7testing19TestPartResultArray6AppendERKNS_14TestPartResultE
FN:70,77,_ZNK7testing19TestPartResultArray17GetTestPartResultEi
FN:80,82,_ZNK7testing19TestPartResultArray4sizeEv
FN:86,91,_ZN7testing8internal24HasNewFatalFailureHelperC2Ev
FN:93,96,_ZN7testing8internal24HasNewFatalFailureHelperD0Ev
FN:93,96,_ZN7testing8internal24HasNewFatalFailureHelperD2Ev
FN:98,102,_ZN7testing8internal24HasNewFatalFailureHelper20ReportTestPartResultERKNS_14TestPartResultE
FNDA:2,_ZN7testing14TestPartResult14ExtractSummaryB5cxx11EPKc
FNDA:0,_ZN7testinglsERSoRKNS_14TestPartResultE
FNDA:0,_ZN7testing19TestPartResultArray6AppendERKNS_14TestPartResultE
FNDA:0,_ZNK7testing19TestPartResultArray17GetTestPartResultEi
FNDA:0,_ZNK7testing19TestPartResultArray4sizeEv
FNDA:0,_ZN7testing8internal24HasNewFatalFailureHelperC2Ev
FNDA:0,_ZN7testing8internal24HasNewFatalFailureHelperD0Ev
FNDA:0,_ZN7testing8internal24HasNewFatalFailureHelperD2Ev
FNDA:0,_ZN7testing8internal24HasNewFatalFailureHelper20ReportTestPartResultERKNS_14TestPartResultE
FNF:9
FNH:1
DA:45,2
DA:46,2
DA:47,6
DA:51,0
DA:52,0
DA:55,0
DA:56,0
DA:57,0
DA:58,0
DA:61,0
DA:65,0
DA:66,0
DA:67,0
DA:70,0
DA:71,0
DA:72,0
DA:73,0
DA:76,0
DA:80,0
DA:81,0
DA:86,0
DA:87,0
DA:88,0
DA:89,0
DA:90,0
DA:91,0
DA:93,0
DA:94,0
DA:96,0
DA:98,0
DA:100,0
DA:101,0
DA:102,0
LF:33
LH:3
end_of_record
TN:
SF:/home/savvich/lab3/build/_deps/googletest-src/googletest/src/gtest-typed-test.cc
FN:43,46,_ZN7testing8internalL10SkipSpacesEPKc
FN:48,55,_ZN7testing8internalL18SplitIntoTestNamesEPKc
FN:60,105,_ZN7testing8internal20TypedTestSuitePState25VerifyRegisteredTestNamesEPKcS3_iS3_
FNDA:0,_ZN7testing8internalL10SkipSpacesEPKc
FNDA:0,_ZN7testing8internalL18SplitIntoTestNamesEPKc
FNDA:0,_ZN7testing8internal20TypedTestSuitePState25VerifyRegisteredTestNamesEPKcS3_iS3_
FNF:3
FNH:0
DA:43,0
DA:44,0
DA:45,0
DA:48,0
DA:49,0
DA:50,0
DA:51,0
DA:52,0
DA:54,0
DA:55,0
DA:60,0
DA:63,0
DA:66,0
DA:68,0
DA:70,0
DA:72,0
DA:73,0
DA:74,0
DA:75,0
DA:76,0
DA:77,0
DA:78,0
DA:81,0
DA:82,0
DA:84,0
DA:85,0
DA:89,0
DA:90,0
DA:91,0
DA:92,0
DA:96,0
DA:97,0
DA:98,0
DA:100,0
DA:101,0
DA:104,0
DA:105,0
LF:37
LH:0
end_of_record
TN:
SF:/home/savvich/lab3/build/_deps/googletest-src/googletest/src/gtest.cc
FN:1006,1006,_ZN7testing8internal13GetTestTypeIdEv
FN:1015,1049,_ZN7testing8internalL13HasOneFailureEPKcS2_S2_RKNS_19TestPartResultArrayENS_14TestPartResult4TypeERKNSt7__cxx1112basic_stringIcSt11char_traitsIcESaIcEEE
FN:1054,1057,_ZN7testing8internal20SingleFailureCheckerC2EPKNS_19TestPartResultArrayENS_14TestPartResult4TypeERKNSt7__cxx1112basic_stringIcSt11char_traitsIcESaIcEEE
FN:1063,1065,_ZN7testing8internal20SingleFailureCheckerD2Ev
FN:1067,1069,_ZN7testing8internal35DefaultGlobalTestPartResultReporterC2EPNS0_12UnitTestImplE
FN:1071,1075,_ZN7testing8internal35DefaultGlobalTestPartResultReporter20ReportTestPartResultERKNS_14TestPartResultE
FN:1077,1079,_ZN7testing8internal38DefaultPerThreadTestPartResultReporterC2EPNS0_12UnitTestImplE
FN:1081,1084,_ZN7testing8internal38DefaultPerThreadTestPartResultReporter20ReportTestPartResultERKNS_14TestPartResultE
FN:1088,1091,_ZN7testing8internal12UnitTestImpl31GetGlobalTestPartResultReporterEv
FN:1094,1098,_ZN7testing8internal12UnitTestImpl31SetGlobalTestPartResultReporterEPNS_31TestPartResultReporterInterfaceE
FN:1102,1104,_ZN7testing8internal12UnitTestImpl41GetTestPartResultReporterForCurrentThreadEv
FN:1107,1110,_ZN7testing8internal12UnitTestImpl41SetTestPartResultReporterForCurrentThreadEPNS_31TestPartResultReporterInterfaceE
FN:1113,1115,_ZNK7testing8internal12UnitTestImpl27successful_test_suite_countEv
FN:1118,1120,_ZNK7testing8internal12UnitTestImpl23failed_test_suite_countEv
FN:1123,1125,_ZNK7testing8internal12UnitTestImpl22total_test_suite_countEv
FN:1129,1131,_ZNK7testing8internal12UnitTestImpl23test_suite_to_run_countEv
FN:1134,1136,_ZNK7testing8internal12UnitTestImpl21successful_test_countEv
FN:1139,1141,_ZNK7testing8internal12UnitTestImpl18skipped_test_countEv
FN:1144,1146,_ZNK7testing8internal12UnitTestImpl17failed_test_countEv
FN:1149,1152,_ZNK7testing8internal12UnitTestImpl30reportable_disabled_test_countEv
FN:1155,1157,_ZNK7testing8internal12UnitTestImpl19disabled_test_countEv
FN:1160,1162,_ZNK7testing8internal12UnitTestImpl21reportable_test_countEv
FN:1165,1167,_ZNK7testing8internal12UnitTestImpl16total_test_countEv
FN:1170,1172,_ZNK7testing8internal12UnitTestImpl17test_to_run_countEv
FN:1184,1190,_ZN7testing8internal12UnitTestImpl28CurrentOsStackTraceExceptTopB5cxx11Ei
FN:1195,1195,_ZN7testing8internal5TimerC2Ev
FN:1198,1202,_ZN7testing8internal5Timer7ElapsedEv
FN:1218,1223,_ZN7testing8internal15GetTimeInMillisEv
FN:1268,1274,_ZN7testing8internal6String13CStringEqualsEPKcS3_
FN:1280,1291,_ZN7testing8internalL24StreamWideCharsToMessageEPKwmPNS_7MessageE
FN:1295,1310,_ZN7testing8internal11SplitStringERKNSt7__cxx1112basic_stringIcSt11char_traitsIcESaIcEEEcPSt6vectorIS6_SaIS6_EE
FN:1319,1323,_ZN7testing7MessageC2Ev
FN:1327,1329,_ZN7testing7MessagelsEPKw
FN:1330,1332,_ZN7testing7MessagelsEPw
FN:1337,1340,_ZN7testing7MessagelsERKNSt7__cxx1112basic_stringIwSt11char_traitsIwESaIwEEE
FN:1345,1347,_ZNK7testing7Message9GetStringB5cxx11Ev
FN:1352,1407,_ZN7testing8internal13edit_distance21CalculateOptimalEditsERKSt6vectorImSaImEES6_
FN:1414,1419,_ZN7testing8internal13edit_distance12_GLOBAL__N_115InternalStrings5GetIdERKNSt7__cxx1112basic_stringIcSt11char_traitsIcESaIcEEE
FN:1428,1442,_ZN7testing8internal13edit_distance21CalculateOptimalEditsERKSt6vectorINSt7__cxx1112basic_stringIcSt11char_traitsIcESaIcEEESaIS8_EESC_
FN:1452,1457,_ZN7testing8internal13edit_distance12_GLOBAL__N_14HunkC2Emm
FN:1459,1475,_ZN7testing8internal13edit_distance12_GLOBAL__N_14Hunk8PushLineEcPKc
FN:1477,1485,_ZN7testing8internal13edit_distance12_GLOBAL__N_14Hunk7PrintToEPSo
FN:1487,1487,_ZNK7testing8internal13edit_distance12_GLOBAL__N_14Hunk9has_editsEv
FN:1490,1493,_ZN7testing8internal13edit_distance12_GLOBAL__N_14Hunk10FlushEditsEv
FN:1499,1511,_ZNK7testing8internal13edit_distance12_GLOBAL__N_14Hunk11PrintHeaderEPSo
FN:1527,1588,_ZN7testing8internal13edit_distance17CreateUnifiedDiffERKSt6vectorINSt7__cxx1112basic_stringIcSt11char_traitsIcESaIcEEESaIS8_EESC_m
FN:1597,1618,_ZN7testing8internal12_GLOBAL__N_118SplitEscapedStringERKNSt7__cxx1112basic_stringIcSt11char_traitsIcESaIcEEE
FN:1637,1666,_ZN7testing8internal9EqFailureEPKcS2_RKNSt7__cxx1112basic_stringIcSt11char_traitsIcESaIcEEESA_b
FN:1669,1679,_ZN7testing8internal30GetBoolAssertionFailureMessageB5cxx11ERKNS_15AssertionResultEPKcS5_S5_
FN:1685,1734,_ZN7testing8internal20DoubleNearPredFormatEPKcS2_S2_ddd
FN:1738,1767,_ZN7testing8internal15FloatingPointLEIdEENS_15AssertionResultEPKcS4_T_S5_
FN:1738,1767,_ZN7testing8internal15FloatingPointLEIfEENS_15AssertionResultEPKcS4_T_S5_
FN:1773,1776,_ZN7testing7FloatLEEPKcS1_ff
FN:1780,1783,_ZN7testing8DoubleLEEPKcS1_dd
FN:1788,1797,_ZN7testing8internal14CmpHelperSTREQEPKcS2_S2_S2_
FN:1800,1809,_ZN7testing8internal18CmpHelperSTRCASEEQEPKcS2_S2_S2_
FN:1812,1822,_ZN7testing8internal14CmpHelperSTRNEEPKcS2_S2_S2_
FN:1825,1835,_ZN7testing8internal18CmpHelperSTRCASENEEPKcS2_S2_S2_
FN:1847,1851,_ZN7testing12_GLOBAL__N_115IsSubstringPredEPKcS2_
FN:1853,1857,_ZN7testing12_GLOBAL__N_115IsSubstringPredEPKwS2_
FN:1861,1863,_ZN7testing12_GLOBAL__N_115IsSubstringPredINSt7__cxx1112basic_stringIcSt11char_traitsIcESaIcEEEEEbRKT_SA_
FN:1861,1863,_ZN7testing12_GLOBAL__N_115IsSubstringPredINSt7__cxx1112basic_stringIwSt11char_traitsIwESaIwEEEEEbRKT_SA_
FN:1870,1886,_ZN7testing12_GLOBAL__N_115IsSubstringImplINSt7__cxx1112basic_stringIcSt11char_traitsIcESaIcEEEEENS_15AssertionResultEbPKcSA_RKT_SD_
FN:1870,1886,_ZN7testing12_GLOBAL__N_115IsSubstringImplINSt7__cxx1112basic_stringIwSt11char_traitsIwESaIwEEEEENS_15AssertionResultEbPKcSA_RKT_SD_
FN:1870,1886,_ZN7testing12_GLOBAL__N_115IsSubstringImplIPKcEENS_15AssertionResultEbS3_S3_RKT_S7_
FN:1870,1886,_ZN7testing12_GLOBAL__N_115IsSubstringImplIPKwEENS_15AssertionResultEbPKcS6_RKT_S9_
FN:1894,1897,_ZN7testing11IsSubstringEPKcS1_S1_S1_
FN:1899,1902,_ZN7testing11IsSubstringEPKcS1_PKwS3_
FN:1904,1908,_ZN7testing14IsNotSubstringEPKcS1_S1_S1_
FN:1910,1914,_ZN7testing14IsNotSubstringEPKcS1_PKwS3_
FN:1916,1920,_ZN7testing11IsSubstringEPKcS1_RKNSt7__cxx1112basic_stringIcSt11char_traitsIcESaIcEEES9_
FN:1922,1927,_ZN7testing14IsNotSubstringEPKcS1_RKNSt7__cxx1112basic_stringIcSt11char_traitsIcESaIcEEES9_
FN:1930,1934,_ZN7testing11IsSubstringEPKcS1_RKNSt7__cxx1112basic_stringIwSt11char_traitsIwESaIwEEES9_
FN:1936,1941,_ZN7testing14IsNotSubstringEPKcS1_RKNSt7__cxx1112basic_stringIwSt11char_traitsIwESaIwEEES9_
FN:2036,2040,_ZN7testing8internal11ChopLowBitsEPji
FN:2048,2074,_ZN7testing8internal15CodePointToUtf8B5cxx11Ej
FN:2083,2086,_ZN7testing8internal20IsUtf16SurrogatePairEww
FN:2089,2100,_ZN7testing8internal37CreateCodePointFromUtf16SurrogatePairEww
FN:2115,2135,_ZN7testing8internal16WideStringToUtf8B5cxx11EPKwi
FN:2139,2143,_ZN7testing8internal6String15ShowWideCStringB5cxx11EPKw
FN:2151,2157,_ZN7testing8internal6String17WideCStringEqualsEPKwS3_
FN:2160,2169,_ZN7testing8internal14CmpHelperSTREQEPKcS2_PKwS4_
FN:2172,2182,_ZN7testing8internal14CmpHelperSTRNEEPKcS2_PKwS4_
FN:219,231,_ZN7testing8internalL18OpenFileForWritingERKNSt7__cxx1112basic_stringIcSt11char_traitsIcESaIcEEE
FN:2190,2194,_ZN7testing8internal6String28CaseInsensitiveCStringEqualsEPKcS3_
FN:2208,2228,_ZN7testing8internal6String32CaseInsensitiveWideCStringEqualsEPKwS3_
FN:2232,2239,_ZN7testing8internal6String23EndsWithCaseInsensitiveERKNSt7__cxx1112basic_stringIcSt11char_traitsIcESaIcEEES9_
FN:2242,2244,_ZN7testing8internal6String15FormatIntWidth2B5cxx11Ei
FN:2247,2251,_ZN7testing8internal6String15FormatIntWidthNB5cxx11Eii
FN:2254,2258,_ZN7testing8internal6String15FormatHexUInt32B5cxx11Ej
FN:2261,2263,_ZN7testing8internal6String12FormatHexIntB5cxx11Ei
FN:2266,2271,_ZN7testing8internal6String10FormatByteB5cxx11Eh
FN:2275,2291,_ZN7testing8internal20StringStreamToStringEPNSt7__cxx1118basic_stringstreamIcSt11char_traitsIcESaIcEEE
FN:2294,2305,_ZN7testing8internal17AppendUserMessageERKNSt7__cxx1112basic_stringIcSt11char_traitsIcESaIcEEERKNS_7MessageE
FN:2312,2313,_ZN7testing10TestResultC2Ev
FN:2316,2316,_ZN7testing10TestResultD2Ev
FN:2321,2324,_ZNK7testing10TestResult17GetTestPartResultEi
FN:2329,2332,_ZNK7testing10TestResult15GetTestPropertyEi
FN:2335,2335,_ZN7testing10TestResult20ClearTestPartResultsEv
FN:2338,2340,_ZN7testing10TestResult17AddTestPartResultERKNS_14TestPartResultE
FN:2345,2359,_ZN7testing10TestResult14RecordPropertyERKNSt7__cxx1112basic_stringIcSt11char_traitsIcESaIcEEERKNS_12TestPropertyE
FN:238,245,_ZN7testingL16GetDefaultFilterEv
FN:2385,2387,_ZN7testing13ArrayAsVectorILm10EEESt6vectorINSt7__cxx1112basic_stringIcSt11char_traitsIcESaIcEEESaIS7_EERAT__KPKc
FN:2385,2387,_ZN7testing13ArrayAsVectorILm8EEESt6vectorINSt7__cxx1112basic_stringIcSt11char_traitsIcESaIcEEESaIS7_EERAT__KPKc
FN:2389,2402,_ZN7testingL31GetReservedAttributesForElementERKNSt7__cxx1112basic_stringIcSt11char_traitsIcESaIcEEE
FN:2407,2420,_ZN7testingL37GetReservedOutputAttributesForElementERKNSt7__cxx1112basic_stringIcSt11char_traitsIcESaIcEEE
FN:2423,2435,_ZN7testingL14FormatWordListERKSt6vectorINSt7__cxx1112basic_stringIcSt11char_traitsIcESaIcEEESaIS6_EE
FN:2437,2448,_ZN7testingL24ValidateTestPropertyNameERKNSt7__cxx1112basic_stringIcSt11char_traitsIcESaIcEEERKSt6vectorIS5_SaIS5_EE
FN:2452,2456,_ZN7testing10TestResult20ValidateTestPropertyERKNSt7__cxx1112basic_stringIcSt11char_traitsIcESaIcEEERKNS_12TestPropertyE
FN:2459,2464,_ZN7testing10TestResult5ClearEv
FN:2467,2469,_ZN7testingL15TestPartSkippedERKNS_14TestPartResultE
FN:2472,2474,_ZNK7testing10TestResult7SkippedEv
FN:2477,2482,_ZNK7testing10TestResult6FailedEv
FN:2485,2487,_ZN7testingL21TestPartFatallyFailedERKNS_14TestPartResultE
FN:249,256,_ZN7testingL18GetDefaultFailFastEv
FN:2490,2492,_ZNK7testing10TestResult15HasFatalFailureEv
FN:2495,2497,_ZN7testingL24TestPartNonfatallyFailedERKNS_14TestPartResultE
FN:2500,2502,_ZNK7testing10TestResult18HasNonfatalFailureEv
FN:2506,2508,_ZNK7testing10TestResult16total_part_countEv
FN:2511,2513,_ZNK7testing10TestResult19test_property_countEv
FN:2520,2520,_ZN7testing4TestC2Ev
FN:2525,2525,_ZN7testing4TestD0Ev
FN:2525,2525,_ZN7testing4TestD2Ev
FN:2530,2530,_ZN7testing4Test5SetUpEv
FN:2535,2535,_ZN7testing4Test8TearDownEv
FN:2538,2540,_ZN7testing4Test14RecordPropertyERKNSt7__cxx1112basic_stringIcSt11char_traitsIcESaIcEEES8_
FN:2544,2554,_ZN7testing8internal30ReportFailureInUnknownLocationENS_14TestPartResult4TypeERKNSt7__cxx1112basic_stringIcSt11char_traitsIcESaIcEEE
FN:2563,2622,_ZN7testing4Test19HasSameFixtureClassEv
FN:2629,2640,_ZN7testing8internalL25FormatCxxExceptionMessageEPKcS2_
FN:2645,2647,_ZN7testing8internal26GoogleTestFailureExceptionC2ERKNS_14TestPartResultE
FN:2660,2673,_ZN7testing8internal38HandleSehExceptionsInMethodIfSupportedINS0_12UnitTestImplEbEET0_PT_MS4_FS3_vEPKc
FN:2660,2673,_ZN7testing8internal38HandleSehExceptionsInMethodIfSupportedINS0_15TestFactoryBaseEPNS_4TestEEET0_PT_MS6_FS5_vEPKc
FN:2660,2673,_ZN7testing8internal38HandleSehExceptionsInMethodIfSupportedINS_4TestEvEET0_PT_MS4_FS3_vEPKc
FN:2660,2673,_ZN7testing8internal38HandleSehExceptionsInMethodIfSupportedINS_9TestSuiteEvEET0_PT_MS4_FS3_vEPKc
FN:2679,2731,_ZN7testing8internal35HandleExceptionsInMethodIfSupportedINS0_12UnitTestImplEbEET0_PT_MS4_FS3_vEPKc
FN:2679,2731,_ZN7testing8internal35HandleExceptionsInMethodIfSupportedINS0_15TestFactoryBaseEPNS_4TestEEET0_PT_MS6_FS5_vEPKc
FN:2679,2731,_ZN7testing8internal35HandleExceptionsInMethodIfSupportedINS_4TestEvEET0_PT_MS4_FS3_vEPKc
FN:2679,2731,_ZN7testing8internal35HandleExceptionsInMethodIfSupportedINS_9TestSuiteEvEET0_PT_MS4_FS3_vEPKc
FN:2736,2756,_ZN7testing4Test3RunEv
FN:2759,2761,_ZN7testing4Test15HasFatalFailureEv
FN:2764,2768,_ZN7testing4Test18HasNonfatalFailureEv
FN:2771,2773,_ZN7testing4Test9IsSkippedEv
FN:2779,2795,_ZN7testing8TestInfoC2ENSt7__cxx1112basic_stringIcSt11char_traitsIcESaIcEEES6_PKcS8_NS_8internal12CodeLocationEPKvPNS9_15TestFactoryBaseE
FN:2798,2798,_ZN7testing8TestInfoD2Ev
FN:2820,2830,_ZN7testing8internal23MakeAndRegisterTestInfoENSt7__cxx1112basic_stringIcSt11char_traitsIcESaIcEEEPKcS8_S8_NS0_12CodeLocationEPKvPFvvESD_PNS0_15TestFactoryBaseE
FN:2832,2848,_ZN7testing8internal26ReportInvalidTestSuiteTypeEPKcRKNS0_12CodeLocationE
FN:2853,2859,_ZN7testing8internal12UnitTestImpl26RegisterParameterizedTestsEv
FN:2865,2910,_ZN7testing8TestInfo3RunEv
FN:2913,2932,_ZN7testing8TestInfo4SkipEv
FN:2937,2939,_ZNK7testing9TestSuite21successful_test_countEv
FN:2942,2944,_ZNK7testing9TestSuite18skipped_test_countEv
FN:2947,2949,_ZNK7testing9TestSuite17failed_test_countEv
FN:2952,2954,_ZNK7testing9TestSuite30reportable_disabled_test_countEv
FN:2957,2959,_ZNK7testing9TestSuite19disabled_test_countEv
FN:2962,2964,_ZNK7testing9TestSuite21reportable_test_countEv
FN:2967,2969,_ZNK7testing9TestSuite17test_to_run_countEv
FN:2972,2974,_ZNK7testing9TestSuite16total_test_countEv
FN:2985,2994,_ZN7testing9TestSuiteC2ERKNSt7__cxx1112basic_stringIcSt11char_traitsIcESaIcEEEPKcPFvvESC_
FN:2997,3000,_ZN7testing9TestSuiteD0Ev
FN:2997,3000,_ZN7testing9TestSuiteD2Ev
FN:3004,3007,_ZNK7testing9TestSuite11GetTestInfoEi
FN:3011,3014,_ZN7testing9TestSuite18GetMutableTestInfoEi
FN:3018,3021,_ZN7testing9TestSuite11AddTestInfoEPNS_8TestInfoE
FN:3024,3094,_ZN7testing9TestSuite3RunEv
FN:3042,3048,_ZZN7testing9TestSuite3RunEvENKUlPKNS_8TestInfoES3_E_clES3_S3_
FN:3097,3123,_ZN7testing9TestSuite4SkipEv
FN:3126,3129,_ZN7testing9TestSuite11ClearResultEv
FN:3132,3134,_ZN7testing9TestSuite12ShuffleTestsEPNS_8internal6RandomE
FN:3137,3141,_ZN7testing9TestSuite14UnshuffleTestsEv
FN:3148,3152,_ZN7testingL19FormatCountableNounEiPKcS1_
FN:3155,3157,_ZN7testingL15FormatTestCountEi
FN:3160,3162,_ZN7testingL20FormatTestSuiteCountEi
FN:3168,3185,_ZN7testingL26TestPartResultTypeToStringENS_14TestPartResult4TypeE
FN:3193,3202,_ZN7testing8internalL27PrintTestPartResultToStringERKNS_14TestPartResultE
FN:3205,3220,_ZN7testing8internalL19PrintTestPartResultERKNS_14TestPartResultE
FN:3276,3288,_ZN7testing8internalL16GetAnsiColorCodeENS0_12_GLOBAL__N_110GTestColorE
FN:3293,3328,_ZN7testing8internal14ShouldUseColorEb
FN:3336,3381,_ZN7testing8internalL13ColoredPrintfENS0_12_GLOBAL__N_110GTestColorEPKcz
FN:3388,3402,_ZN7testing8internalL29PrintFullTestCommentIfPresentERKNS_8TestInfoE
FN:3409,3409,_ZN7testing8internal27PrettyUnitTestResultPrinterC2Ev
FN:3410,3412,_ZN7testing8internal27PrettyUnitTestResultPrinter13PrintTestNameEPKcS3_
FN:3415,3415,_ZN7testing8internal27PrettyUnitTestResultPrinter18OnTestProgramStartERKNS_8UnitTestE
FN:3418,3418,_ZN7testing8internal27PrettyUnitTestResultPrinter22OnEnvironmentsSetUpEndERKNS_8UnitTestE
FN:3437,3437,_ZN7testing8internal27PrettyUnitTestResultPrinter25OnEnvironmentsTearDownEndERKNS_8UnitTestE
FN:3439,3439,_ZN7testing8internal27PrettyUnitTestResultPrinter16OnTestProgramEndERKNS_8UnitTestE
FN:3448,3481,_ZN7testing8internal27PrettyUnitTestResultPrinter20OnTestIterationStartERKNS_8UnitTestEi
FN:3483,3488,_ZN7testing8internal27PrettyUnitTestResultPrinter24OnEnvironmentsSetUpStartERKNS_8UnitTestE
FN:3491,3502,_ZN7testing8internal27PrettyUnitTestResultPrinter15OnTestCaseStartERKNS_9TestSuiteE
FN:3519,3524,_ZN7testing8internal27PrettyUnitTestResultPrinter11OnTestStartERKNS_8TestInfoE
FN:3526,3531,_ZN7testing8internal27PrettyUnitTestResultPrinter14OnTestDisabledERKNS_8TestInfoE
FN:3534,3546,_ZN7testing8internal27PrettyUnitTestResultPrinter16OnTestPartResultERKNS_14TestPartResultE
FN:3548,3567,_ZN7testing8internal27PrettyUnitTestResultPrinter9OnTestEndERKNS_8TestInfoE
FN:3570,3579,_ZN7testing8internal27PrettyUnitTestResultPrinter13OnTestCaseEndERKNS_9TestSuiteE
FN:3593,3598,_ZN7testing8internal27PrettyUnitTestResultPrinter27OnEnvironmentsTearDownStartERKNS_8UnitTestE
FN:3601,3624,_ZN7testing8internal27PrettyUnitTestResultPrinter16PrintFailedTestsERKNS_8UnitTestE
FN:3628,3646,_ZN7testing8internal27PrettyUnitTestResultPrinter21PrintFailedTestSuitesERKNS_8UnitTestE
FN:3649,3670,_ZN7testing8internal27PrettyUnitTestResultPrinter17PrintSkippedTestsERKNS_8UnitTestE
FN:3672,3708,_ZN7testing8internal27PrettyUnitTestResultPrinter18OnTestIterationEndERKNS_8UnitTestEi
FN:3717,3717,_ZN7testing8internal26BriefUnitTestResultPrinterC2Ev
FN:3718,3720,_ZN7testing8internal26BriefUnitTestResultPrinter13PrintTestNameEPKcS3_
FN:3723,3723,_ZN7testing8internal26BriefUnitTestResultPrinter18OnTestProgramStartERKNS_8UnitTestE
FN:3724,3725,_ZN7testing8internal26BriefUnitTestResultPrinter20OnTestIterationStartERKNS_8UnitTestEi
FN:3726,3726,_ZN7testing8internal26BriefUnitTestResultPrinter24OnEnvironmentsSetUpStartERKNS_8UnitTestE
FN:3727,3727,_ZN7testing8internal26BriefUnitTestResultPrinter22OnEnvironmentsSetUpEndERKNS_8UnitTestE
FN:3729,3729,_ZN7testing8internal26BriefUnitTestResultPrinter15OnTestCaseStartERKNS_9TestSuiteE
FN:3734,3734,_ZN7testing8internal26BriefUnitTestResultPrinter11OnTestStartERKNS_8TestInfoE
FN:3735,3735,_ZN7testing8internal26BriefUnitTestResultPrinter14OnTestDisabledERKNS_8TestInfoE
FN:3740,3740,_ZN7testing8internal26BriefUnitTestResultPrinter13OnTestCaseEndERKNS_9TestSuiteE
FN:3745,3745,_ZN7testing8internal26BriefUnitTestResultPrinter27OnEnvironmentsTearDownStartERKNS_8UnitTestE
FN:3746,3746,_ZN7testing8internal26BriefUnitTestResultPrinter25OnEnvironmentsTearDownEndERKNS_8UnitTestE
FN:3748,3748,_ZN7testing8internal26BriefUnitTestResultPrinter16OnTestProgramEndERKNS_8UnitTestE
FN:3752,3764,_ZN7testing8internal26BriefUnitTestResultPrinter16OnTestPartResultERKNS_14TestPartResultE
FN:3766,3781,_ZN7testing8internal26BriefUnitTestResultPrinter9OnTestEndERKNS_8TestInfoE
FN:3783,3813,_ZN7testing8internal26BriefUnitTestResultPrinter18OnTestIterationEndERKNS_8UnitTestEi
FN:3822,3822,_ZN7testing8internal17TestEventRepeaterC2Ev
FN:3829,3829,_ZNK7testing8internal17TestEventRepeater18forwarding_enabledEv
FN:3830,3830,_ZN7testing8internal17TestEventRepeater22set_forwarding_enabledEb
FN:3866,3868,_ZN7testing8internal17TestEventRepeaterD0Ev
FN:3866,3868,_ZN7testing8internal17TestEventRepeaterD2Ev
FN:3870,3872,_ZN7testing8internal17TestEventRepeater6AppendEPNS_17TestEventListenerE
FN:3874,3883,_ZN7testing8internal17TestEventRepeater7ReleaseEPNS_17TestEventListenerE
FN:3906,3906,_ZN7testing8internal17TestEventRepeater18OnTestProgramStartERKNS_8UnitTestE
FN:3907,3907,_ZN7testing8internal17TestEventRepeater24OnEnvironmentsSetUpStartERKNS_8UnitTestE
FN:3910,3910,_ZN7testing8internal17TestEventRepeater15OnTestCaseStartERKNS_9TestSuiteE
FN:3912,3912,_ZN7testing8internal17TestEventRepeater16OnTestSuiteStartERKNS_9TestSuiteE
FN:3913,3913,_ZN7testing8internal17TestEventRepeater11OnTestStartERKNS_8TestInfoE
FN:3914,3914,_ZN7testing8internal17TestEventRepeater14OnTestDisabledERKNS_8TestInfoE
FN:3915,3915,_ZN7testing8internal17TestEventRepeater16OnTestPartResultERKNS_14TestPartResultE
FN:3916,3916,_ZN7testing8internal17TestEventRepeater27OnEnvironmentsTearDownStartERKNS_8UnitTestE
FN:3917,3917,_ZN7testing8internal17TestEventRepeater22OnEnvironmentsSetUpEndERKNS_8UnitTestE
FN:3918,3918,_ZN7testing8internal17TestEventRepeater25OnEnvironmentsTearDownEndERKNS_8UnitTestE
FN:3919,3919,_ZN7testing8internal17TestEventRepeater9OnTestEndERKNS_8TestInfoE
FN:3922,3922,_ZN7testing8internal17TestEventRepeater13OnTestCaseEndERKNS_9TestSuiteE
FN:3924,3924,_ZN7testing8internal17TestEventRepeater14OnTestSuiteEndERKNS_9TestSuiteE
FN:3925,3925,_ZN7testing8internal17TestEventRepeater16OnTestProgramEndERKNS_8UnitTestE
FN:3930,3937,_ZN7testing8internal17TestEventRepeater20OnTestIterationStartERKNS_8UnitTestEi
FN:3939,3946,_ZN7testing8internal17TestEventRepeater18OnTestIterationEndERKNS_8UnitTestEi
FN:3966,3968,_ZN7testing8internal24XmlUnitTestResultPrinter24IsNormalizableWhitespaceEh
FN:3972,3974,_ZN7testing8internal24XmlUnitTestResultPrinter19IsValidXmlCharacterEh
FN:3986,3988,_ZN7testing8internal24XmlUnitTestResultPrinter18EscapeXmlAttributeERKNSt7__cxx1112basic_stringIcSt11char_traitsIcESaIcEEE
FN:4048,4053,_ZN7testing8internal24XmlUnitTestResultPrinterC2EPKc
FN:4056,4063,_ZN7testing8internal24XmlUnitTestResultPrinter18OnTestIterationEndERKNS_8UnitTestEi
FN:4065,4072,_ZN7testing8internal24XmlUnitTestResultPrinter23ListTestsMatchingFilterERKSt6vectorIPNS_9TestSuiteESaIS4_EE
FN:4084,4126,_ZN7testing8internal24XmlUnitTestResultPrinter9EscapeXmlERKNSt7__cxx1112basic_stringIcSt11char_traitsIcESaIcEEEb
FN:4131,4140,_ZN7testing8internal24XmlUnitTestResultPrinter26RemoveInvalidXmlCharactersERKNSt7__cxx1112basic_stringIcSt11char_traitsIcESaIcEEE
FN:4159,4170,_ZN7testing8internal27FormatTimeInMillisAsSecondsB5cxx11El
FN:4172,4189,_ZN7testing8internalL17PortableLocaltimeElP2tm
FN:4193,4205,_ZN7testing8internal32FormatEpochTimeInMillisAsIso8601B5cxx11El
FN:4208,4225,_ZN7testing8internal24XmlUnitTestResultPrinter21OutputXmlCDataSectionEPSoPKc
FN:4227,4239,_ZN7testing8internal24XmlUnitTestResultPrinter18OutputXmlAttributeEPSoRKNSt7__cxx1112basic_stringIcSt11char_traitsIcESaIcEEESA_SA_
FN:423,437,_ZN7testing8internal6Random8GenerateEj
FN:4242,4263,_ZN7testing8internal24XmlUnitTestResultPrinter31OutputXmlTestSuiteForTestResultEPSoRKNS_10TestResultE
FN:4266,4282,_ZN7testing8internal24XmlUnitTestResultPrinter30OutputXmlTestCaseForTestResultEPSoRKNS_10TestResultE
FN:4285,4329,_ZN7testing8internal24XmlUnitTestResultPrinter17OutputXmlTestInfoEPSoPKcRKNS_8TestInfoE
FN:4331,4375,_ZN7testing8internal24XmlUnitTestResultPrinter19OutputXmlTestResultEPSoRKNS_10TestResultE
FN:4378,4414,_ZN7testing8internal24XmlUnitTestResultPrinter17PrintXmlTestSuiteEPSoRKNS_9TestSuiteE
FN:4417,4460,_ZN7testing8internal24XmlUnitTestResultPrinter16PrintXmlUnitTestEPSoRKNS_8UnitTestE
FN:442,442,_ZN7testing8internalL18GTestIsInitializedEv
FN:4462,4482,_ZN7testing8internal24XmlUnitTestResultPrinter17PrintXmlTestsListEPSoRKSt6vectorIPNS_9TestSuiteESaIS5_EE
FN:447,454,_ZN7testing8internalL20SumOverTestSuiteListERKSt6vectorIPNS_9TestSuiteESaIS3_EEMS2_KFivE
FN:4484,4502,_ZN7testing8internal24XmlUnitTestResultPrinter23OutputXmlTestPropertiesEPSoRKNS_10TestResultERKNSt7__cxx1112basic_stringIcSt11char_traitsIcESaIcEEE
FN:457,459,_ZN7testing8internalL15TestSuitePassedEPKNS_9TestSuiteE
FN:4577,4582,_ZN7testing8internal25JsonUnitTestResultPrinterC2EPKc
FN:4584,4591,_ZN7testing8internal25JsonUnitTestResultPrinter18OnTestIterationEndERKNS_8UnitTestEi
FN:4594,4631,_ZN7testing8internal25JsonUnitTestResultPrinter10EscapeJsonERKNSt7__cxx1112basic_stringIcSt11char_traitsIcESaIcEEE
FN:462,464,_ZN7testing8internalL15TestSuiteFailedEPKNS_9TestSuiteE
FN:4637,4641,_ZN7testing8internalL28FormatTimeInMillisAsDurationEl
FN:4645,4656,_ZN7testing8internalL32FormatEpochTimeInMillisAsRFC3339El
FN:4658,4660,_ZN7testing8internalL6IndentEm
FN:4662,4678,_ZN7testing8internal25JsonUnitTestResultPrinter13OutputJsonKeyEPSoRKNSt7__cxx1112basic_stringIcSt11char_traitsIcESaIcEEESA_SA_SA_b
FN:468,470,_ZN7testing8internalL18ShouldRunTestSuiteEPKNS_9TestSuiteE
FN:4680,4693,_ZN7testing8internal25JsonUnitTestResultPrinter13OutputJsonKeyEPSoRKNSt7__cxx1112basic_stringIcSt11char_traitsIcESaIcEEESA_iSA_b
FN:4696,4720,_ZN7testing8internal25JsonUnitTestResultPrinter32OutputJsonTestSuiteForTestResultEPSoRKNS_10TestResultE
FN:4723,4741,_ZN7testing8internal25JsonUnitTestResultPrinter31OutputJsonTestCaseForTestResultEPSoRKNS_10TestResultE
FN:4744,4789,_ZN7testing8internal25JsonUnitTestResultPrinter18OutputJsonTestInfoEPSoPKcRKNS_8TestInfoE
FN:476,481,_ZN7testing8internal12_GLOBAL__N_133ShouldEmitStackTraceForResultTypeENS_14TestPartResult4TypeE
FN:4791,4843,_ZN7testing8internal25JsonUnitTestResultPrinter20OutputJsonTestResultEPSoRKNS_10TestResultE
FN:4846,4896,_ZN7testing8internal25JsonUnitTestResultPrinter18PrintJsonTestSuiteEPSoRKNS_9TestSuiteE
FN:486,488,_ZN7testing8internal12AssertHelperC2ENS_14TestPartResult4TypeEPKciS5_
FN:4899,4953,_ZN7testing8internal25JsonUnitTestResultPrinter17PrintJsonUnitTestEPSoRKNS_8UnitTestE
FN:490,490,_ZN7testing8internal12AssertHelperD2Ev
FN:493,502,_ZNK7testing8internal12AssertHelperaSERKNS_7MessageE
FN:4955,4979,_ZN7testing8internal25JsonUnitTestResultPrinter17PrintJsonTestListEPSoRKSt6vectorIPNS_9TestSuiteESaIS5_EE
FN:4982,4992,_ZN7testing8internal25JsonUnitTestResultPrinter20TestPropertiesAsJsonERKNS_10TestResultERKNSt7__cxx1112basic_stringIcSt11char_traitsIcESaIcEEE
FN:5004,5022,_ZN7testing8internal17StreamingListener9UrlEncodeB5cxx11EPKc
FN:5024,5063,_ZN7testing8internal17StreamingListener12SocketWriter14MakeConnectionEv
FN:5073,5121,_ZN7testing8internal18OsStackTraceGetter17CurrentStackTraceB5cxx11Eii
FN:5123,5133,_ZN7testing8internal18OsStackTraceGetter16UponLeavingGTestEv
FN:5140,5152,_ZN7testing8internal23ScopedPrematureExitFileC2EPKc
FN:5154,5165,_ZN7testing8internal23ScopedPrematureExitFileD2Ev
FN:517,521,_ZN7testing8internal12_GLOBAL__N_111FailureTestC2ERKNS0_12CodeLocationENSt7__cxx1112basic_stringIcSt11char_traitsIcESaIcEEEb
FN:5179,5182,_ZN7testing18TestEventListenersC2Ev
FN:5184,5184,_ZN7testing18TestEventListenersD2Ev
FN:5190,5192,_ZN7testing18TestEventListeners6AppendEPNS_17TestEventListenerE
FN:5197,5203,_ZN7testing18TestEventListeners7ReleaseEPNS_17TestEventListenerE
FN:5207,5207,_ZN7testing18TestEventListeners8repeaterEv
FN:5214,5222,_ZN7testing18TestEventListeners23SetDefaultResultPrinterEPNS_17TestEventListenerE
FN:5229,5237,_ZN7testing18TestEventListeners22SetDefaultXmlGeneratorEPNS_17TestEventListenerE
FN:523,530,_ZN7testing8internal12_GLOBAL__N_111FailureTest8TestBodyEv
FN:5241,5243,_ZNK7testing18TestEventListeners22EventForwardingEnabledEv
FN:5245,5247,_ZN7testing18TestEventListeners23SuppressEventForwardingEb
FN:5258,5270,_ZN7testing8UnitTest11GetInstanceEv
FN:5273,5275,_ZNK7testing8UnitTest27successful_test_suite_countEv
FN:5278,5280,_ZNK7testing8UnitTest23failed_test_suite_countEv
FN:5283,5285,_ZNK7testing8UnitTest22total_test_suite_countEv
FN:5289,5291,_ZNK7testing8UnitTest23test_suite_to_run_countEv
FN:5295,5297,_ZNK7testing8UnitTest26successful_test_case_countEv
FN:5298,5300,_ZNK7testing8UnitTest22failed_test_case_countEv
FN:5301,5303,_ZNK7testing8UnitTest21total_test_case_countEv
FN:5304,5306,_ZNK7testing8UnitTest22test_case_to_run_countEv
FN:5310,5312,_ZNK7testing8UnitTest21successful_test_countEv
FN:5315,5317,_ZNK7testing8UnitTest18skipped_test_countEv
FN:5320,5320,_ZNK7testing8UnitTest17failed_test_countEv
FN:5323,5325,_ZNK7testing8UnitTest30reportable_disabled_test_countEv
FN:5328,5330,_ZNK7testing8UnitTest19disabled_test_countEv
FN:5333,5335,_ZNK7testing8UnitTest21reportable_test_countEv
FN:5338,5338,_ZNK7testing8UnitTest16total_test_countEv
FN:5341,5341,_ZNK7testing8UnitTest17test_to_run_countEv
FN:5345,5347,_ZNK7testing8UnitTest15start_timestampEv
FN:5350,5352,_ZNK7testing8UnitTest12elapsed_timeEv
FN:5356,5356,_ZNK7testing8UnitTest6PassedEv
FN:5360,5360,_ZNK7testing8UnitTest6FailedEv
FN:5364,5366,_ZNK7testing8UnitTest12GetTestSuiteEi
FN:5370,5372,_ZNK7testing8UnitTest11GetTestCaseEi
FN:5377,5379,_ZNK7testing8UnitTest18ad_hoc_test_resultEv
FN:5383,5385,_ZN7testing8UnitTest19GetMutableTestSuiteEi
FN:5387,5389,_ZN7testing8UnitTest16UponLeavingGTestEv
FN:5392,5395,_ZN7testing8UnitTest22set_current_test_suiteEPNS_9TestSuiteE
FN:5398,5401,_ZN7testing8UnitTest21set_current_test_infoEPNS_8TestInfoE
FN:540,542,_ZN7testing8internal33GetIgnoredParameterizedTestSuitesB5cxx11Ev
FN:5405,5405,_ZN7testing8UnitTest9listenersEv
FN:5417,5424,_ZN7testing8UnitTest14AddEnvironmentEPNS_11EnvironmentE
FN:5430,5500,_ZN7testing8UnitTest17AddTestPartResultENS_14TestPartResult4TypeEPKciRKNSt7__cxx1112basic_stringIcSt11char_traitsIcESaIcEEESC_
FN:545,547,_ZN7testing8internal13MarkAsIgnoredC2EPKc
FN:5507,5510,_ZN7testing8UnitTest14RecordPropertyERKNSt7__cxx1112basic_stringIcSt11char_traitsIcESaIcEEES8_
FN:551,594,_ZN7testing8internal23InsertSyntheticTestCaseERKNSt7__cxx1112basic_stringIcSt11char_traitsIcESaIcEEENS0_12CodeLocationEb
FN:5517,5607,_ZN7testing8UnitTest3RunEv
FN:5612,5614,_ZNK7testing8UnitTest20original_working_dirEv
FN:5619,5623,_ZNK7testing8UnitTest18current_test_suiteEv
FN:5627,5631,_ZNK7testing8UnitTest17current_test_caseEv
FN:5636,5640,_ZNK7testing8UnitTest17current_test_infoEv
FN:5643,5643,_ZNK7testing8UnitTest11random_seedEv
FN:5648,5650,_ZN7testing8UnitTest27parameterized_test_registryEv
FN:5653,5653,_ZN7testing8UnitTestC2Ev
FN:5656,5656,_ZN7testing8UnitTestD0Ev
FN:5656,5656,_ZN7testing8UnitTestD2Ev
FN:5660,5664,_ZN7testing8UnitTest14PushGTestTraceERKNS_8internal9TraceInfoE
FN:5667,5670,_ZN7testing8UnitTest13PopGTestTraceEv
FN:5674,5701,_ZN7testing8internal12UnitTestImplC2EPNS_8UnitTestE
FN:5703,5711,_ZN7testing8internal12UnitTestImplD0Ev
FN:5703,5711,_ZN7testing8internal12UnitTestImplD2Ev
FN:5718,5733,_ZN7testing8internal12UnitTestImpl14RecordPropertyERKNS_12TestPropertyE
FN:5738,5741,_ZN7testing8internal12UnitTestImpl32SuppressTestEventsIfInSubprocessEv
FN:5746,5765,_ZN7testing8internal12UnitTestImpl18ConfigureXmlOutputEv
FN:5770,5782,_ZN7testing8internal12UnitTestImpl24ConfigureStreamingOutputEv
FN:5790,5830,_ZN7testing8internal12UnitTestImpl19PostFlagParsingInitEv
FN:5844,5884,_ZN7testing8internal12UnitTestImpl12GetTestSuiteERKNSt7__cxx1112basic_stringIcSt11char_traitsIcESaIcEEEPKcPFvvESD_
FN:5888,5888,_ZN7testing8internalL16SetUpEnvironmentEPNS_11EnvironmentE
FN:5889,5889,_ZN7testing8internalL19TearDownEnvironmentEPNS_11EnvironmentE
FN:5894,5905,_ZN7testing8internalL30AppendToTestWarningsOutputFileERKNSt7__cxx1112basic_stringIcSt11char_traitsIcESaIcEEE
FN:590,593,_ZZN7testing8internal23InsertSyntheticTestCaseERKNSt7__cxx1112basic_stringIcSt11char_traitsIcESaIcEEENS0_12CodeLocationEbENKUlvE_clEv
FN:5917,6160,_ZN7testing8internal12UnitTestImpl11RunAllTestsEv
FN:596,600,_ZN7testing8internal34RegisterTypeParameterizedTestSuiteEPKcNS0_12CodeLocationE
FN:602,605,_ZN7testing8internal47RegisterTypeParameterizedTestSuiteInstantiationEPKc
FN:607,611,_ZN7testing8internal34TypeParameterizedTestSuiteRegistry17RegisterTestSuiteEPKcNS0_12CodeLocationE
FN:613,622,_ZN7testing8internal34TypeParameterizedTestSuiteRegistry21RegisterInstantiationEPKc
FN:6167,6181,_ZN7testing8internal30WriteToShardStatusFileIfNeededEv
FN:6190,6229,_ZN7testing8internal11ShouldShardEPKcS2_b
FN:6234,6246,_ZN7testing8internal17Int32FromEnvOrDieEPKci
FN:624,660,_ZN7testing8internal34TypeParameterizedTestSuiteRegistry22CheckForInstantiationsEv
FN:6252,6254,_ZN7testing8internal20ShouldRunTestOnShardEiii
FN:6263,6315,_ZN7testing8internal12UnitTestImpl11FilterTestsENS1_18ReactionToShardingE
FN:6321,6339,_ZNK7testing8internal12UnitTestImpl30ShouldWarnIfNoTestsMatchFilterEv
FN:6345,6361,_ZN7testing8internalL14PrintOnOneLineEPKci
FN:6364,6416,_ZN7testing8internal12UnitTestImpl23ListTestsMatchingFilterEv
FN:6423,6429,_ZN7testing8internal12UnitTestImpl25set_os_stack_trace_getterEPNS0_27OsStackTraceGetterInterfaceE
FN:6434,6444,_ZN7testing8internal12UnitTestImpl21os_stack_trace_getterEv
FN:6447,6455,_ZN7testing8internal12UnitTestImpl19current_test_resultEv
FN:6459,6471,_ZN7testing8internal12UnitTestImpl12ShuffleTestsEv
FN:6474,6481,_ZN7testing8internal12UnitTestImpl14UnshuffleTestsEv
FN:6494,6498,_ZN7testing8internal31GetCurrentOsStackTraceExceptTopB5cxx11Ei
FN:6506,6506,_ZN7testing8internal6IsTrueEb
FN:6508,6515,_ZN7testing8internal10AlwaysTrueEv
FN:6520,6527,_ZN7testing8internal10SkipPrefixEPKcPS2_
FN:6534,6560,_ZN7testing8internalL14ParseFlagValueEPKcS2_b
FN:655,658,_ZZN7testing8internal34TypeParameterizedTestSuiteRegistry22CheckForInstantiationsEvENKUlvE_clEv
FN:6572,6582,_ZN7testing8internalL9ParseFlagEPKcS2_Pb
FN:6588,6598,_ZN7testing8internal9ParseFlagEPKcS2_Pi
FN:6605,6615,_ZN7testing8internalL9ParseFlagINSt7__cxx1112basic_stringIcSt11char_traitsIcESaIcEEEEEbPKcS9_PT_
FN:6623,6629,_ZN7testing8internalL23HasGoogleTestFlagPrefixEPKc
FN:6640,6672,_ZN7testing8internalL17PrintColorEncodedEPKc
FN:665,674,_ZN7testing8internal8GetArgvsB5cxx11Ev
FN:6770,6804,_ZN7testing8internalL19ParseGoogleTestFlagEPKc
FN:679,692,_ZN7testing8internal24GetCurrentExecutableNameEv
FN:6807,6821,_ZN7testing8internalL17LoadFlagsFromFileERKNSt7__cxx1112basic_stringIcSt11char_traitsIcESaIcEEE
FN:6828,6875,_ZN7testing8internal28ParseGoogleTestFlagsOnlyImplIcEEvPiPPT_
FN:6828,6875,_ZN7testing8internal28ParseGoogleTestFlagsOnlyImplIwEEvPiPPT_
FN:6883,6946,_ZN7testing8internal24ParseGoogleTestFlagsOnlyEPiPPc
FN:6947,6949,_ZN7testing8internal24ParseGoogleTestFlagsOnlyEPiPPw
FN:6956,6981,_ZN7testing8internal18InitGoogleTestImplIcEEvPiPPT_
FN:6956,6981,_ZN7testing8internal18InitGoogleTestImplIwEEvPiPPT_
FN:698,706,_ZN7testing8internal15UnitTestOptions15GetOutputFormatB5cxx11Ev
FN:6994,7000,_ZN7testing14InitGoogleTestEPiPPc
FN:7004,7010,_ZN7testing14InitGoogleTestEPiPPw
FN:7014,7026,_ZN7testing14InitGoogleTestEv
FN:7034,7047,_ZN7testingL13GetDirFromEnvESt16initializer_listIPKcES2_c
FN:7050,7060,_ZN7testing7TempDirB5cxx11Ev
FN:7065,7068,_ZN7testingL29GetCurrentExecutableDirectoryEv
FN:7072,7085,_ZN7testing6SrcDirB5cxx11Ev
FN:7092,7099,_ZN7testing11ScopedTrace9PushTraceEPKciNSt7__cxx1112basic_stringIcSt11char_traitsIcESaIcEEE
FN:7102,7104,_ZN7testing11ScopedTraceD2Ev
FN:711,738,_ZN7testing8internal15UnitTestOptions27GetAbsolutePathToOutputFileB5cxx11Ev
FN:747,792,_ZN7testing8internalL20PatternMatchesStringERKNSt7__cxx1112basic_stringIcSt11char_traitsIcESaIcEEEPKcSA_
FN:796,799,_ZN7testing8internal12_GLOBAL__N_113IsGlobPatternERKNSt7__cxx1112basic_stringIcSt11char_traitsIcESaIcEEE
FN:798,798,_ZZN7testing8internal12_GLOBAL__N_113IsGlobPatternERKNSt7__cxx1112basic_stringIcSt11char_traitsIcESaIcEEEENKUlcE_clEc
FN:803,803,_ZN7testing8internal12_GLOBAL__N_114UnitTestFilterC2Ev
FN:806,820,_ZN7testing8internal12_GLOBAL__N_114UnitTestFilterC2ERKNSt7__cxx1112basic_stringIcSt11char_traitsIcESaIcEEE
FN:824,832,_ZNK7testing8internal12_GLOBAL__N_114UnitTestFilter11MatchesNameERKNSt7__cxx1112basic_stringIcSt11char_traitsIcESaIcEEE
FN:827,831,_ZZNK7testing8internal12_GLOBAL__N_114UnitTestFilter11MatchesNameERKNSt7__cxx1112basic_stringIcSt11char_traitsIcESaIcEEEENKUlSA_E_clESA_
FN:846,871,_ZN7testing8internal12_GLOBAL__N_133PositiveAndNegativeUnitTestFilterC2ERKNSt7__cxx1112basic_stringIcSt11char_traitsIcESaIcEEE
FN:876,879,_ZNK7testing8internal12_GLOBAL__N_133PositiveAndNegativeUnitTestFilter11MatchesTestERKNSt7__cxx1112basic_stringIcSt11char_traitsIcESaIcEEESA_
FN:883,886,_ZNK7testing8internal12_GLOBAL__N_133PositiveAndNegativeUnitTestFilter11MatchesNameERKNSt7__cxx1112basic_stringIcSt11char_traitsIcESaIcEEE
FN:894,897,_ZN7testing8internal15UnitTestOptions13MatchesFilterERKNSt7__cxx1112basic_stringIcSt11char_traitsIcESaIcEEEPKc
FN:901,907,_ZN7testing8internal15UnitTestOptions17FilterMatchesTestERKNSt7__cxx1112basic_stringIcSt11char_traitsIcESaIcEEES9_
FN:951,955,_ZN7testing32ScopedFakeTestPartResultReporterC2EPNS_19TestPartResultArrayE
FN:960,964,_ZN7testing32ScopedFakeTestPartResultReporterC2ENS0_13InterceptModeEPNS_19TestPartResultArrayE
FN:966,975,_ZN7testing32ScopedFakeTestPartResultReporter4InitEv
FN:979,986,_ZN7testing32ScopedFakeTestPartResultReporterD0Ev
FN:979,986,_ZN7testing32ScopedFakeTestPartResultReporterD2Ev
FN:990,993,_ZN7testing32ScopedFakeTestPartResultReporter20ReportTestPartResultERKNS_14TestPartResultE
FNDA:8,_ZN7testing8internal13GetTestTypeIdEv
FNDA:0,_ZN7testing8internalL13HasOneFailureEPKcS2_S2_RKNS_19TestPartResultArrayENS_14TestPartResult4TypeERKNSt7__cxx1112basic_stringIcSt11char_traitsIcESaIcEEE
FNDA:0,_ZN7testing8internal20SingleFailureCheckerC2EPKNS_19TestPartResultArrayENS_14TestPartResult4TypeERKNSt7__cxx1112basic_stringIcSt11char_traitsIcESaIcEEE
FNDA:0,_ZN7testing8internal20SingleFailureCheckerD2Ev
FNDA:1,_ZN7testing8internal35DefaultGlobalTestPartResultReporterC2EPNS0_12UnitTestImplE
FNDA:2,_ZN7testing8internal35DefaultGlobalTestPartResultReporter20ReportTestPartResultERKNS_14TestPartResultE
FNDA:1,_ZN7testing8internal38DefaultPerThreadTestPartResultReporterC2EPNS0_12UnitTestImplE
FNDA:2,_ZN7testing8internal38DefaultPerThreadTestPartResultReporter20ReportTestPartResultERKNS_14TestPartResultE
FNDA:2,_ZN7testing8internal12UnitTestImpl31GetGlobalTestPartResultReporterEv
FNDA:0,_ZN7testing8internal12UnitTestImpl31SetGlobalTestPartResultReporterEPNS_31TestPartResultReporterInterfaceE
FNDA:2,_ZN7testing8internal12UnitTestImpl41GetTestPartResultReporterForCurrentThreadEv
FNDA:0,_ZN7testing8internal12UnitTestImpl41SetTestPartResultReporterForCurrentThreadEPNS_31TestPartResultReporterInterfaceE
FNDA:0,_ZNK7testing8internal12UnitTestImpl27successful_test_suite_countEv
FNDA:2,_ZNK7testing8internal12UnitTestImpl23failed_test_suite_countEv
FNDA:24,_ZNK7testing8internal12UnitTestImpl22total_test_suite_countEv
FNDA:2,_ZNK7testing8internal12UnitTestImpl23test_suite_to_run_countEv
FNDA:1,_ZNK7testing8internal12UnitTestImpl21successful_test_countEv
FNDA:1,_ZNK7testing8internal12UnitTestImpl18skipped_test_countEv
FNDA:1,_ZNK7testing8internal12UnitTestImpl17failed_test_countEv
FNDA:1,_ZNK7testing8internal12UnitTestImpl30reportable_disabled_test_countEv
FNDA:0,_ZNK7testing8internal12UnitTestImpl19disabled_test_countEv
FNDA:0,_ZNK7testing8internal12UnitTestImpl21reportable_test_countEv
FNDA:2,_ZNK7testing8internal12UnitTestImpl16total_test_countEv
FNDA:2,_ZNK7testing8internal12UnitTestImpl17test_to_run_countEv
FNDA:2,_ZN7testing8internal12UnitTestImpl28CurrentOsStackTraceExceptTopB5cxx11Ei
FNDA:15,_ZN7testing8internal5TimerC2Ev
FNDA:15,_ZN7testing8internal5Timer7ElapsedEv
FNDA:16,_ZN7testing8internal15GetTimeInMillisEv
FNDA:11,_ZN7testing8internal6String13CStringEqualsEPKcS3_
FNDA:0,_ZN7testing8internalL24StreamWideCharsToMessageEPKwmPNS_7MessageE
FNDA:12,_ZN7testing8internal11SplitStringERKNSt7__cxx1112basic_stringIcSt11char_traitsIcESaIcEEEcPSt6vectorIS6_SaIS6_EE
FNDA:94,_ZN7testing7MessageC2Ev
FNDA:0,_ZN7testing7MessagelsEPKw
FNDA:0,_ZN7testing7MessagelsEPw
FNDA:0,_ZN7testing7MessagelsERKNSt7__cxx1112basic_stringIwSt11char_traitsIwESaIwEEE
FNDA:94,_ZNK7testing7Message9GetStringB5cxx11Ev
FNDA:0,_ZN7testing8internal13edit_distance21CalculateOptimalEditsERKSt6vectorImSaImEES6_
FNDA:0,_ZN7testing8internal13edit_distance12_GLOBAL__N_115InternalStrings5GetIdERKNSt7__cxx1112basic_stringIcSt11char_traitsIcESaIcEEE
FNDA:0,_ZN7testing8internal13edit_distance21CalculateOptimalEditsERKSt6vectorINSt7__cxx1112basic_stringIcSt11char_traitsIcESaIcEEESaIS8_EESC_
FNDA:0,_ZN7testing8internal13edit_distance12_GLOBAL__N_14HunkC2Emm
FNDA:0,_ZN7testing8internal13edit_distance12_GLOBAL__N_14Hunk8PushLineEcPKc
FNDA:0,_ZN7testing8internal13edit_distance12_GLOBAL__N_14Hunk7PrintToEPSo
FNDA:0,_ZNK7testing8internal13edit_distance12_GLOBAL__N_14Hunk9has_editsEv
FNDA:0,_ZN7testing8internal13edit_distance12_GLOBAL__N_14Hunk10FlushEditsEv
FNDA:0,_ZNK7testing8internal13edit_distance12_GLOBAL__N_14Hunk11PrintHeaderEPSo
FNDA:0,_ZN7testing8internal13edit_distance17CreateUnifiedDiffERKSt6vectorINSt7__cxx1112basic_stringIcSt11char_traitsIcESaIcEEESaIS8_EESC_m
FNDA:4,_ZN7testing8internal12_GLOBAL__N_118SplitEscapedStringERKNSt7__cxx1112basic_stringIcSt11char_traitsIcESaIcEEE
FNDA:2,_ZN7testing8internal9EqFailureEPKcS2_RKNSt7__cxx1112basic_stringIcSt11char_traitsIcESaIcEEESA_b
FNDA:0,_ZN7testing8internal30GetBoolAssertionFailureMessageB5cxx11ERKNS_15AssertionResultEPKcS5_S5_
FNDA:0,_ZN7testing8internal20DoubleNearPredFormatEPKcS2_S2_ddd
FNDA:0,_ZN7testing8internal15FloatingPointLEIdEENS_15AssertionResultEPKcS4_T_S5_
FNDA:0,_ZN7testing8internal15FloatingPointLEIfEENS_15AssertionResultEPKcS4_T_S5_
FNDA:0,_ZN7testing7FloatLEEPKcS1_ff
FNDA:0,_ZN7testing8DoubleLEEPKcS1_dd
FNDA:0,_ZN7testing8internal14CmpHelperSTREQEPKcS2_S2_S2_
FNDA:0,_ZN7testing8internal18CmpHelperSTRCASEEQEPKcS2_S2_S2_
FNDA:0,_ZN7testing8internal14CmpHelperSTRNEEPKcS2_S2_S2_
FNDA:0,_ZN7testing8internal18CmpHelperSTRCASENEEPKcS2_S2_S2_
FNDA:0,_ZN7testing12_GLOBAL__N_115IsSubstringPredEPKcS2_
FNDA:0,_ZN7testing12_GLOBAL__N_115IsSubstringPredEPKwS2_
FNDA:0,_ZN7testing12_GLOBAL__N_115IsSubstringPredINSt7__cxx1112basic_stringIcSt11char_traitsIcESaIcEEEEEbRKT_SA_
FNDA:0,_ZN7testing12_GLOBAL__N_115IsSubstringPredINSt7__cxx1112basic_stringIwSt11char_traitsIwESaIwEEEEEbRKT_SA_
FNDA:0,_ZN7testing12_GLOBAL__N_115IsSubstringImplINSt7__cxx1112basic_stringIcSt11char_traitsIcESaIcEEEEENS_15AssertionResultEbPKcSA_RKT_SD_
FNDA:0,_ZN7testing12_GLOBAL__N_115IsSubstringImplINSt7__cxx1112basic_stringIwSt11char_traitsIwESaIwEEEEENS_15AssertionResultEbPKcSA_RKT_SD_
FNDA:0,_ZN7testing12_GLOBAL__N_115IsSubstringImplIPKcEENS_15AssertionResultEbS3_S3_RKT_S7_
FNDA:0,_ZN7testing12_GLOBAL__N_115IsSubstringImplIPKwEENS_15AssertionResultEbPKcS6_RKT_S9_
FNDA:0,_ZN7testing11IsSubstringEPKcS1_S1_S1_
FNDA:0,_ZN7testing11IsSubstringEPKcS1_PKwS3_
FNDA:0,_ZN7testing14IsNotSubstringEPKcS1_S1_S1_
FNDA:0,_ZN7testing14IsNotSubstringEPKcS1_PKwS3_
FNDA:0,_ZN7testing11IsSubstringEPKcS1_RKNSt7__cxx1112basic_stringIcSt11char_traitsIcESaIcEEES9_
FNDA:0,_ZN7testing14IsNotSubstringEPKcS1_RKNSt7__cxx1112basic_stringIcSt11char_traitsIcESaIcEEES9_
FNDA:0,_ZN7testing11IsSubstringEPKcS1_RKNSt7__cxx1112basic_stringIwSt11char_traitsIwESaIwEEES9_
FNDA:0,_ZN7testing14IsNotSubstringEPKcS1_RKNSt7__cxx1112basic_stringIwSt11char_traitsIwESaIwEEES9_
FNDA:0,_ZN7testing8internal11ChopLowBitsEPji
FNDA:0,_ZN7testing8internal15CodePointToUtf8B5cxx11Ej
FNDA:0,_ZN7testing8internal20IsUtf16SurrogatePairEww
FNDA:0,_ZN7testing8internal37CreateCodePointFromUtf16SurrogatePairEww
FNDA:0,_ZN7testing8internal16WideStringToUtf8B5cxx11EPKwi
FNDA:0,_ZN7testing8internal6String15ShowWideCStringB5cxx11EPKw
FNDA:0,_ZN7testing8internal6String17WideCStringEqualsEPKwS3_
FNDA:0,_ZN7testing8internal14CmpHelperSTREQEPKcS2_PKwS4_
FNDA:0,_ZN7testing8internal14CmpHelperSTRNEEPKcS2_PKwS4_
FNDA:0,_ZN7testing8internalL18OpenFileForWritingERKNSt7__cxx1112basic_stringIcSt11char_traitsIcESaIcEEE
FNDA:2,_ZN7testing8internal6String28CaseInsensitiveCStringEqualsEPKcS3_
FNDA:0,_ZN7testing8internal6String32CaseInsensitiveWideCStringEqualsEPKwS3_
FNDA:1,_ZN7testing8internal6String23EndsWithCaseInsensitiveERKNSt7__cxx1112basic_stringIcSt11char_traitsIcESaIcEEES9_
FNDA:0,_ZN7testing8internal6String15FormatIntWidth2B5cxx11Ei
FNDA:0,_ZN7testing8internal6String15FormatIntWidthNB5cxx11Eii
FNDA:0,_ZN7testing8internal6String15FormatHexUInt32B5cxx11Ej
FNDA:0,_ZN7testing8internal6String12FormatHexIntB5cxx11Ei
FNDA:0,_ZN7testing8internal6String10FormatByteB5cxx11Eh
FNDA:94,_ZN7testing8internal20StringStreamToStringEPNSt7__cxx1118basic_stringstreamIcSt11char_traitsIcESaIcEEE
FNDA:2,_ZN7testing8internal17AppendUserMessageERKNSt7__cxx1112basic_stringIcSt11char_traitsIcESaIcEEERKNS_7MessageE
FNDA:15,_ZN7testing10TestResultC2Ev
FNDA:15,_ZN7testing10TestResultD2Ev
FNDA:12,_ZNK7testing10TestResult17GetTestPartResultEi
FNDA:0,_ZNK7testing10TestResult15GetTestPropertyEi
FNDA:0,_ZN7testing10TestResult20ClearTestPartResultsEv
FNDA:2,_ZN7testing10TestResult17AddTestPartResultERKNS_14TestPartResultE
FNDA:0,_ZN7testing10TestResult14RecordPropertyERKNSt7__cxx1112basic_stringIcSt11char_traitsIcESaIcEEERKNS_12TestPropertyE
FNDA:1,_ZN7testingL16GetDefaultFilterEv
FNDA:0,_ZN7testing13ArrayAsVectorILm10EEESt6vectorINSt7__cxx1112basic_stringIcSt11char_traitsIcESaIcEEESaIS7_EERAT__KPKc
FNDA:0,_ZN7testing13ArrayAsVectorILm8EEESt6vectorINSt7__cxx1112basic_stringIcSt11char_traitsIcESaIcEEESaIS7_EERAT__KPKc
FNDA:0,_ZN7testingL31GetReservedAttributesForElementERKNSt7__cxx1112basic_stringIcSt11char_traitsIcESaIcEEE
FNDA:0,_ZN7testingL37GetReservedOutputAttributesForElementERKNSt7__cxx1112basic_stringIcSt11char_traitsIcESaIcEEE
FNDA:0,_ZN7testingL14FormatWordListERKSt6vectorINSt7__cxx1112basic_stringIcSt11char_traitsIcESaIcEEESaIS6_EE
FNDA:0,_ZN7testingL24ValidateTestPropertyNameERKNSt7__cxx1112basic_stringIcSt11char_traitsIcESaIcEEERKSt6vectorIS5_SaIS5_EE
FNDA:0,_ZN7testing10TestResult20ValidateTestPropertyERKNSt7__cxx1112basic_stringIcSt11char_traitsIcESaIcEEERKNS_12TestPropertyE
FNDA:14,_ZN7testing10TestResult5ClearEv
FNDA:0,_ZN7testingL15TestPartSkippedERKNS_14TestPartResultE
FNDA:44,_ZNK7testing10TestResult7SkippedEv
FNDA:120,_ZNK7testing10TestResult6FailedEv
FNDA:0,_ZN7testingL21TestPartFatallyFailedERKNS_14TestPartResultE
FNDA:1,_ZN7testingL18GetDefaultFailFastEv
FNDA:15,_ZNK7testing10TestResult15HasFatalFailureEv
FNDA:0,_ZN7testingL24TestPartNonfatallyFailedERKNS_14TestPartResultE
FNDA:0,_ZNK7testing10TestResult18HasNonfatalFailureEv
FNDA:132,_ZNK7testing10TestResult16total_part_countEv
FNDA:0,_ZNK7testing10TestResult19test_property_countEv
FNDA:7,_ZN7testing4TestC2Ev
FNDA:0,_ZN7testing4TestD0Ev
FNDA:7,_ZN7testing4TestD2Ev
FNDA:7,_ZN7testing4Test5SetUpEv
FNDA:7,_ZN7testing4Test8TearDownEv
FNDA:0,_ZN7testing4Test14RecordPropertyERKNSt7__cxx1112basic_stringIcSt11char_traitsIcESaIcEEES8_
FNDA:0,_ZN7testing8internal30ReportFailureInUnknownLocationENS_14TestPartResult4TypeERKNSt7__cxx1112basic_stringIcSt11char_traitsIcESaIcEEE
FNDA:7,_ZN7testing4Test19HasSameFixtureClassEv
FNDA:0,_ZN7testing8internalL25FormatCxxExceptionMessageEPKcS2_
FNDA:0,_ZN7testing8internal26GoogleTestFailureExceptionC2ERKNS_14TestPartResultE
FNDA:1,_ZN7testing8internal38HandleSehExceptionsInMethodIfSupportedINS0_12UnitTestImplEbEET0_PT_MS4_FS3_vEPKc
FNDA:7,_ZN7testing8internal38HandleSehExceptionsInMethodIfSupportedINS0_15TestFactoryBaseEPNS_4TestEEET0_PT_MS6_FS5_vEPKc
FNDA:28,_ZN7testing8internal38HandleSehExceptionsInMethodIfSupportedINS_4TestEvEET0_PT_MS4_FS3_vEPKc
FNDA:14,_ZN7testing8internal38HandleSehExceptionsInMethodIfSupportedINS_9TestSuiteEvEET0_PT_MS4_FS3_vEPKc
FNDA:1,_ZN7testing8internal35HandleExceptionsInMethodIfSupportedINS0_12UnitTestImplEbEET0_PT_MS4_FS3_vEPKc
FNDA:7,_ZN7testing8internal35HandleExceptionsInMethodIfSupportedINS0_15TestFactoryBaseEPNS_4TestEEET0_PT_MS6_FS5_vEPKc
FNDA:28,_ZN7testing8internal35HandleExceptionsInMethodIfSupportedINS_4TestEvEET0_PT_MS4_FS3_vEPKc
FNDA:14,_ZN7testing8internal35HandleExceptionsInMethodIfSupportedINS_9TestSuiteEvEET0_PT_MS4_FS3_vEPKc
FNDA:7,_ZN7testing4Test3RunEv
FNDA:15,_ZN7testing4Test15HasFatalFailureEv
FNDA:0,_ZN7testing4Test18HasNonfatalFailureEv
FNDA:15,_ZN7testing4Test9IsSkippedEv
FNDA:7,_ZN7testing8TestInfoC2ENSt7__cxx1112basic_stringIcSt11char_traitsIcESaIcEEES6_PKcS8_NS_8internal12CodeLocationEPKvPNS9_15TestFactoryBaseE
FNDA:7,_ZN7testing8TestInfoD2Ev
FNDA:7,_ZN7testing8internal23MakeAndRegisterTestInfoENSt7__cxx1112basic_stringIcSt11char_traitsIcESaIcEEEPKcS8_S8_NS0_12CodeLocationEPKvPFvvESD_PNS0_15TestFactoryBaseE
FNDA:0,_ZN7testing8internal26ReportInvalidTestSuiteTypeEPKcRKNS0_12CodeLocationE
FNDA:1,_ZN7testing8internal12UnitTestImpl26RegisterParameterizedTestsEv
FNDA:7,_ZN7testing8TestInfo3RunEv
FNDA:0,_ZN7testing8TestInfo4SkipEv
FNDA:7,_ZNK7testing9TestSuite21successful_test_countEv
FNDA:7,_ZNK7testing9TestSuite18skipped_test_countEv
FNDA:28,_ZNK7testing9TestSuite17failed_test_countEv
FNDA:7,_ZNK7testing9TestSuite30reportable_disabled_test_countEv
FNDA:0,_ZNK7testing9TestSuite19disabled_test_countEv
FNDA:0,_ZNK7testing9TestSuite21reportable_test_countEv
FNDA:28,_ZNK7testing9TestSuite17test_to_run_countEv
FNDA:30,_ZNK7testing9TestSuite16total_test_countEv
FNDA:7,_ZN7testing9TestSuiteC2ERKNSt7__cxx1112basic_stringIcSt11char_traitsIcESaIcEEEPKcPFvvESC_
FNDA:7,_ZN7testing9TestSuiteD0Ev
FNDA:7,_ZN7testing9TestSuiteD2Ev
FNDA:1,_ZNK7testing9TestSuite11GetTestInfoEi
FNDA:7,_ZN7testing9TestSuite18GetMutableTestInfoEi
FNDA:7,_ZN7testing9TestSuite11AddTestInfoEPNS_8TestInfoE
FNDA:7,_ZN7testing9TestSuite3RunEv
FNDA:0,_ZZN7testing9TestSuite3RunEvENKUlPKNS_8TestInfoES3_E_clES3_S3_
FNDA:0,_ZN7testing9TestSuite4SkipEv
FNDA:7,_ZN7testing9TestSuite11ClearResultEv
FNDA:0,_ZN7testing9TestSuite12ShuffleTestsEPNS_8internal6RandomE
FNDA:7,_ZN7testing9TestSuite14UnshuffleTestsEv
FNDA:20,_ZN7testingL19FormatCountableNounEiPKcS1_
FNDA:4,_ZN7testingL15FormatTestCountEi
FNDA:2,_ZN7testingL20FormatTestSuiteCountEi
FNDA:2,_ZN7testingL26TestPartResultTypeToStringENS_14TestPartResult4TypeE
FNDA:2,_ZN7testing8internalL27PrintTestPartResultToStringERKNS_14TestPartResultE
FNDA:2,_ZN7testing8internalL19PrintTestPartResultERKNS_14TestPartResultE
FNDA:35,_ZN7testing8internalL16GetAnsiColorCodeENS0_12_GLOBAL__N_110GTestColorE
FNDA:1,_ZN7testing8internal14ShouldUseColorEb
FNDA:35,_ZN7testing8internalL13ColoredPrintfENS0_12_GLOBAL__N_110GTestColorEPKcz
FNDA:2,_ZN7testing8internalL29PrintFullTestCommentIfPresentERKNS_8TestInfoE
FNDA:1,_ZN7testing8internal27PrettyUnitTestResultPrinterC2Ev
FNDA:14,_ZN7testing8internal27PrettyUnitTestResultPrinter13PrintTestNameEPKcS3_
FNDA:1,_ZN7testing8internal27PrettyUnitTestResultPrinter18OnTestProgramStartERKNS_8UnitTestE
FNDA:1,_ZN7testing8internal27PrettyUnitTestResultPrinter22OnEnvironmentsSetUpEndERKNS_8UnitTestE
FNDA:1,_ZN7testing8internal27PrettyUnitTestResultPrinter25OnEnvironmentsTearDownEndERKNS_8UnitTestE
FNDA:1,_ZN7testing8internal27PrettyUnitTestResultPrinter16OnTestProgramEndERKNS_8UnitTestE
FNDA:1,_ZN7testing8internal27PrettyUnitTestResultPrinter20OnTestIterationStartERKNS_8UnitTestEi
FNDA:1,_ZN7testing8internal27PrettyUnitTestResultPrinter24OnEnvironmentsSetUpStartERKNS_8UnitTestE
FNDA:7,_ZN7testing8internal27PrettyUnitTestResultPrinter15OnTestCaseStartERKNS_9TestSuiteE
FNDA:7,_ZN7testing8internal27PrettyUnitTestResultPrinter11OnTestStartERKNS_8TestInfoE
FNDA:0,_ZN7testing8internal27PrettyUnitTestResultPrinter14OnTestDisabledERKNS_8TestInfoE
FNDA:2,_ZN7testing8internal27PrettyUnitTestResultPrinter16OnTestPartResultERKNS_14TestPartResultE
FNDA:7,_ZN7testing8internal27PrettyUnitTestResultPrinter9OnTestEndERKNS_8TestInfoE
FNDA:7,_ZN7testing8internal27PrettyUnitTestResultPrinter13OnTestCaseEndERKNS_9TestSuiteE
FNDA:1,_ZN7testing8internal27PrettyUnitTestResultPrinter27OnEnvironmentsTearDownStartERKNS_8UnitTestE
FNDA:1,_ZN7testing8internal27PrettyUnitTestResultPrinter16PrintFailedTestsERKNS_8UnitTestE
FNDA:1,_ZN7testing8internal27PrettyUnitTestResultPrinter21PrintFailedTestSuitesERKNS_8UnitTestE
FNDA:0,_ZN7testing8internal27PrettyUnitTestResultPrinter17PrintSkippedTestsERKNS_8UnitTestE
FNDA:1,_ZN7testing8internal27PrettyUnitTestResultPrinter18OnTestIterationEndERKNS_8UnitTestEi
FNDA:0,_ZN7testing8internal26BriefUnitTestResultPrinterC2Ev
FNDA:0,_ZN7testing8internal26BriefUnitTestResultPrinter13PrintTestNameEPKcS3_
FNDA:0,_ZN7testing8internal26BriefUnitTestResultPrinter18OnTestProgramStartERKNS_8UnitTestE
FNDA:0,_ZN7testing8internal26BriefUnitTestResultPrinter20OnTestIterationStartERKNS_8UnitTestEi
FNDA:0,_ZN7testing8internal26BriefUnitTestResultPrinter24OnEnvironmentsSetUpStartERKNS_8UnitTestE
FNDA:0,_ZN7testing8internal26BriefUnitTestResultPrinter22OnEnvironmentsSetUpEndERKNS_8UnitTestE
FNDA:0,_ZN7testing8internal26BriefUnitTestResultPrinter15OnTestCaseStartERKNS_9TestSuiteE
FNDA:0,_ZN7testing8internal26BriefUnitTestResultPrinter11OnTestStartERKNS_8TestInfoE
FNDA:0,_ZN7testing8internal26BriefUnitTestResultPrinter14OnTestDisabledERKNS_8TestInfoE
FNDA:0,_ZN7testing8internal26BriefUnitTestResultPrinter13OnTestCaseEndERKNS_9TestSuiteE
FNDA:0,_ZN7testing8internal26BriefUnitTestResultPrinter27OnEnvironmentsTearDownStartERKNS_8UnitTestE
FNDA:0,_ZN7testing8internal26BriefUnitTestResultPrinter25OnEnvironmentsTearDownEndERKNS_8UnitTestE
FNDA:0,_ZN7testing8internal26BriefUnitTestResultPrinter16OnTestProgramEndERKNS_8UnitTestE
FNDA:0,_ZN7testing8internal26BriefUnitTestResultPrinter16OnTestPartResultERKNS_14TestPartResultE
FNDA:0,_ZN7testing8internal26BriefUnitTestResultPrinter9OnTestEndERKNS_8TestInfoE
FNDA:0,_ZN7testing8internal26BriefUnitTestResultPrinter18OnTestIterationEndERKNS_8UnitTestEi
FNDA:1,_ZN7testing8internal17TestEventRepeaterC2Ev
FNDA:0,_ZNK7testing8internal17TestEventRepeater18forwarding_enabledEv
FNDA:0,_ZN7testing8internal17TestEventRepeater22set_forwarding_enabledEb
FNDA:1,_ZN7testing8internal17TestEventRepeaterD0Ev
FNDA:1,_ZN7testing8internal17TestEventRepeaterD2Ev
FNDA:1,_ZN7testing8internal17TestEventRepeater6AppendEPNS_17TestEventListenerE
FNDA:1,_ZN7testing8internal17TestEventRepeater7ReleaseEPNS_17TestEventListenerE
FNDA:1,_ZN7testing8internal17TestEventRepeater18OnTestProgramStartERKNS_8UnitTestE
FNDA:1,_ZN7testing8internal17TestEventRepeater24OnEnvironmentsSetUpStartERKNS_8UnitTestE
FNDA:7,_ZN7testing8internal17TestEventRepeater15OnTestCaseStartERKNS_9TestSuiteE
FNDA:7,_ZN7testing8internal17TestEventRepeater16OnTestSuiteStartERKNS_9TestSuiteE
FNDA:7,_ZN7testing8internal17TestEventRepeater11OnTestStartERKNS_8TestInfoE
FNDA:0,_ZN7testing8internal17TestEventRepeater14OnTestDisabledERKNS_8TestInfoE
FNDA:2,_ZN7testing8internal17TestEventRepeater16OnTestPartResultERKNS_14TestPartResultE
FNDA:1,_ZN7testing8internal17TestEventRepeater27OnEnvironmentsTearDownStartERKNS_8UnitTestE
FNDA:1,_ZN7testing8internal17TestEventRepeater22OnEnvironmentsSetUpEndERKNS_8UnitTestE
FNDA:1,_ZN7testing8internal17TestEventRepeater25OnEnvironmentsTearDownEndERKNS_8UnitTestE
FNDA:7,_ZN7testing8internal17TestEventRepeater9OnTestEndERKNS_8TestInfoE
FNDA:7,_ZN7testing8internal17TestEventRepeater13OnTestCaseEndERKNS_9TestSuiteE
FNDA:7,_ZN7testing8internal17TestEventRepeater14OnTestSuiteEndERKNS_9TestSuiteE
FNDA:1,_ZN7testing8internal17TestEventRepeater16OnTestProgramEndERKNS_8UnitTestE
FNDA:1,_ZN7testing8internal17TestEventRepeater20OnTestIterationStartERKNS_8UnitTestEi
FNDA:1,_ZN7testing8internal17TestEventRepeater18OnTestIterationEndERKNS_8UnitTestEi
FNDA:0,_ZN7testing8internal24XmlUnitTestResultPrinter24IsNormalizableWhitespaceEh
FNDA:0,_ZN7testing8internal24XmlUnitTestResultPrinter19IsValidXmlCharacterEh
FNDA:0,_ZN7testing8internal24XmlUnitTestResultPrinter18EscapeXmlAttributeERKNSt7__cxx1112basic_stringIcSt11char_traitsIcESaIcEEE
FNDA:0,_ZN7testing8internal24XmlUnitTestResultPrinterC2EPKc
FNDA:0,_ZN7testing8internal24XmlUnitTestResultPrinter18OnTestIterationEndERKNS_8UnitTestEi
FNDA:0,_ZN7testing8internal24XmlUnitTestResultPrinter23ListTestsMatchingFilterERKSt6vectorIPNS_9TestSuiteESaIS4_EE
FNDA:0,_ZN7testing8internal24XmlUnitTestResultPrinter9EscapeXmlERKNSt7__cxx1112basic_stringIcSt11char_traitsIcESaIcEEEb
FNDA:0,_ZN7testing8internal24XmlUnitTestResultPrinter26RemoveInvalidXmlCharactersERKNSt7__cxx1112basic_stringIcSt11char_traitsIcESaIcEEE
FNDA:0,_ZN7testing8internal27FormatTimeInMillisAsSecondsB5cxx11El
FNDA:0,_ZN7testing8internalL17PortableLocaltimeElP2tm
FNDA:0,_ZN7testing8internal32FormatEpochTimeInMillisAsIso8601B5cxx11El
FNDA:0,_ZN7testing8internal24XmlUnitTestResultPrinter21OutputXmlCDataSectionEPSoPKc
FNDA:0,_ZN7testing8internal24XmlUnitTestResultPrinter18OutputXmlAttributeEPSoRKNSt7__cxx1112basic_stringIcSt11char_traitsIcESaIcEEESA_SA_
FNDA:0,_ZN7testing8internal6Random8GenerateEj
FNDA:0,_ZN7testing8internal24XmlUnitTestResultPrinter31OutputXmlTestSuiteForTestResultEPSoRKNS_10TestResultE
FNDA:0,_ZN7testing8internal24XmlUnitTestResultPrinter30OutputXmlTestCaseForTestResultEPSoRKNS_10TestResultE
FNDA:0,_ZN7testing8internal24XmlUnitTestResultPrinter17OutputXmlTestInfoEPSoPKcRKNS_8TestInfoE
FNDA:0,_ZN7testing8internal24XmlUnitTestResultPrinter19OutputXmlTestResultEPSoRKNS_10TestResultE
FNDA:0,_ZN7testing8internal24XmlUnitTestResultPrinter17PrintXmlTestSuiteEPSoRKNS_9TestSuiteE
FNDA:0,_ZN7testing8internal24XmlUnitTestResultPrinter16PrintXmlUnitTestEPSoRKNS_8UnitTestE
FNDA:2,_ZN7testing8internalL18GTestIsInitializedEv
FNDA:0,_ZN7testing8internal24XmlUnitTestResultPrinter17PrintXmlTestsListEPSoRKSt6vectorIPNS_9TestSuiteESaIS5_EE
FNDA:8,_ZN7testing8internalL20SumOverTestSuiteListERKSt6vectorIPNS_9TestSuiteESaIS3_EEMS2_KFivE
FNDA:0,_ZN7testing8internal24XmlUnitTestResultPrinter23OutputXmlTestPropertiesEPSoRKNS_10TestResultERKNSt7__cxx1112basic_stringIcSt11char_traitsIcESaIcEEE
FNDA:0,_ZN7testing8internalL15TestSuitePassedEPKNS_9TestSuiteE
FNDA:0,_ZN7testing8internal25JsonUnitTestResultPrinterC2EPKc
FNDA:0,_ZN7testing8internal25JsonUnitTestResultPrinter18OnTestIterationEndERKNS_8UnitTestEi
FNDA:0,_ZN7testing8internal25JsonUnitTestResultPrinter10EscapeJsonERKNSt7__cxx1112basic_stringIcSt11char_traitsIcESaIcEEE
FNDA:14,_ZN7testing8internalL15TestSuiteFailedEPKNS_9TestSuiteE
FNDA:0,_ZN7testing8internalL28FormatTimeInMillisAsDurationEl
FNDA:0,_ZN7testing8internalL32FormatEpochTimeInMillisAsRFC3339El
FNDA:0,_ZN7testing8internalL6IndentEm
FNDA:0,_ZN7testing8internal25JsonUnitTestResultPrinter13OutputJsonKeyEPSoRKNSt7__cxx1112basic_stringIcSt11char_traitsIcESaIcEEESA_SA_SA_b
FNDA:14,_ZN7testing8internalL18ShouldRunTestSuiteEPKNS_9TestSuiteE
FNDA:0,_ZN7testing8internal25JsonUnitTestResultPrinter13OutputJsonKeyEPSoRKNSt7__cxx1112basic_stringIcSt11char_traitsIcESaIcEEESA_iSA_b
FNDA:0,_ZN7testing8internal25JsonUnitTestResultPrinter32OutputJsonTestSuiteForTestResultEPSoRKNS_10TestResultE
FNDA:0,_ZN7testing8internal25JsonUnitTestResultPrinter31OutputJsonTestCaseForTestResultEPSoRKNS_10TestResultE
FNDA:0,_ZN7testing8internal25JsonUnitTestResultPrinter18OutputJsonTestInfoEPSoPKcRKNS_8TestInfoE
FNDA:2,_ZN7testing8internal12_GLOBAL__N_133ShouldEmitStackTraceForResultTypeENS_14TestPartResult4TypeE
FNDA:0,_ZN7testing8internal25JsonUnitTestResultPrinter20OutputJsonTestResultEPSoRKNS_10TestResultE
FNDA:0,_ZN7testing8internal25JsonUnitTestResultPrinter18PrintJsonTestSuiteEPSoRKNS_9TestSuiteE
FNDA:2,_ZN7testing8internal12AssertHelperC2ENS_14TestPartResult4TypeEPKciS5_
FNDA:0,_ZN7testing8internal25JsonUnitTestResultPrinter17PrintJsonUnitTestEPSoRKNS_8UnitTestE
FNDA:2,_ZN7testing8internal12AssertHelperD2Ev
FNDA:2,_ZNK7testing8internal12AssertHelperaSERKNS_7MessageE
FNDA:0,_ZN7testing8internal25JsonUnitTestResultPrinter17PrintJsonTestListEPSoRKSt6vectorIPNS_9TestSuiteESaIS5_EE
FNDA:0,_ZN7testing8internal25JsonUnitTestResultPrinter20TestPropertiesAsJsonERKNS_10TestResultERKNSt7__cxx1112basic_stringIcSt11char_traitsIcESaIcEEE
FNDA:0,_ZN7testing8internal17StreamingListener9UrlEncodeB5cxx11EPKc
FNDA:0,_ZN7testing8internal17StreamingListener12SocketWriter14MakeConnectionEv
FNDA:2,_ZN7testing8internal18OsStackTraceGetter17CurrentStackTraceB5cxx11Eii
FNDA:49,_ZN7testing8internal18OsStackTraceGetter16UponLeavingGTestEv
FNDA:1,_ZN7testing8internal23ScopedPrematureExitFileC2EPKc
FNDA:1,_ZN7testing8internal23ScopedPrematureExitFileD2Ev
FNDA:0,_ZN7testing8internal12_GLOBAL__N_111FailureTestC2ERKNS0_12CodeLocationENSt7__cxx1112basic_stringIcSt11char_traitsIcESaIcEEEb
FNDA:1,_ZN7testing18TestEventListenersC2Ev
FNDA:1,_ZN7testing18TestEventListenersD2Ev
FNDA:1,_ZN7testing18TestEventListeners6AppendEPNS_17TestEventListenerE
FNDA:1,_ZN7testing18TestEventListeners7ReleaseEPNS_17TestEventListenerE
FNDA:17,_ZN7testing18TestEventListeners8repeaterEv
FNDA:1,_ZN7testing18TestEventListeners23SetDefaultResultPrinterEPNS_17TestEventListenerE
FNDA:0,_ZN7testing18TestEventListeners22SetDefaultXmlGeneratorEPNS_17TestEventListenerE
FNDA:0,_ZN7testing8internal12_GLOBAL__N_111FailureTest8TestBodyEv
FNDA:0,_ZNK7testing18TestEventListeners22EventForwardingEnabledEv
FNDA:0,_ZN7testing18TestEventListeners23SuppressEventForwardingEb
FNDA:178,_ZN7testing8UnitTest11GetInstanceEv
FNDA:0,_ZNK7testing8UnitTest27successful_test_suite_countEv
FNDA:0,_ZNK7testing8UnitTest23failed_test_suite_countEv
FNDA:16,_ZNK7testing8UnitTest22total_test_suite_countEv
FNDA:2,_ZNK7testing8UnitTest23test_suite_to_run_countEv
FNDA:0,_ZNK7testing8UnitTest26successful_test_case_countEv
FNDA:0,_ZNK7testing8UnitTest22failed_test_case_countEv
FNDA:0,_ZNK7testing8UnitTest21total_test_case_countEv
FNDA:0,_ZNK7testing8UnitTest22test_case_to_run_countEv
FNDA:1,_ZNK7testing8UnitTest21successful_test_countEv
FNDA:1,_ZNK7testing8UnitTest18skipped_test_countEv
FNDA:1,_ZNK7testing8UnitTest17failed_test_countEv
FNDA:1,_ZNK7testing8UnitTest30reportable_disabled_test_countEv
FNDA:0,_ZNK7testing8UnitTest19disabled_test_countEv
FNDA:0,_ZNK7testing8UnitTest21reportable_test_countEv
FNDA:0,_ZNK7testing8UnitTest16total_test_countEv
FNDA:2,_ZNK7testing8UnitTest17test_to_run_countEv
FNDA:0,_ZNK7testing8UnitTest15start_timestampEv
FNDA:1,_ZNK7testing8UnitTest12elapsed_timeEv
FNDA:1,_ZNK7testing8UnitTest6PassedEv
FNDA:0,_ZNK7testing8UnitTest6FailedEv
FNDA:14,_ZNK7testing8UnitTest12GetTestSuiteEi
FNDA:0,_ZNK7testing8UnitTest11GetTestCaseEi
FNDA:0,_ZNK7testing8UnitTest18ad_hoc_test_resultEv
FNDA:0,_ZN7testing8UnitTest19GetMutableTestSuiteEi
FNDA:28,_ZN7testing8UnitTest16UponLeavingGTestEv
FNDA:14,_ZN7testing8UnitTest22set_current_test_suiteEPNS_9TestSuiteE
FNDA:14,_ZN7testing8UnitTest21set_current_test_infoEPNS_8TestInfoE
FNDA:1,_ZN7testing8internal33GetIgnoredParameterizedTestSuitesB5cxx11Ev
FNDA:14,_ZN7testing8UnitTest9listenersEv
FNDA:0,_ZN7testing8UnitTest14AddEnvironmentEPNS_11EnvironmentE
FNDA:2,_ZN7testing8UnitTest17AddTestPartResultENS_14TestPartResult4TypeEPKciRKNSt7__cxx1112basic_stringIcSt11char_traitsIcESaIcEEESC_
FNDA:0,_ZN7testing8internal13MarkAsIgnoredC2EPKc
FNDA:0,_ZN7testing8UnitTest14RecordPropertyERKNSt7__cxx1112basic_stringIcSt11char_traitsIcESaIcEEES8_
FNDA:0,_ZN7testing8internal23InsertSyntheticTestCaseERKNSt7__cxx1112basic_stringIcSt11char_traitsIcESaIcEEENS0_12CodeLocationEb
FNDA:1,_ZN7testing8UnitTest3RunEv
FNDA:0,_ZNK7testing8UnitTest20original_working_dirEv
FNDA:0,_ZNK7testing8UnitTest18current_test_suiteEv
FNDA:0,_ZNK7testing8UnitTest17current_test_caseEv
FNDA:0,_ZNK7testing8UnitTest17current_test_infoEv
FNDA:0,_ZNK7testing8UnitTest11random_seedEv
FNDA:0,_ZN7testing8UnitTest27parameterized_test_registryEv
FNDA:1,_ZN7testing8UnitTestC2Ev
FNDA:0,_ZN7testing8UnitTestD0Ev
FNDA:1,_ZN7testing8UnitTestD2Ev
FNDA:0,_ZN7testing8UnitTest14PushGTestTraceERKNS_8internal9TraceInfoE
FNDA:0,_ZN7testing8UnitTest13PopGTestTraceEv
FNDA:1,_ZN7testing8internal12UnitTestImplC2EPNS_8UnitTestE
FNDA:1,_ZN7testing8internal12UnitTestImplD0Ev
FNDA:1,_ZN7testing8internal12UnitTestImplD2Ev
FNDA:0,_ZN7testing8internal12UnitTestImpl14RecordPropertyERKNS_12TestPropertyE
FNDA:1,_ZN7testing8internal12UnitTestImpl32SuppressTestEventsIfInSubprocessEv
FNDA:1,_ZN7testing8internal12UnitTestImpl18ConfigureXmlOutputEv
FNDA:1,_ZN7testing8internal12UnitTestImpl24ConfigureStreamingOutputEv
FNDA:2,_ZN7testing8internal12UnitTestImpl19PostFlagParsingInitEv
FNDA:7,_ZN7testing8internal12UnitTestImpl12GetTestSuiteERKNSt7__cxx1112basic_stringIcSt11char_traitsIcESaIcEEEPKcPFvvESD_
FNDA:0,_ZN7testing8internalL16SetUpEnvironmentEPNS_11EnvironmentE
FNDA:0,_ZN7testing8internalL19TearDownEnvironmentEPNS_11EnvironmentE
FNDA:0,_ZN7testing8internalL30AppendToTestWarningsOutputFileERKNSt7__cxx1112basic_stringIcSt11char_traitsIcESaIcEEE
FNDA:0,_ZZN7testing8internal23InsertSyntheticTestCaseERKNSt7__cxx1112basic_stringIcSt11char_traitsIcESaIcEEENS0_12CodeLocationEbENKUlvE_clEv
FNDA:1,_ZN7testing8internal12UnitTestImpl11RunAllTestsEv
FNDA:0,_ZN7testing8internal34RegisterTypeParameterizedTestSuiteEPKcNS0_12CodeLocationE
FNDA:0,_ZN7testing8internal47RegisterTypeParameterizedTestSuiteInstantiationEPKc
FNDA:0,_ZN7testing8internal34TypeParameterizedTestSuiteRegistry17RegisterTestSuiteEPKcNS0_12CodeLocationE
FNDA:0,_ZN7testing8internal34TypeParameterizedTestSuiteRegistry21RegisterInstantiationEPKc
FNDA:1,_ZN7testing8internal30WriteToShardStatusFileIfNeededEv
FNDA:2,_ZN7testing8internal11ShouldShardEPKcS2_b
FNDA:4,_ZN7testing8internal17Int32FromEnvOrDieEPKci
FNDA:1,_ZN7testing8internal34TypeParameterizedTestSuiteRegistry22CheckForInstantiationsEv
FNDA:0,_ZN7testing8internal20ShouldRunTestOnShardEiii
FNDA:1,_ZN7testing8internal12UnitTestImpl11FilterTestsENS1_18ReactionToShardingE
FNDA:1,_ZNK7testing8internal12UnitTestImpl30ShouldWarnIfNoTestsMatchFilterEv
FNDA:0,_ZN7testing8internalL14PrintOnOneLineEPKci
FNDA:0,_ZN7testing8internal12UnitTestImpl23ListTestsMatchingFilterEv
FNDA:0,_ZN7testing8internal12UnitTestImpl25set_os_stack_trace_getterEPNS0_27OsStackTraceGetterInterfaceE
FNDA:51,_ZN7testing8internal12UnitTestImpl21os_stack_trace_getterEv
FNDA:32,_ZN7testing8internal12UnitTestImpl19current_test_resultEv
FNDA:0,_ZN7testing8internal12UnitTestImpl12ShuffleTestsEv
FNDA:1,_ZN7testing8internal12UnitTestImpl14UnshuffleTestsEv
FNDA:0,_ZN7testing8internal31GetCurrentOsStackTraceExceptTopB5cxx11Ei
FNDA:39,_ZN7testing8internal6IsTrueEb
FNDA:22,_ZN7testing8internal10AlwaysTrueEv
FNDA:0,_ZN7testing8internal10SkipPrefixEPKcPS2_
FNDA:0,_ZN7testing8internalL14ParseFlagValueEPKcS2_b
FNDA:0,_ZZN7testing8internal34TypeParameterizedTestSuiteRegistry22CheckForInstantiationsEvENKUlvE_clEv
FNDA:0,_ZN7testing8internalL9ParseFlagEPKcS2_Pb
FNDA:0,_ZN7testing8internal9ParseFlagEPKcS2_Pi
FNDA:0,_ZN7testing8internalL9ParseFlagINSt7__cxx1112basic_stringIcSt11char_traitsIcESaIcEEEEEbPKcS9_PT_
FNDA:0,_ZN7testing8internalL23HasGoogleTestFlagPrefixEPKc
FNDA:0,_ZN7testing8internalL17PrintColorEncodedEPKc
FNDA:2,_ZN7testing8internal8GetArgvsB5cxx11Ev
FNDA:0,_ZN7testing8internalL19ParseGoogleTestFlagEPKc
FNDA:0,_ZN7testing8internal24GetCurrentExecutableNameEv
FNDA:0,_ZN7testing8internalL17LoadFlagsFromFileERKNSt7__cxx1112basic_stringIcSt11char_traitsIcESaIcEEE
FNDA:1,_ZN7testing8internal28ParseGoogleTestFlagsOnlyImplIcEEvPiPPT_
FNDA:0,_ZN7testing8internal28ParseGoogleTestFlagsOnlyImplIwEEvPiPPT_
FNDA:1,_ZN7testing8internal24ParseGoogleTestFlagsOnlyEPiPPc
FNDA:0,_ZN7testing8internal24ParseGoogleTestFlagsOnlyEPiPPw
FNDA:1,_ZN7testing8internal18InitGoogleTestImplIcEEvPiPPT_
FNDA:0,_ZN7testing8internal18InitGoogleTestImplIwEEvPiPPT_
FNDA:1,_ZN7testing8internal15UnitTestOptions15GetOutputFormatB5cxx11Ev
FNDA:1,_ZN7testing14InitGoogleTestEPiPPc
FNDA:0,_ZN7testing14InitGoogleTestEPiPPw
FNDA:0,_ZN7testing14InitGoogleTestEv
FNDA:0,_ZN7testingL13GetDirFromEnvESt16initializer_listIPKcES2_c
FNDA:0,_ZN7testing7TempDirB5cxx11Ev
FNDA:0,_ZN7testingL29GetCurrentExecutableDirectoryEv
FNDA:0,_ZN7testing6SrcDirB5cxx11Ev
FNDA:0,_ZN7testing11ScopedTrace9PushTraceEPKciNSt7__cxx1112basic_stringIcSt11char_traitsIcESaIcEEE
FNDA:0,_ZN7testing11ScopedTraceD2Ev
FNDA:0,_ZN7testing8internal15UnitTestOptions27GetAbsolutePathToOutputFileB5cxx11Ev
FNDA:50,_ZN7testing8internalL20PatternMatchesStringERKNSt7__cxx1112basic_stringIcSt11char_traitsIcESaIcEEEPKcSA_
FNDA:18,_ZN7testing8internal12_GLOBAL__N_113IsGlobPatternERKNSt7__cxx1112basic_stringIcSt11char_traitsIcESaIcEEE
FNDA:27,_ZZN7testing8internal12_GLOBAL__N_113IsGlobPatternERKNSt7__cxx1112basic_stringIcSt11char_traitsIcESaIcEEEENKUlcE_clEc
FNDA:4,_ZN7testing8internal12_GLOBAL__N_114UnitTestFilterC2Ev
FNDA:10,_ZN7testing8internal12_GLOBAL__N_114UnitTestFilterC2ERKNSt7__cxx1112basic_stringIcSt11char_traitsIcESaIcEEE
FNDA:37,_ZNK7testing8internal12_GLOBAL__N_114UnitTestFilter11MatchesNameERKNSt7__cxx1112basic_stringIcSt11char_traitsIcESaIcEEE
FNDA:50,_ZZNK7testing8internal12_GLOBAL__N_114UnitTestFilter11MatchesNameERKNSt7__cxx1112basic_stringIcSt11char_traitsIcESaIcEEEENKUlSA_E_clESA_
FNDA:2,_ZN7testing8internal12_GLOBAL__N_133PositiveAndNegativeUnitTestFilterC2ERKNSt7__cxx1112basic_stringIcSt11char_traitsIcESaIcEEE
FNDA:8,_ZNK7testing8internal12_GLOBAL__N_133PositiveAndNegativeUnitTestFilter11MatchesTestERKNSt7__cxx1112basic_stringIcSt11char_traitsIcESaIcEEESA_
FNDA:8,_ZNK7testing8internal12_GLOBAL__N_133PositiveAndNegativeUnitTestFilter11MatchesNameERKNSt7__cxx1112basic_stringIcSt11char_traitsIcESaIcEEE
FNDA:0,_ZN7testing8internal15UnitTestOptions13MatchesFilterERKNSt7__cxx1112basic_stringIcSt11char_traitsIcESaIcEEEPKc
FNDA:0,_ZN7testing8internal15UnitTestOptions17FilterMatchesTestERKNSt7__cxx1112basic_stringIcSt11char_traitsIcESaIcEEES9_
FNDA:0,_ZN7testing32ScopedFakeTestPartResultReporterC2EPNS_19TestPartResultArrayE
FNDA:0,_ZN7testing32ScopedFakeTestPartResultReporterC2ENS0_13InterceptModeEPNS_19TestPartResultArrayE
FNDA:0,_ZN7testing32ScopedFakeTestPartResultReporter4InitEv
FNDA:0,_ZN7testing32ScopedFakeTestPartResultReporterD0Ev
FNDA:0,_ZN7testing32ScopedFakeTestPartResultReporterD2Ev
FNDA:0,_ZN7testing32ScopedFakeTestPartResultReporter20ReportTestPartResultERKNS_14TestPartResultE
FNF:430
FNH:198
DA:219,0
DA:220,0
DA:221,0
DA:222,0
DA:224,0
DA:225,0
DA:227,0
DA:228,0
DA:230,0
DA:231,0
DA:238,1
DA:240,1
DA:241,1
DA:242,0
DA:244,1
DA:249,1
DA:251,1
DA:252,1
DA:253,0
DA:255,1
DA:423,0
DA:426,0
DA:428,0
DA:429,0
DA:430,0
DA:431,0
DA:436,0
DA:442,2
DA:447,8
DA:449,8
DA:450,64
DA:451,56
DA:453,8
DA:457,0
DA:458,0
DA:462,14
DA:463,14
DA:468,14
DA:469,14
DA:476,2
DA:480,2
DA:486,2
DA:487,2
DA:488,2
DA:490,2
DA:493,2
DA:494,2
DA:495,2
DA:496,4
DA:497,2
DA:498,4
DA:502,2
DA:517,0
DA:519,0
DA:520,0
DA:521,0
DA:523,0
DA:524,0
DA:525,0
DA:526,0
DA:528,0
DA:530,0
DA:540,1
DA:541,1
DA:545,0
DA:546,0
DA:547,0
DA:551,0
DA:553,0
DA:554,0
DA:556,0
DA:566,0
DA:576,0
DA:577,0
DA:582,0
DA:583,0
DA:585,0
DA:586,0
DA:590,0
DA:591,0
DA:592,0
DA:594,0
DA:596,0
DA:598,0
DA:599,0
DA:600,0
DA:602,0
DA:603,0
DA:605,0
DA:607,0
DA:609,0
DA:610,0
DA:611,0
DA:613,0
DA:615,0
DA:616,0
DA:617,0
DA:619,0
DA:620,0
DA:622,0
DA:624,1
DA:625,1
DA:626,1
DA:627,0
DA:628,0
DA:631,0
DA:645,0
DA:646,0
DA:649,0
DA:650,0
DA:655,0
DA:656,0
DA:657,0
DA:659,0
DA:660,1
DA:665,2
DA:672,2
DA:679,0
DA:680,0
DA:682,0
DA:683,0
DA:687,0
DA:691,0
DA:692,0
DA:698,1
DA:699,1
DA:700,1
DA:701,1
DA:703,1
DA:705,3
DA:706,1
DA:711,0
DA:712,0
DA:713,0
DA:715,0
DA:716,0
DA:718,0
DA:719,0
DA:720,0
DA:721,0
DA:723,0
DA:724,0
DA:726,0
DA:727,0
DA:728,0
DA:729,0
DA:730,0
DA:732,0
DA:735,0
DA:736,0
DA:737,0
DA:738,0
DA:747,50
DA:749,50
DA:750,50
DA:751,50
DA:753,50
DA:754,50
DA:756,1164
DA:757,1156
DA:758,953
DA:759,381
DA:760,381
DA:761,6
DA:762,6
DA:763,6
DA:765,375
DA:766,0
DA:767,0
DA:768,0
DA:769,0
DA:770,0
DA:772,0
DA:773,572
DA:777,572
DA:778,572
DA:779,572
DA:780,572
DA:784,578
DA:785,536
DA:786,536
DA:787,536
DA:789,42
DA:791,8
DA:796,18
DA:797,18
DA:798,45
DA:803,4
DA:806,10
DA:808,10
DA:809,10
DA:810,10
DA:813,20
DA:814,20
DA:815,20
DA:816,10
DA:817,20
DA:819,10
DA:820,10
DA:824,37
DA:825,74
DA:826,37
DA:827,50
DA:828,50
DA:830,100
DA:831,37
DA:846,2
DA:847,2
DA:850,2
DA:851,2
DA:853,2
DA:854,0
DA:855,0
DA:860,0
DA:861,0
DA:863,0
DA:864,0
DA:865,0
DA:869,2
DA:871,2
DA:876,8
DA:878,8
DA:883,8
DA:884,16
DA:885,16
DA:894,0
DA:896,0
DA:901,0
DA:905,0
DA:906,0
DA:951,0
DA:952,0
DA:953,0
DA:954,0
DA:955,0
DA:960,0
DA:961,0
DA:962,0
DA:963,0
DA:964,0
DA:966,0
DA:967,0
DA:968,0
DA:969,0
DA:970,0
DA:972,0
DA:973,0
DA:975,0
DA:979,0
DA:980,0
DA:981,0
DA:982,0
DA:984,0
DA:986,0
DA:990,0
DA:992,0
DA:993,0
DA:1006,8
DA:1015,0
DA:1023,0
DA:1024,0
DA:1025,0
DA:1026,0
DA:1027,0
DA:1028,0
DA:1029,0
DA:1031,0
DA:1034,0
DA:1035,0
DA:1036,0
DA:1037,0
DA:1038,0
DA:1041,0
DA:1042,0
DA:1043,0
DA:1044,0
DA:1045,0
DA:1048,0
DA:1049,0
DA:1054,0
DA:1056,0
DA:1057,0
DA:1063,0
DA:1064,0
DA:1065,0
DA:1067,1
DA:1068,1
DA:1069,1
DA:1071,2
DA:1073,2
DA:1074,2
DA:1075,2
DA:1077,1
DA:1078,1
DA:1079,1
DA:1081,2
DA:1083,2
DA:1084,2
DA:1088,2
DA:1089,2
DA:1090,2
DA:1091,2
DA:1094,0
DA:1096,0
DA:1097,0
DA:1098,0
DA:1102,2
DA:1103,2
DA:1107,0
DA:1109,0
DA:1110,0
DA:1113,0
DA:1114,0
DA:1118,2
DA:1119,2
DA:1123,24
DA:1124,24
DA:1129,2
DA:1130,2
DA:1134,1
DA:1135,1
DA:1139,1
DA:1140,1
DA:1144,1
DA:1145,1
DA:1149,1
DA:1150,1
DA:1151,1
DA:1155,0
DA:1156,0
DA:1160,0
DA:1161,0
DA:1165,2
DA:1166,2
DA:1170,2
DA:1171,2
DA:1184,2
DA:1185,2
DA:1189,2
DA:1195,15
DA:1198,15
DA:1199,30
DA:1200,15
DA:1201,30
DA:1218,16
DA:1219,16
DA:1220,16
DA:1221,48
DA:1222,32
DA:1268,11
DA:1269,11
DA:1271,11
DA:1273,11
DA:1280,0
DA:1282,0
DA:1283,0
DA:1284,0
DA:1285,0
DA:1287,0
DA:1288,0
DA:1291,0
DA:1295,12
DA:1297,12
DA:1298,12
DA:1299,20
DA:1300,20
DA:1301,20
DA:1302,12
DA:1303,12
DA:1305,8
DA:1306,8
DA:1309,12
DA:1310,12
DA:1319,94
DA:1322,94
DA:1323,94
DA:1327,0
DA:1328,0
DA:1330,0
DA:1331,0
DA:1337,0
DA:1338,0
DA:1339,0
DA:1345,94
DA:1346,94
DA:1352,0
DA:1355,0
DA:1357,0
DA:1360,0
DA:1361,0
DA:1362,0
DA:1365,0
DA:1366,0
DA:1367,0
DA:1370,0
DA:1371,0
DA:1372,0
DA:1374,0
DA:1375,0
DA:1376,0
DA:1379,0
DA:1380,0
DA:1381,0
DA:1382,0
DA:1383,0
DA:1384,0
DA:1385,0
DA:1386,0
DA:1387,0
DA:1391,0
DA:1392,0
DA:1398,0
DA:1399,0
DA:1400,0
DA:1401,0
DA:1402,0
DA:1403,0
DA:1405,0
DA:1406,0
DA:1407,0
DA:1414,0
DA:1415,0
DA:1416,0
DA:1417,0
DA:1418,0
DA:1428,0
DA:1431,0
DA:1433,0
DA:1434,0
DA:1435,0
DA:1437,0
DA:1438,0
DA:1440,0
DA:1441,0
DA:1442,0
DA:1452,0
DA:1453,0
DA:1454,0
DA:1455,0
DA:1456,0
DA:1457,0
DA:1459,0
DA:1460,0
DA:1461,0
DA:1462,0
DA:1463,0
DA:1464,0
DA:1465,0
DA:1466,0
DA:1467,0
DA:1468,0
DA:1469,0
DA:1470,0
DA:1471,0
DA:1472,0
DA:1473,0
DA:1475,0
DA:1477,0
DA:1478,0
DA:1479,0
DA:1480,0
DA:1481,0
DA:1482,0
DA:1483,0
DA:1485,0
DA:1487,0
DA:1490,0
DA:1491,0
DA:1492,0
DA:1493,0
DA:1499,0
DA:1500,0
DA:1501,0
DA:1502,0
DA:1503,0
DA:1504,0
DA:1506,0
DA:1507,0
DA:1508,0
DA:1510,0
DA:1511,0
DA:1527,0
DA:1530,0
DA:1532,0
DA:1533,0
DA:1534,0
DA:1536,0
DA:1537,0
DA:1538,0
DA:1539,0
DA:1543,0
DA:1544,0
DA:1545,0
DA:1546,0
DA:1551,0
DA:1552,0
DA:1553,0
DA:1555,0
DA:1556,0
DA:1557,0
DA:1558,0
DA:1560,0
DA:1564,0
DA:1566,0
DA:1568,0
DA:1569,0
DA:1571,0
DA:1572,0
DA:1576,0
DA:1577,0
DA:1580,0
DA:1582,0
DA:1585,0
DA:1586,0
DA:1587,0
DA:1588,0
DA:1597,4
DA:1598,4
DA:1599,4
DA:1600,4
DA:1601,3
DA:1602,3
DA:1604,4
DA:1605,8
DA:1606,4
DA:1607,0
DA:1608,0
DA:1609,0
DA:1610,0
DA:1613,4
DA:1616,4
DA:1617,4
DA:1618,0
DA:1637,2
DA:1641,2
DA:1642,2
DA:1643,2
DA:1644,2
DA:1645,2
DA:1647,2
DA:1648,2
DA:1649,0
DA:1652,2
DA:1653,0
DA:1656,2
DA:1657,2
DA:1658,2
DA:1659,2
DA:1660,0
DA:1661,0
DA:1663,2
DA:1665,4
DA:1666,2
DA:1669,0
DA:1672,0
DA:1673,0
DA:1674,0
DA:1675,0
DA:1676,0
DA:1677,0
DA:1678,0
DA:1679,0
DA:1685,0
DA:1694,0
DA:1695,0
DA:1696,0
DA:1697,0
DA:1700,0
DA:1701,0
DA:1704,0
DA:1707,0
DA:1714,0
DA:1715,0
DA:1716,0
DA:1717,0
DA:1718,0
DA:1719,0
DA:1720,0
DA:1721,0
DA:1723,0
DA:1724,0
DA:1726,0
DA:1728,0
DA:1729,0
DA:1730,0
DA:1731,0
DA:1732,0
DA:1733,0
DA:1738,0
DA:1741,0
DA:1742,0
DA:1746,0
DA:1747,0
DA:1748,0
DA:1755,0
DA:1756,0
DA:1757,0
DA:1759,0
DA:1760,0
DA:1761,0
DA:1764,0
DA:1765,0
DA:1766,0
DA:1767,0
DA:1773,0
DA:1775,0
DA:1780,0
DA:1782,0
DA:1788,0
DA:1791,0
DA:1792,0
DA:1795,0
DA:1796,0
DA:1800,0
DA:1803,0
DA:1804,0
DA:1807,0
DA:1808,0
DA:1812,0
DA:1815,0
DA:1816,0
DA:1818,0
DA:1819,0
DA:1820,0
DA:1825,0
DA:1828,0
DA:1829,0
DA:1831,0
DA:1832,0
DA:1833,0
DA:1847,0
DA:1848,0
DA:1850,0
DA:1853,0
DA:1854,0
DA:1856,0
DA:1861,0
DA:1862,0
DA:1870,0
DA:1875,0
DA:1876,0
DA:1878,0
DA:1879,0
DA:1881,0
DA:1882,0
DA:1883,0
DA:1884,0
DA:1885,0
DA:1894,0
DA:1896,0
DA:1899,0
DA:1901,0
DA:1904,0
DA:1907,0
DA:1910,0
DA:1913,0
DA:1916,0
DA:1919,0
DA:1922,0
DA:1926,0
DA:1930,0
DA:1933,0
DA:1936,0
DA:1940,0
DA:2036,0
DA:2037,0
DA:2038,0
DA:2039,0
DA:2048,0
DA:2049,0
DA:2050,0
DA:2054,0
DA:2055,0
DA:2056,0
DA:2057,0
DA:2058,0
DA:2059,0
DA:2060,0
DA:2061,0
DA:2062,0
DA:2063,0
DA:2064,0
DA:2065,0
DA:2067,0
DA:2068,0
DA:2069,0
DA:2070,0
DA:2071,0
DA:2073,0
DA:2083,0
DA:2085,0
DA:2089,0
DA:2091,0
DA:2092,0
DA:2093,0
DA:2099,0
DA:2115,0
DA:2116,0
DA:2118,0
DA:2119,0
DA:2122,0
DA:2123,0
DA:2124,0
DA:2126,0
DA:2127,0
DA:2129,0
DA:2132,0
DA:2134,0
DA:2135,0
DA:2139,0
DA:2140,0
DA:2142,0
DA:2151,0
DA:2152,0
DA:2154,0
DA:2156,0
DA:2160,0
DA:2163,0
DA:2164,0
DA:2167,0
DA:2168,0
DA:2172,0
DA:2175,0
DA:2176,0
DA:2179,0
DA:2180,0
DA:2181,0
DA:2190,2
DA:2191,2
DA:2192,2
DA:2193,2
DA:2208,0
DA:2210,0
DA:2212,0
DA:2217,0
DA:2232,1
DA:2234,1
DA:2235,1
DA:2236,2
DA:2237,1
DA:2238,1
DA:2242,0
DA:2243,0
DA:2247,0
DA:2248,0
DA:2249,0
DA:2250,0
DA:2251,0
DA:2254,0
DA:2255,0
DA:2256,0
DA:2257,0
DA:2258,0
DA:2261,0
DA:2262,0
DA:2266,0
DA:2267,0
DA:2268,0
DA:2269,0
DA:2270,0
DA:2271,0
DA:2275,94
DA:2276,94
DA:2277,94
DA:2278,94
DA:2280,94
DA:2281,94
DA:2282,1766
DA:2283,1672
DA:2284,0
DA:2286,1672
DA:2290,188
DA:2291,94
DA:2294,2
DA:2297,2
DA:2298,2
DA:2299,2
DA:2301,0
DA:2302,0
DA:2304,0
DA:2305,2
DA:2312,15
DA:2313,15
DA:2316,15
DA:2321,12
DA:2322,12
DA:2323,12
DA:2329,0
DA:2330,0
DA:2331,0
DA:2335,0
DA:2338,2
DA:2339,2
DA:2340,2
DA:2345,0
DA:2347,0
DA:2348,0
DA:2350,0
DA:2352,0
DA:2353,0
DA:2354,0
DA:2355,0
DA:2356,0
DA:2358,0
DA:2359,0
DA:2385,0
DA:2386,0
DA:2389,0
DA:2391,0
DA:2392,0
DA:2393,0
DA:2394,0
DA:2395,0
DA:2396,0
DA:2398,0
DA:2401,0
DA:2407,0
DA:2409,0
DA:2410,0
DA:2411,0
DA:2412,0
DA:2413,0
DA:2414,0
DA:2416,0
DA:2419,0
DA:2423,0
DA:2424,0
DA:2425,0
DA:2426,0
DA:2427,0
DA:2429,0
DA:2430,0
DA:2432,0
DA:2434,0
DA:2435,0
DA:2437,0
DA:2440,0
DA:2441,0
DA:2442,0
DA:2443,0
DA:2444,0
DA:2445,0
DA:2447,0
DA:2452,0
DA:2454,0
DA:2455,0
DA:2459,14
DA:2460,14
DA:2461,14
DA:2462,14
DA:2463,14
DA:2464,14
DA:2467,0
DA:2468,0
DA:2472,44
DA:2473,44
DA:2477,120
DA:2478,120
DA:2479,12
DA:2481,108
DA:2485,0
DA:2486,0
DA:2490,15
DA:2491,15
DA:2495,0
DA:2496,0
DA:2500,0
DA:2501,0
DA:2506,132
DA:2507,132
DA:2511,0
DA:2512,0
DA:2520,7
DA:2525,7
DA:2530,7
DA:2535,7
DA:2538,0
DA:2539,0
DA:2540,0
DA:2544,0
DA:2548,0
DA:2554,0
DA:2563,7
DA:2564,7
DA:2565,7
DA:2568,7
DA:2569,7
DA:2570,7
DA:2573,7
DA:2574,7
DA:2575,7
DA:2577,7
DA:2579,0
DA:2581,0
DA:2583,0
DA:2590,0
DA:2592,0
DA:2595,0
DA:2596,0
DA:2597,0
DA:2598,0
DA:2599,0
DA:2600,0
DA:2601,0
DA:2602,0
DA:2603,0
DA:2604,0
DA:2607,0
DA:2608,0
DA:2609,0
DA:2610,0
DA:2611,0
DA:2612,0
DA:2613,0
DA:2614,0
DA:2615,0
DA:2616,0
DA:2618,0
DA:2621,7
DA:2629,0
DA:2631,0
DA:2632,0
DA:2633,0
DA:2635,0
DA:2637,0
DA:2639,0
DA:2640,0
DA:2645,0
DA:2646,0
DA:2647,0
DA:2660,50
DA:2671,50
DA:2679,50
DA:2704,50
DA:2707,50
DA:2708,0
DA:2710,0
DA:2714,0
DA:2715,0
DA:2716,0
DA:2718,0
DA:2719,0
DA:2720,0
DA:2724,0
DA:2729,0
DA:2736,7
DA:2737,7
DA:2739,7
DA:2740,7
DA:2741,7
DA:2744,7
DA:2745,7
DA:2746,7
DA:2753,7
DA:2754,7
DA:2759,15
DA:2760,15
DA:2764,0
DA:2767,0
DA:2771,15
DA:2772,15
DA:2779,7
DA:2783,7
DA:2784,7
DA:2785,7
DA:2786,7
DA:2787,7
DA:2788,7
DA:2789,7
DA:2790,7
DA:2791,7
DA:2792,7
DA:2793,7
DA:2794,7
DA:2795,7
DA:2798,7
DA:2820,7
DA:2826,7
DA:2827,28
DA:2828,7
DA:2829,7
DA:2832,0
DA:2834,0
DA:2836,0
DA:2837,0
DA:2838,0
DA:2839,0
DA:2840,0
DA:2841,0
DA:2842,0
DA:2843,0
DA:2845,0
DA:2846,0
DA:2847,0
DA:2848,0
DA:2853,1
DA:2854,1
DA:2855,1
DA:2856,1
DA:2857,1
DA:2859,1
DA:2865,7
DA:2866,7
DA:2867,7
DA:2868,0
DA:2869,0
DA:2873,7
DA:2876,7
DA:2877,7
DA:2878,7
DA:2879,7
DA:2882,14
DA:2883,7
DA:2889,7
DA:2892,7
DA:2895,7
DA:2897,7
DA:2898,7
DA:2902,7
DA:2905,7
DA:2909,7
DA:2913,0
DA:2914,0
DA:2916,0
DA:2918,0
DA:2921,0
DA:2924,0
DA:2926,0
DA:2927,0
DA:2930,0
DA:2931,0
DA:2932,0
DA:2937,7
DA:2938,7
DA:2942,7
DA:2943,7
DA:2947,28
DA:2948,28
DA:2952,7
DA:2953,7
DA:2957,0
DA:2958,0
DA:2962,0
DA:2963,0
DA:2967,28
DA:2968,28
DA:2972,30
DA:2973,30
DA:2985,7
DA:2987,7
DA:2988,7
DA:2989,7
DA:2990,7
DA:2991,7
DA:2992,7
DA:2993,7
DA:2994,14
DA:2997,21
DA:2999,7
DA:3000,14
DA:3004,1
DA:3005,1
DA:3006,1
DA:3011,7
DA:3012,7
DA:3013,7
DA:3018,7
DA:3019,7
DA:3020,7
DA:3021,7
DA:3024,7
DA:3025,7
DA:3027,7
DA:3029,7
DA:3041,7
DA:3042,0
DA:3043,0
DA:3044,0
DA:3047,0
DA:3051,7
DA:3054,7
DA:3057,7
DA:3058,7
DA:3062,7
DA:3064,7
DA:3065,7
DA:3066,14
DA:3067,7
DA:3068,0
DA:3070,7
DA:3072,7
DA:3073,0
DA:3074,0
DA:3075,0
DA:3077,0
DA:3080,7
DA:3082,7
DA:3083,7
DA:3087,7
DA:3090,7
DA:3093,7
DA:3097,0
DA:3098,0
DA:3100,0
DA:3102,0
DA:3105,0
DA:3108,0
DA:3111,0
DA:3112,0
DA:3116,0
DA:3119,0
DA:3122,0
DA:3126,7
DA:3127,7
DA:3128,7
DA:3129,7
DA:3132,0
DA:3133,0
DA:3134,0
DA:3137,7
DA:3138,14
DA:3139,7
DA:3141,7
DA:3148,20
DA:3150,40
DA:3151,60
DA:3155,4
DA:3156,4
DA:3160,2
DA:3161,2
DA:3168,2
DA:3169,2
DA:3170,0
DA:3171,0
DA:3172,0
DA:3173,0
DA:3175,2
DA:3180,2
DA:3182,0
DA:3183,0
DA:3193,2
DA:3195,4
DA:3197,2
DA:3198,2
DA:3199,2
DA:3200,4
DA:3201,4
DA:3205,2
DA:3206,2
DA:3207,2
DA:3208,2
DA:3220,2
DA:3276,35
DA:3277,35
DA:3278,3
DA:3279,3
DA:3280,32
DA:3281,32
DA:3282,0
DA:3283,0
DA:3284,0
DA:3285,0
DA:3293,1
DA:3294,1
DA:3295,1
DA:3297,1
DA:3304,1
DA:3306,3
DA:3307,2
DA:3308,2
DA:3309,2
DA:3310,2
DA:3311,2
DA:3312,2
DA:3313,2
DA:3314,2
DA:3315,3
DA:3316,4
DA:3317,1
DA:3321,0
DA:3322,0
DA:3323,0
DA:3324,0
DA:3328,1
DA:3336,35
DA:3338,35
DA:3343,35
DA:3345,35
DA:3347,35
DA:3348,0
DA:3349,0
DA:3350,0
DA:3376,35
DA:3377,35
DA:3378,35
DA:3380,35
DA:3388,2
DA:3389,2
DA:3390,2
DA:3392,2
DA:3393,0
DA:3394,0
DA:3395,0
DA:3396,0
DA:3398,0
DA:3399,0
DA:3402,2
DA:3409,1
DA:3410,14
DA:3411,14
DA:3412,14
DA:3415,1
DA:3418,1
DA:3437,1
DA:3439,1
DA:3448,1
DA:3450,1
DA:3451,0
DA:3453,1
DA:3454,1
DA:3458,1
DA:3459,0
DA:3463,1
DA:3464,0
DA:3465,0
DA:3470,1
DA:3471,0
DA:3476,1
DA:3477,2
DA:3478,2
DA:3479,2
DA:3480,1
DA:3481,1
DA:3483,1
DA:3485,1
DA:3486,1
DA:3487,1
DA:3488,1
DA:3491,7
DA:3493,7
DA:3494,7
DA:3495,7
DA:3496,7
DA:3497,7
DA:3499,0
DA:3501,7
DA:3502,7
DA:3519,7
DA:3520,7
DA:3521,7
DA:3522,7
DA:3523,7
DA:3524,7
DA:3526,0
DA:3527,0
DA:3528,0
DA:3529,0
DA:3530,0
DA:3531,0
DA:3534,2
DA:3536,2
DA:3538,0
DA:3539,0
DA:3540,2
DA:3543,2
DA:3544,2
DA:3548,7
DA:3549,7
DA:3550,6
DA:3551,1
DA:3552,0
DA:3554,1
DA:3556,7
DA:3557,7
DA:3559,7
DA:3560,7
DA:3561,14
DA:3564,0
DA:3566,7
DA:3567,7
DA:3570,7
DA:3571,7
DA:3574,7
DA:3575,7
DA:3576,7
DA:3577,14
DA:3578,7
DA:3579,7
DA:3593,1
DA:3595,1
DA:3596,1
DA:3597,1
DA:3598,1
DA:3601,1
DA:3602,1
DA:3603,1
DA:3604,1
DA:3606,8
DA:3607,7
DA:3608,7
DA:3609,6
DA:3611,2
DA:3612,1
DA:3613,1
DA:3614,0
DA:3616,1
DA:3617,1
DA:3618,1
DA:3619,1
DA:3622,1
DA:3624,1
DA:3628,1
DA:3630,1
DA:3631,8
DA:3632,7
DA:3633,7
DA:3634,0
DA:3636,7
DA:3637,0
DA:3638,0
DA:3639,0
DA:3642,1
DA:3643,0
DA:3646,1
DA:3649,0
DA:3650,0
DA:3651,0
DA:3652,0
DA:3655,0
DA:3656,0
DA:3657,0
DA:3658,0
DA:3660,0
DA:3661,0
DA:3662,0
DA:3663,0
DA:3665,0
DA:3666,0
DA:3667,0
DA:3672,1
DA:3674,1
DA:3675,2
DA:3676,2
DA:3677,2
DA:3678,1
DA:3679,1
DA:3680,2
DA:3682,1
DA:3683,1
DA:3684,1
DA:3686,1
DA:3687,1
DA:3688,0
DA:3689,0
DA:3690,0
DA:3693,1
DA:3694,1
DA:3695,1
DA:3698,1
DA:3699,1
DA:3700,0
DA:3701,0
DA:3703,0
DA:3707,1
DA:3708,1
DA:3717,0
DA:3718,0
DA:3719,0
DA:3720,0
DA:3723,0
DA:3724,0
DA:3725,0
DA:3726,0
DA:3727,0
DA:3729,0
DA:3734,0
DA:3735,0
DA:3740,0
DA:3745,0
DA:3746,0
DA:3748,0
DA:3752,0
DA:3754,0
DA:3756,0
DA:3757,0
DA:3758,0
DA:3761,0
DA:3762,0
DA:3766,0
DA:3767,0
DA:3768,0
DA:3769,0
DA:3770,0
DA:3772,0
DA:3773,0
DA:3774,0
DA:3777,0
DA:3779,0
DA:3781,0
DA:3783,0
DA:3785,0
DA:3786,0
DA:3787,0
DA:3788,0
DA:3789,0
DA:3790,0
DA:3791,0
DA:3793,0
DA:3794,0
DA:3795,0
DA:3797,0
DA:3798,0
DA:3799,0
DA:3800,0
DA:3803,0
DA:3804,0
DA:3805,0
DA:3806,0
DA:3808,0
DA:3812,0
DA:3813,0
DA:3822,1
DA:3829,0
DA:3830,0
DA:3866,2
DA:3867,1
DA:3868,2
DA:3870,1
DA:3871,1
DA:3872,1
DA:3874,1
DA:3875,1
DA:3876,0
DA:3877,0
DA:3878,0
DA:3882,1
DA:3906,2
DA:3907,2
DA:3910,14
DA:3912,14
DA:3913,14
DA:3914,0
DA:3915,4
DA:3916,2
DA:3917,2
DA:3918,2
DA:3919,14
DA:3922,14
DA:3924,14
DA:3925,2
DA:3930,1
DA:3932,1
DA:3933,2
DA:3934,1
DA:3937,1
DA:3939,1
DA:3941,1
DA:3942,2
DA:3943,1
DA:3946,1
DA:3966,0
DA:3967,0
DA:3972,0
DA:3973,0
DA:3986,0
DA:3987,0
DA:4048,0
DA:4049,0
DA:4050,0
DA:4051,0
DA:4053,0
DA:4056,0
DA:4058,0
DA:4059,0
DA:4060,0
DA:4061,0
DA:4062,0
DA:4063,0
DA:4065,0
DA:4067,0
DA:4068,0
DA:4069,0
DA:4070,0
DA:4071,0
DA:4072,0
DA:4084,0
DA:4086,0
DA:4088,0
DA:4089,0
DA:4090,0
DA:4091,0
DA:4092,0
DA:4093,0
DA:4094,0
DA:4095,0
DA:4096,0
DA:4097,0
DA:4098,0
DA:4099,0
DA:4100,0
DA:4101,0
DA:4102,0
DA:4104,0
DA:4105,0
DA:4106,0
DA:4107,0
DA:4108,0
DA:4110,0
DA:4111,0
DA:4112,0
DA:4113,0
DA:4114,0
DA:4115,0
DA:4116,0
DA:4117,0
DA:4119,0
DA:4121,0
DA:4125,0
DA:4126,0
DA:4131,0
DA:4133,0
DA:4134,0
DA:4135,0
DA:4136,0
DA:4137,0
DA:4139,0
DA:4140,0
DA:4159,0
DA:4160,0
DA:4164,0
DA:4166,0
DA:4167,0
DA:4168,0
DA:4169,0
DA:4170,0
DA:4172,0
DA:4187,0
DA:4193,0
DA:4195,0
DA:4196,0
DA:4198,0
DA:4199,0
DA:4200,0
DA:4201,0
DA:4202,0
DA:4203,0
DA:4204,0
DA:4208,0
DA:4210,0
DA:4211,0
DA:4213,0
DA:4214,0
DA:4215,0
DA:4216,0
DA:4217,0
DA:4218,0
DA:4220,0
DA:4221,0
DA:4223,0
DA:4224,0
DA:4225,0
DA:4227,0
DA:4231,0
DA:4233,0
DA:4236,0
DA:4238,0
DA:4239,0
DA:4242,0
DA:4245,0
DA:4246,0
DA:4247,0
DA:4248,0
DA:4249,0
DA:4250,0
DA:4251,0
DA:4252,0
DA:4253,0
DA:4254,0
DA:4256,0
DA:4257,0
DA:4259,0
DA:4262,0
DA:4263,0
DA:4266,0
DA:4269,0
DA:4270,0
DA:4271,0
DA:4272,0
DA:4273,0
DA:4274,0
DA:4275,0
DA:4276,0
DA:4278,0
DA:4281,0
DA:4282,0
DA:4285,0
DA:4288,0
DA:4289,0
DA:4291,0
DA:4292,0
DA:4295,0
DA:4296,0
DA:4298,0
DA:4299,0
DA:4302,0
DA:4303,0
DA:4307,0
DA:4308,0
DA:4309,0
DA:4310,0
DA:4311,0
DA:4312,0
DA:4315,0
DA:4316,0
DA:4317,0
DA:4318,0
DA:4319,0
DA:4321,0
DA:4322,0
DA:4323,0
DA:4325,0
DA:4326,0
DA:4328,0
DA:4329,0
DA:4331,0
DA:4333,0
DA:4334,0
DA:4335,0
DA:4336,0
DA:4337,0
DA:4338,0
DA:4339,0
DA:4343,0
DA:4344,0
DA:4345,0
DA:4346,0
DA:4347,0
DA:4348,0
DA:4349,0
DA:4350,0
DA:4351,0
DA:4352,0
DA:4356,0
DA:4357,0
DA:4358,0
DA:4359,0
DA:4360,0
DA:4361,0
DA:4362,0
DA:4363,0
DA:4366,0
DA:4367,0
DA:4369,0
DA:4370,0
DA:4372,0
DA:4373,0
DA:4375,0
DA:4378,0
DA:4380,0
DA:4381,0
DA:4382,0
DA:4383,0
DA:4384,0
DA:4385,0
DA:4386,0
DA:4387,0
DA:4388,0
DA:4390,0
DA:4391,0
DA:4392,0
DA:4394,0
DA:4396,0
DA:4397,0
DA:4398,0
DA:4400,0
DA:4402,0
DA:4403,0
DA:4405,0
DA:4406,0
DA:4407,0
DA:4409,0
DA:4410,0
DA:4413,0
DA:4414,0
DA:4417,0
DA:4419,0
DA:4421,0
DA:4422,0
DA:4424,0
DA:4425,0
DA:4426,0
DA:4427,0
DA:4428,0
DA:4430,0
DA:4431,0
DA:4432,0
DA:4433,0
DA:4434,0
DA:4436,0
DA:4438,0
DA:4439,0
DA:4440,0
DA:4443,0
DA:4444,0
DA:4446,0
DA:4448,0
DA:4449,0
DA:4450,0
DA:4455,0
DA:4456,0
DA:4459,0
DA:4460,0
DA:4462,0
DA:4464,0
DA:4466,0
DA:4467,0
DA:4469,0
DA:4470,0
DA:4471,0
DA:4473,0
DA:4474,0
DA:4475,0
DA:4476,0
DA:4478,0
DA:4479,0
DA:4481,0
DA:4482,0
DA:4484,0
DA:4486,0
DA:4487,0
DA:4489,0
DA:4490,0
DA:4493,0
DA:4494,0
DA:4495,0
DA:4496,0
DA:4497,0
DA:4498,0
DA:4499,0
DA:4501,0
DA:4502,0
DA:4577,0
DA:4578,0
DA:4579,0
DA:4580,0
DA:4582,0
DA:4584,0
DA:4586,0
DA:4587,0
DA:4588,0
DA:4589,0
DA:4590,0
DA:4591,0
DA:4594,0
DA:4595,0
DA:4597,0
DA:4598,0
DA:4599,0
DA:4600,0
DA:4603,0
DA:4604,0
DA:4605,0
DA:4606,0
DA:4607,0
DA:4608,0
DA:4609,0
DA:4610,0
DA:4611,0
DA:4612,0
DA:4613,0
DA:4614,0
DA:4615,0
DA:4616,0
DA:4617,0
DA:4618,0
DA:4619,0
DA:4620,0
DA:4621,0
DA:4622,0
DA:4624,0
DA:4626,0
DA:4630,0
DA:4631,0
DA:4637,0
DA:4638,0
DA:4639,0
DA:4640,0
DA:4641,0
DA:4645,0
DA:4647,0
DA:4648,0
DA:4650,0
DA:4651,0
DA:4652,0
DA:4653,0
DA:4654,0
DA:4655,0
DA:4658,0
DA:4659,0
DA:4662,0
DA:4669,0
DA:4671,0
DA:4674,0
DA:4676,0
DA:4677,0
DA:4678,0
DA:4680,0
DA:4684,0
DA:4686,0
DA:4689,0
DA:4691,0
DA:4692,0
DA:4693,0
DA:4696,0
DA:4699,0
DA:4700,0
DA:4701,0
DA:4702,0
DA:4703,0
DA:4704,0
DA:4705,0
DA:4706,0
DA:4707,0
DA:4708,0
DA:4709,0
DA:4710,0
DA:4711,0
DA:4712,0
DA:4714,0
DA:4716,0
DA:4719,0
DA:4720,0
DA:4723,0
DA:4726,0
DA:4727,0
DA:4728,0
DA:4729,0
DA:4730,0
DA:4731,0
DA:4732,0
DA:4733,0
DA:4734,0
DA:4735,0
DA:4736,0
DA:4737,0
DA:4740,0
DA:4741,0
DA:4744,0
DA:4747,0
DA:4748,0
DA:4749,0
DA:4751,0
DA:4752,0
DA:4754,0
DA:4755,0
DA:4758,0
DA:4759,0
DA:4763,0
DA:4764,0
DA:4765,0
DA:4766,0
DA:4767,0
DA:4769,0
DA:4772,0
DA:4773,0
DA:4774,0
DA:4775,0
DA:4776,0
DA:4779,0
DA:4780,0
DA:4782,0
DA:4783,0
DA:4784,0
DA:4786,0
DA:4788,0
DA:4789,0
DA:4791,0
DA:4793,0
DA:4796,0
DA:4797,0
DA:4798,0
DA:4799,0
DA:4800,0
DA:4801,0
DA:4802,0
DA:4806,0
DA:4808,0
DA:4812,0
DA:4813,0
DA:4816,0
DA:4820,0
DA:4821,0
DA:4822,0
DA:4823,0
DA:4824,0
DA:4825,0
DA:4826,0
DA:4830,0
DA:4832,0
DA:4835,0
DA:4836,0
DA:4839,0
DA:4842,0
DA:4843,0
DA:4846,0
DA:4848,0
DA:4849,0
DA:4851,0
DA:4852,0
DA:4853,0
DA:4855,0
DA:4856,0
DA:4858,0
DA:4860,0
DA:4861,0
DA:4863,0
DA:4865,0
DA:4866,0
DA:4868,0
DA:4869,0
DA:4872,0
DA:4874,0
DA:4875,0
DA:4876,0
DA:4877,0
DA:4878,0
DA:4880,0
DA:4882,0
DA:4888,0
DA:4889,0
DA:4890,0
DA:4892,0
DA:4895,0
DA:4896,0
DA:4899,0
DA:4901,0
DA:4902,0
DA:4903,0
DA:4905,0
DA:4907,0
DA:4909,0
DA:4911,0
DA:4912,0
DA:4913,0
DA:4916,0
DA:4917,0
DA:4919,0
DA:4920,0
DA:4923,0
DA:4924,0
DA:4926,0
DA:4927,0
DA:4929,0
DA:4930,0
DA:4931,0
DA:4932,0
DA:4933,0
DA:4935,0
DA:4937,0
DA:4943,0
DA:4944,0
DA:4945,0
DA:4947,0
DA:4952,0
DA:4953,0
DA:4955,0
DA:4957,0
DA:4958,0
DA:4959,0
DA:4960,0
DA:4961,0
DA:4962,0
DA:4964,0
DA:4966,0
DA:4967,0
DA:4969,0
DA:4970,0
DA:4971,0
DA:4973,0
DA:4978,0
DA:4979,0
DA:4982,0
DA:4984,0
DA:4985,0
DA:4986,0
DA:4987,0
DA:4988,0
DA:4989,0
DA:4991,0
DA:4992,0
DA:5004,0
DA:5005,0
DA:5006,0
DA:5007,0
DA:5008,0
DA:5009,0
DA:5013,0
DA:5014,0
DA:5015,0
DA:5016,0
DA:5017,0
DA:5018,0
DA:5021,0
DA:5022,0
DA:5024,0
DA:5025,0
DA:5026,0
DA:5029,0
DA:5030,0
DA:5031,0
DA:5032,0
DA:5037,0
DA:5038,0
DA:5039,0
DA:5040,0
DA:5044,0
DA:5045,0
DA:5046,0
DA:5048,0
DA:5050,0
DA:5051,0
DA:5052,0
DA:5057,0
DA:5059,0
DA:5060,0
DA:5061,0
DA:5063,0
DA:5073,2
DA:5119,4
DA:5123,49
DA:5133,49
DA:5140,1
DA:5141,2
DA:5144,1
DA:5148,0
DA:5149,0
DA:5150,0
DA:5152,1
DA:5154,2
DA:5156,1
DA:5157,0
DA:5158,0
DA:5159,0
DA:5160,0
DA:5161,0
DA:5165,1
DA:5179,1
DA:5180,1
DA:5181,1
DA:5182,1
DA:5184,1
DA:5190,1
DA:5191,1
DA:5192,1
DA:5197,1
DA:5198,1
DA:5199,1
DA:5200,0
DA:5201,0
DA:5202,1
DA:5207,17
DA:5214,1
DA:5215,1
DA:5218,1
DA:5219,1
DA:5220,1
DA:5222,1
DA:5229,0
DA:5230,0
DA:5233,0
DA:5234,0
DA:5235,0
DA:5237,0
DA:5241,0
DA:5242,0
DA:5245,0
DA:5246,0
DA:5247,0
DA:5258,178
DA:5267,178
DA:5268,178
DA:5273,0
DA:5274,0
DA:5278,0
DA:5279,0
DA:5283,16
DA:5284,16
DA:5289,2
DA:5290,2
DA:5295,0
DA:5296,0
DA:5298,0
DA:5299,0
DA:5301,0
DA:5302,0
DA:5304,0
DA:5305,0
DA:5310,1
DA:5311,1
DA:5315,1
DA:5316,1
DA:5320,1
DA:5323,1
DA:5324,1
DA:5328,0
DA:5329,0
DA:5333,0
DA:5334,0
DA:5338,0
DA:5341,2
DA:5345,0
DA:5346,0
DA:5350,1
DA:5351,1
DA:5356,1
DA:5360,0
DA:5364,14
DA:5365,14
DA:5370,0
DA:5371,0
DA:5377,0
DA:5378,0
DA:5383,0
DA:5384,0
DA:5387,28
DA:5388,28
DA:5389,28
DA:5392,14
DA:5393,14
DA:5394,14
DA:5395,14
DA:5398,14
DA:5399,14
DA:5400,14
DA:5401,14
DA:5405,14
DA:5417,0
DA:5418,0
DA:5419,0
DA:5422,0
DA:5423,0
DA:5430,2
DA:5435,2
DA:5436,2
DA:5438,2
DA:5439,2
DA:5440,0
DA:5442,0
DA:5443,0
DA:5444,0
DA:5445,0
DA:5446,0
DA:5450,2
DA:5451,0
DA:5453,2
DA:5457,2
DA:5458,2
DA:5461,2
DA:5468,2
DA:5479,0
DA:5490,2
DA:5492,0
DA:5500,2
DA:5507,0
DA:5509,0
DA:5510,0
DA:5517,1
DA:5520,1
DA:5546,1
DA:5553,1
DA:5602,1
DA:5605,1
DA:5606,1
DA:5607,1
DA:5612,0
DA:5613,0
DA:5619,0
DA:5621,0
DA:5622,0
DA:5623,0
DA:5627,0
DA:5629,0
DA:5630,0
DA:5631,0
DA:5636,0
DA:5638,0
DA:5639,0
DA:5640,0
DA:5643,0
DA:5648,0
DA:5649,0
DA:5653,1
DA:5656,1
DA:5660,0
DA:5662,0
DA:5663,0
DA:5664,0
DA:5667,0
DA:5668,0
DA:5669,0
DA:5670,0
DA:5674,1
DA:5675,1
DA:5677,1
DA:5678,1
DA:5679,1
DA:5681,1
DA:5683,1
DA:5684,1
DA:5685,1
DA:5686,1
DA:5687,1
DA:5688,1
DA:5689,1
DA:5690,1
DA:5691,1
DA:5692,1
DA:5693,1
DA:5694,1
DA:5696,1
DA:5699,7
DA:5700,1
DA:5701,1
DA:5703,2
DA:5705,1
DA:5708,1
DA:5710,1
DA:5711,2
DA:5718,0
DA:5719,0
DA:5722,0
DA:5723,0
DA:5724,0
DA:5725,0
DA:5726,0
DA:5727,0
DA:5729,0
DA:5730,0
DA:5732,0
DA:5733,0
DA:5738,1
DA:5739,1
DA:5740,0
DA:5741,1
DA:5746,1
DA:5747,1
DA:5749,1
DA:5750,0
DA:5751,0
DA:5752,1
DA:5753,0
DA:5754,0
DA:5755,1
DA:5756,0
DA:5757,0
DA:5765,1
DA:5770,1
DA:5771,1
DA:5772,1
DA:5773,0
DA:5774,0
DA:5775,0
DA:5776,0
DA:5778,0
DA:5779,0
DA:5782,1
DA:5790,2
DA:5792,2
DA:5793,1
DA:5801,1
DA:5802,1
DA:5808,1
DA:5812,1
DA:5814,1
DA:5815,0
DA:5820,1
DA:5830,2
DA:5844,7
DA:5851,13
DA:5852,13
DA:5853,0
DA:5857,7
DA:5858,7
DA:5859,0
DA:5864,7
DA:5865,7
DA:5867,7
DA:5869,7
DA:5874,0
DA:5875,0
DA:5879,7
DA:5882,7
DA:5883,7
DA:5884,7
DA:5888,0
DA:5889,0
DA:5894,0
DA:5895,0
DA:5896,0
DA:5897,0
DA:5899,0
DA:5900,0
DA:5901,0
DA:5903,0
DA:5904,0
DA:5917,1
DA:5920,1
DA:5923,1
DA:5927,1
DA:5931,1
DA:5932,0
DA:5934,0
DA:5936,0
DA:5938,0
DA:5939,0
DA:5942,0
DA:5943,0
DA:5946,0
DA:5947,0
DA:5955,1
DA:5960,1
DA:5963,1
DA:5971,1
DA:5977,1
DA:5978,1
DA:5981,1
DA:5983,0
DA:5984,0
DA:5987,1
DA:5990,1
DA:5992,1
DA:5994,1
DA:5995,1
DA:5999,1
DA:6002,1
DA:6010,1
DA:6011,1
DA:6014,2
DA:6017,1
DA:6019,1
DA:6022,1
DA:6023,0
DA:6027,0
DA:6031,1
DA:6034,1
DA:6037,1
DA:6038,1
DA:6039,1
DA:6040,1
DA:6045,1
DA:6049,0
DA:6050,0
DA:6052,0
DA:6053,0
DA:6054,0
DA:6055,0
DA:6056,0
DA:6058,0
DA:6059,1
DA:6060,8
DA:6062,7
DA:6063,7
DA:6064,0
DA:6065,0
DA:6066,0
DA:6068,0
DA:6071,0
DA:6075,0
DA:6077,0
DA:6084,1
DA:6085,1
DA:6086,1
DA:6088,1
DA:6090,0
DA:6093,0
DA:6102,0
DA:6103,0
DA:6106,1
DA:6109,1
DA:6112,1
DA:6113,1
DA:6122,1
DA:6124,1
DA:6126,0
DA:6130,1
DA:6132,1
DA:6133,1
DA:6134,1
DA:6135,1
DA:6139,1
DA:6141,0
DA:6142,0
DA:6143,0
DA:6145,0
DA:6147,0
DA:6149,1
DA:6150,0
DA:6159,1
DA:6167,1
DA:6168,1
DA:6169,1
DA:6170,0
DA:6171,0
DA:6172,0
DA:6176,0
DA:6177,0
DA:6179,0
DA:6181,1
DA:6190,2
DA:6192,2
DA:6193,0
DA:6196,2
DA:6197,2
DA:6199,2
DA:6200,2
DA:6201,0
DA:6202,0
DA:6203,0
DA:6204,0
DA:6205,0
DA:6206,0
DA:6207,0
DA:6208,0
DA:6209,0
DA:6210,0
DA:6211,0
DA:6212,0
DA:6213,0
DA:6214,0
DA:6215,0
DA:6216,0
DA:6217,0
DA:6219,0
DA:6220,0
DA:6221,0
DA:6222,0
DA:6223,0
DA:6224,0
DA:6225,0
DA:6226,0
DA:6228,0
DA:6234,4
DA:6235,4
DA:6236,4
DA:6237,4
DA:6241,0
DA:6243,0
DA:6245,0
DA:6252,0
DA:6253,0
DA:6263,1
DA:6265,1
DA:6266,1
DA:6268,1
DA:6269,1
DA:6272,1
DA:6273,1
DA:6278,1
DA:6279,1
DA:6280,8
DA:6281,7
DA:6282,7
DA:6284,14
DA:6285,7
DA:6289,14
DA:6290,7
DA:6291,7
DA:6294,7
DA:6295,7
DA:6297,7
DA:6298,7
DA:6302,7
DA:6303,0
DA:6304,7
DA:6305,7
DA:6307,7
DA:6308,7
DA:6310,7
DA:6311,7
DA:6314,1
DA:6315,1
DA:6321,1
DA:6322,1
DA:6325,0
DA:6328,1
DA:6329,1
DA:6330,1
DA:6331,1
DA:6332,1
DA:6333,1
DA:6334,1
DA:6338,0
DA:6339,1
DA:6345,0
DA:6346,0
DA:6347,0
DA:6348,0
DA:6349,0
DA:6350,0
DA:6352,0
DA:6353,0
DA:6354,0
DA:6356,0
DA:6357,0
DA:6361,0
DA:6364,0
DA:6366,0
DA:6368,0
DA:6369,0
DA:6371,0
DA:6372,0
DA:6373,0
DA:6374,0
DA:6375,0
DA:6376,0
DA:6377,0
DA:6378,0
DA:6381,0
DA:6383,0
DA:6385,0
DA:6386,0
DA:6387,0
DA:6390,0
DA:6392,0
DA:6396,0
DA:6398,0
DA:6399,0
DA:6401,0
DA:6402,0
DA:6403,0
DA:6404,0
DA:6405,0
DA:6406,0
DA:6407,0
DA:6408,0
DA:6409,0
DA:6410,0
DA:6412,0
DA:6413,0
DA:6414,0
DA:6416,0
DA:6423,0
DA:6425,0
DA:6426,0
DA:6427,0
DA:6429,0
DA:6434,51
DA:6435,51
DA:6439,1
DA:6443,51
DA:6447,32
DA:6448,32
DA:6449,30
DA:6451,2
DA:6452,0
DA:6454,2
DA:6459,0
DA:6461,0
DA:6464,0
DA:6465,0
DA:6468,0
DA:6469,0
DA:6471,0
DA:6474,1
DA:6475,8
DA:6477,7
DA:6479,7
DA:6481,1
DA:6494,0
DA:6497,0
DA:6506,39
DA:6508,22
DA:6512,22
DA:6514,22
DA:6520,0
DA:6521,0
DA:6522,0
DA:6523,0
DA:6524,0
DA:6526,0
DA:6534,0
DA:6537,0
DA:6541,0
DA:6542,0
DA:6543,0
DA:6546,0
DA:6549,0
DA:6550,0
DA:6556,0
DA:6559,0
DA:6560,0
DA:6572,0
DA:6574,0
DA:6577,0
DA:6580,0
DA:6581,0
DA:6588,0
DA:6590,0
DA:6593,0
DA:6596,0
DA:6597,0
DA:6605,0
DA:6607,0
DA:6610,0
DA:6613,0
DA:6614,0
DA:6623,0
DA:6624,0
DA:6625,0
DA:6626,0
DA:6627,0
DA:6628,0
DA:6640,0
DA:6641,0
DA:6648,0
DA:6649,0
DA:6650,0
DA:6651,0
DA:6654,0
DA:6656,0
DA:6657,0
DA:6658,0
DA:6659,0
DA:6660,0
DA:6661,0
DA:6662,0
DA:6663,0
DA:6664,0
DA:6665,0
DA:6666,0
DA:6667,0
DA:6669,0
DA:6671,0
DA:6770,0
DA:6780,0
DA:6781,0
DA:6782,0
DA:6783,0
DA:6784,0
DA:6785,0
DA:6786,0
DA:6787,0
DA:6788,0
DA:6789,0
DA:6790,0
DA:6791,0
DA:6792,0
DA:6793,0
DA:6794,0
DA:6795,0
DA:6796,0
DA:6797,0
DA:6798,0
DA:6799,0
DA:6800,0
DA:6801,0
DA:6802,0
DA:6803,0
DA:6807,0
DA:6808,0
DA:6809,0
DA:6810,0
DA:6811,0
DA:6813,0
DA:6814,0
DA:6815,0
DA:6816,0
DA:6817,0
DA:6818,0
DA:6819,0
DA:6821,0
DA:6828,1
DA:6829,1
DA:6830,1
DA:6831,0
DA:6832,0
DA:6836,0
DA:6837,0
DA:6838,0
DA:6840,0
DA:6841,0
DA:6842,0
DA:6843,0
DA:6845,0
DA:6848,0
DA:6851,0
DA:6853,0
DA:6854,0
DA:6858,0
DA:6861,0
DA:6865,0
DA:6869,1
DA:6873,0
DA:6875,1
DA:6883,1
DA:6933,1
DA:6946,1
DA:6947,0
DA:6948,0
DA:6949,0
DA:6956,1
DA:6958,1
DA:6960,1
DA:6962,1
DA:6963,2
DA:6964,1
DA:6979,1
DA:6980,1
DA:6994,1
DA:6998,1
DA:7000,1
DA:7004,0
DA:7008,0
DA:7010,0
DA:7014,0
DA:7016,0
DA:7017,0
DA:7018,0
DA:7019,0
DA:7024,0
DA:7026,0
DA:7034,0
DA:7037,0
DA:7038,0
DA:7039,0
DA:7040,0
DA:7041,0
DA:7043,0
DA:7046,0
DA:7050,0
DA:7058,0
DA:7065,0
DA:7066,0
DA:7067,0
DA:7068,0
DA:7072,0
DA:7082,0
DA:7083,0
DA:7092,0
DA:7093,0
DA:7094,0
DA:7095,0
DA:7096,0
DA:7098,0
DA:7099,0
DA:7102,0
DA:7103,0
DA:7104,0
LF:2748
LH:902
end_of_record
TN:
SF:/home/savvich/lab3/tests/tests_gtest.cpp
FN:11,11,_ZN34DynamicArrayTest_FullCoverage_Test8TestBodyEv
FN:11,11,_ZN34DynamicArrayTest_FullCoverage_TestC2Ev
FN:11,11,_ZN34DynamicArrayTest_FullCoverage_TestD0Ev
FN:11,11,_ZN34DynamicArrayTest_FullCoverage_TestD2Ev
FN:114,114,_ZN31HashTableTest_FullCoverage_Test8TestBodyEv
FN:114,114,_ZN31HashTableTest_FullCoverage_TestC2Ev
FN:114,114,_ZN31HashTableTest_FullCoverage_TestD0Ev
FN:114,114,_ZN31HashTableTest_FullCoverage_TestD2Ev
FN:136,157,_ZN26TreeTest_FullCoverage_Test8TestBodyEv
FN:136,157,_ZN26TreeTest_FullCoverage_TestC2Ev
FN:136,157,_ZN26TreeTest_FullCoverage_TestD0Ev
FN:136,157,_ZN26TreeTest_FullCoverage_TestD2Ev
FN:159,162,main
FN:46,46,_ZN32SinglyListTest_FullCoverage_Test8TestBodyEv
FN:46,46,_ZN32SinglyListTest_FullCoverage_TestC2Ev
FN:46,46,_ZN32SinglyListTest_FullCoverage_TestD0Ev
FN:46,46,_ZN32SinglyListTest_FullCoverage_TestD2Ev
FN:64,64,_ZN32DoublyListTest_FullCoverage_Test8TestBodyEv
FN:64,64,_ZN32DoublyListTest_FullCoverage_TestC2Ev
FN:64,64,_ZN32DoublyListTest_FullCoverage_TestD0Ev
FN:64,64,_ZN32DoublyListTest_FullCoverage_TestD2Ev
FN:76,76,_ZN27StackTest_FullCoverage_Test8TestBodyEv
FN:76,76,_ZN27StackTest_FullCoverage_TestC2Ev
FN:76,76,_ZN27StackTest_FullCoverage_TestD0Ev
FN:76,76,_ZN27StackTest_FullCoverage_TestD2Ev
FN:93,93,_ZN27QueueTest_FullCoverage_Test8TestBodyEv
FN:93,93,_ZN27QueueTest_FullCoverage_TestC2Ev
FN:93,93,_ZN27QueueTest_FullCoverage_TestD0Ev
FN:93,93,_ZN27QueueTest_FullCoverage_TestD2Ev
FNDA:1,_ZN34DynamicArrayTest_FullCoverage_Test8TestBodyEv
FNDA:1,_ZN34DynamicArrayTest_FullCoverage_TestC2Ev
FNDA:1,_ZN34DynamicArrayTest_FullCoverage_TestD0Ev
FNDA:1,_ZN34DynamicArrayTest_FullCoverage_TestD2Ev
FNDA:1,_ZN31HashTableTest_FullCoverage_Test8TestBodyEv
FNDA:1,_ZN31HashTableTest_FullCoverage_TestC2Ev
FNDA:1,_ZN31HashTableTest_FullCoverage_TestD0Ev
FNDA:1,_ZN31HashTableTest_FullCoverage_TestD2Ev
FNDA:1,_ZN26TreeTest_FullCoverage_Test8TestBodyEv
FNDA:1,_ZN26TreeTest_FullCoverage_TestC2Ev
FNDA:1,_ZN26TreeTest_FullCoverage_TestD0Ev
FNDA:1,_ZN26TreeTest_FullCoverage_TestD2Ev
FNDA:1,main
FNDA:1,_ZN32SinglyListTest_FullCoverage_Test8TestBodyEv
FNDA:1,_ZN32SinglyListTest_FullCoverage_TestC2Ev
FNDA:1,_ZN32SinglyListTest_FullCoverage_TestD0Ev
FNDA:1,_ZN32SinglyListTest_FullCoverage_TestD2Ev
FNDA:1,_ZN32DoublyListTest_FullCoverage_Test8TestBodyEv
FNDA:1,_ZN32DoublyListTest_FullCoverage_TestC2Ev
FNDA:1,_ZN32DoublyListTest_FullCoverage_TestD0Ev
FNDA:1,_ZN32DoublyListTest_FullCoverage_TestD2Ev
FNDA:1,_ZN27StackTest_FullCoverage_Test8TestBodyEv
FNDA:1,_ZN27StackTest_FullCoverage_TestC2Ev
FNDA:1,_ZN27StackTest_FullCoverage_TestD0Ev
FNDA:1,_ZN27StackTest_FullCoverage_TestD2Ev
FNDA:1,_ZN27QueueTest_FullCoverage_Test8TestBodyEv
FNDA:1,_ZN27QueueTest_FullCoverage_TestC2Ev
FNDA:1,_ZN27QueueTest_FullCoverage_TestD0Ev
FNDA:1,_ZN27QueueTest_FullCoverage_TestD2Ev
FNF:29
FNH:29
DA:11,4
DA:12,1
DA:14,21
DA:15,1
DA:16,1
DA:17,1
DA:20,1
DA:21,1
DA:24,1
DA:25,2
DA:26,1
DA:27,1
DA:28,1
DA:31,1
DA:32,2
DA:33,1
DA:34,1
DA:35,1
DA:38,2
DA:39,1
DA:40,1
DA:41,1
DA:42,1
DA:43,1
DA:46,4
DA:47,1
DA:48,2
DA:49,1
DA:50,1
DA:53,1
DA:54,2
DA:55,1
DA:56,1
DA:58,1
DA:59,1
DA:60,2
DA:61,1
DA:64,4
DA:65,1
DA:66,2
DA:67,1
DA:68,1
DA:71,1
DA:72,1
DA:73,1
DA:76,4
DA:77,1
DA:78,2
DA:79,1
DA:80,1
DA:81,1
DA:82,1
DA:85,2
DA:86,1
DA:87,2
DA:88,1
DA:89,1
DA:90,1
DA:93,4
DA:94,1
DA:95,2
DA:96,2
DA:97,2
DA:98,1
DA:100,1
DA:103,1
DA:104,2
DA:105,1
DA:106,1
DA:109,2
DA:110,1
DA:111,1
DA:114,4
DA:115,1
DA:116,4
DA:117,4
DA:118,4
DA:120,2
DA:121,2
DA:122,2
DA:125,4
DA:126,2
DA:129,1
DA:130,2
DA:131,2
DA:132,2
DA:133,1
DA:136,4
DA:137,1
DA:138,1
DA:139,1
DA:140,1
DA:142,1
DA:143,1
DA:144,1
DA:145,1
DA:148,1
DA:149,2
DA:150,1
DA:151,1
DA:154,1
DA:155,1
DA:156,2
DA:157,1
DA:159,1
DA:160,1
DA:161,1
LF:107
LH:107
end_of_record
TN:
SF:/usr/include/c++/13/atomic
FN:833,833,_ZNSt6atomicIiEC2Ei
FNDA:0,_ZNSt6atomicIiEC2Ei
FNF:1
FNH:0
DA:833,0
LF:1
LH:0
end_of_record
TN:
SF:/usr/include/c++/13/bits/alloc_traits.h
FNF:0
FNH:0
DA:482,91
DA:517,91
DA:538,112
DA:542,112
DA:562,34
DA:574,118
DA:588,12
DA:755,4
DA:759,4
DA:792,12
DA:948,99
DA:949,99
LF:12
LH:12
end_of_record
TN:
SF:/usr/include/c++/13/bits/allocated_ptr.h
FN:53,55,_ZNSt15__allocated_ptrISaISt10_List_nodeISt4pairIcPKcEEEEC2ERS6_PS5_
FN:71,75,_ZNSt15__allocated_ptrISaISt10_List_nodeISt4pairIcPKcEEEED2Ev
FN:79,83,_ZNSt15__allocated_ptrISaISt10_List_nodeISt4pairIcPKcEEEEaSEDn
FNDA:0,_ZNSt15__allocated_ptrISaISt10_List_nodeISt4pairIcPKcEEEEC2ERS6_PS5_
FNDA:0,_ZNSt15__allocated_ptrISaISt10_List_nodeISt4pairIcPKcEEEED2Ev
FNDA:0,_ZNSt15__allocated_ptrISaISt10_List_nodeISt4pairIcPKcEEEEaSEDn
FNF:3
FNH:0
DA:53,0
DA:54,0
DA:55,0
DA:71,0
DA:73,0
DA:74,0
DA:75,0
DA:79,0
DA:81,0
DA:82,0
LF:10
LH:0
end_of_record
TN:
SF:/usr/include/c++/13/bits/allocator.h
FNF:0
FNH:0
DA:163,245
DA:168,18
DA:178,22
DA:184,168
DA:217,0
DA:223,0
LF:6
LH:4
end_of_record
TN:
SF:/usr/include/c++/13/bits/atomic_base.h
FN:362,362,_ZNSt13__atomic_baseIiEC2Ei
FNDA:0,_ZNSt13__atomic_baseIiEC2Ei
FNF:1
FNH:0
DA:362,0
DA:645,0
LF:2
LH:0
end_of_record
TN:
SF:/usr/include/c++/13/bits/basic_string.h
FN:3528,3541,_ZSt12__str_concatINSt7__cxx1112basic_stringIcSt11char_traitsIcESaIcEEEET_PKNS6_10value_typeENS6_9size_typeES9_SA_RKNS6_14allocator_typeE
FN:3571,3579,_ZStplIcSt11char_traitsIcESaIcEENSt7__cxx1112basic_stringIT_T0_T1_EEPKS5_RKS8_
FN:3607,3615,_ZStplIcSt11char_traitsIcESaIcEENSt7__cxx1112basic_stringIT_T0_T1_EERKS8_PKS5_
FN:3625,3631,_ZStplIcSt11char_traitsIcESaIcEENSt7__cxx1112basic_stringIT_T0_T1_EERKS8_S5_
FN:3637,3639,_ZStplIcSt11char_traitsIcESaIcEENSt7__cxx1112basic_stringIT_T0_T1_EEOS8_RKS8_
FN:3651,3669,_ZStplIcSt11char_traitsIcESaIcEENSt7__cxx1112basic_stringIT_T0_T1_EEOS8_S9_
FN:3674,3676,_ZStplIcSt11char_traitsIcESaIcEENSt7__cxx1112basic_stringIT_T0_T1_EEPKS5_OS8_
FN:3688,3690,_ZStplIcSt11char_traitsIcESaIcEENSt7__cxx1112basic_stringIT_T0_T1_EEOS8_PKS5_
FN:3695,3697,_ZStplIcSt11char_traitsIcESaIcEENSt7__cxx1112basic_stringIT_T0_T1_EEOS8_S5_
FN:3710,3716,_ZSteqIcSt11char_traitsIcESaIcEEbRKNSt7__cxx1112basic_stringIT_T0_T1_EESA_
FN:3727,3732,_ZSteqIcSt11char_traitsIcESaIcEEbRKNSt7__cxx1112basic_stringIT_T0_T1_EEPKS5_
FN:3774,3776,_ZSteqIcSt11char_traitsIcESaIcEEbPKT_RKNSt7__cxx1112basic_stringIS3_T0_T1_EE
FN:3815,3817,_ZStneIcSt11char_traitsIcESaIcEEbRKNSt7__cxx1112basic_stringIT_T0_T1_EEPKS5_
FN:3829,3832,_ZStltIcSt11char_traitsIcESaIcEEbRKNSt7__cxx1112basic_stringIT_T0_T1_EESA_
FN:3994,3997,_ZSt4swapIcSt11char_traitsIcESaIcEEvRNSt7__cxx1112basic_stringIT_T0_T1_EES9_
FN:4162,4173,_ZNSt7__cxx119to_stringEi
FN:4407,4408,_ZNKSt15__str_hash_baseIcSaIcENSt7__cxx1112basic_stringIcSt11char_traitsIcES0_EEEclERKS5_
FN:641,650,_ZNSt7__cxx1112basic_stringIcSt11char_traitsIcESaIcEEC2IS3_EEPKcRKS3_
FN:641,650,_ZNSt7__cxx1112basic_stringIwSt11char_traitsIwESaIwEEC2IS3_EEPKwRKS3_
FN:664,666,_ZNSt7__cxx1112basic_stringIcSt11char_traitsIcESaIcEEC2IS3_EEmcRKS3_
FN:760,770,_ZNSt7__cxx1112basic_stringIcSt11char_traitsIcESaIcEEC2IPKcvEET_S8_RKS3_
FN:795,796,_ZNSt7__cxx1112basic_stringIcSt11char_traitsIcESaIcEEC2ISt17basic_string_viewIcS2_EvEERKT_RKS3_
FNDA:10,_ZSt12__str_concatINSt7__cxx1112basic_stringIcSt11char_traitsIcESaIcEEEET_PKNS6_10value_typeENS6_9size_typeES9_SA_RKNS6_14allocator_typeE
FNDA:0,_ZStplIcSt11char_traitsIcESaIcEENSt7__cxx1112basic_stringIT_T0_T1_EEPKS5_RKS8_
FNDA:10,_ZStplIcSt11char_traitsIcESaIcEENSt7__cxx1112basic_stringIT_T0_T1_EERKS8_PKS5_
FNDA:0,_ZStplIcSt11char_traitsIcESaIcEENSt7__cxx1112basic_stringIT_T0_T1_EERKS8_S5_
FNDA:8,_ZStplIcSt11char_traitsIcESaIcEENSt7__cxx1112basic_stringIT_T0_T1_EEOS8_RKS8_
FNDA:2,_ZStplIcSt11char_traitsIcESaIcEENSt7__cxx1112basic_stringIT_T0_T1_EEOS8_S9_
FNDA:0,_ZStplIcSt11char_traitsIcESaIcEENSt7__cxx1112basic_stringIT_T0_T1_EEPKS5_OS8_
FNDA:42,_ZStplIcSt11char_traitsIcESaIcEENSt7__cxx1112basic_stringIT_T0_T1_EEOS8_PKS5_
FNDA:0,_ZStplIcSt11char_traitsIcESaIcEENSt7__cxx1112basic_stringIT_T0_T1_EEOS8_S5_
FNDA:63,_ZSteqIcSt11char_traitsIcESaIcEEbRKNSt7__cxx1112basic_stringIT_T0_T1_EESA_
FNDA:26,_ZSteqIcSt11char_traitsIcESaIcEEbRKNSt7__cxx1112basic_stringIT_T0_T1_EEPKS5_
FNDA:0,_ZSteqIcSt11char_traitsIcESaIcEEbPKT_RKNSt7__cxx1112basic_stringIS3_T0_T1_EE
FNDA:5,_ZStneIcSt11char_traitsIcESaIcEEbRKNSt7__cxx1112basic_stringIT_T0_T1_EEPKS5_
FNDA:0,_ZStltIcSt11char_traitsIcESaIcEEbRKNSt7__cxx1112basic_stringIT_T0_T1_EESA_
FNDA:0,_ZSt4swapIcSt11char_traitsIcESaIcEEvRNSt7__cxx1112basic_stringIT_T0_T1_EES9_
FNDA:20,_ZNSt7__cxx119to_stringEi
FNDA:7,_ZNKSt15__str_hash_baseIcSaIcENSt7__cxx1112basic_stringIcSt11char_traitsIcES0_EEEclERKS5_
FNDA:123,_ZNSt7__cxx1112basic_stringIcSt11char_traitsIcESaIcEEC2IS3_EEPKcRKS3_
FNDA:0,_ZNSt7__cxx1112basic_stringIwSt11char_traitsIwESaIwEEC2IS3_EEPKwRKS3_
FNDA:20,_ZNSt7__cxx1112basic_stringIcSt11char_traitsIcESaIcEEC2IS3_EEmcRKS3_
FNDA:0,_ZNSt7__cxx1112basic_stringIcSt11char_traitsIcESaIcEEC2IPKcvEET_S8_RKS3_
FNDA:0,_ZNSt7__cxx1112basic_stringIcSt11char_traitsIcESaIcEEC2ISt17basic_string_viewIcS2_EvEERKT_RKS3_
FNF:22
FNH:12
DA:355,118
DA:641,123
DA:642,123
DA:645,123
DA:646,0
DA:648,123
DA:649,123
DA:650,123
DA:664,20
DA:665,20
DA:666,20
DA:760,0
DA:762,0
DA:765,0
DA:770,0
DA:795,0
DA:796,0
DA:3528,10
DA:3536,10
DA:3537,10
DA:3538,10
DA:3539,10
DA:3540,10
DA:3541,0
DA:3571,0
DA:3578,0
DA:3607,10
DA:3614,20
DA:3625,0
DA:3630,0
DA:3637,8
DA:3639,8
DA:3651,2
DA:3656,2
DA:3658,2
DA:3661,2
DA:3664,2
DA:3665,2
DA:3666,0
DA:3668,2
DA:3674,0
DA:3676,0
DA:3688,42
DA:3690,42
DA:3695,0
DA:3697,0
DA:3710,63
DA:3714,63
DA:3715,63
DA:3727,26
DA:3730,26
DA:3731,26
DA:3774,0
DA:3776,0
DA:3815,5
DA:3817,5
DA:3829,0
DA:3832,0
DA:3994,0
DA:3997,0
DA:4162,20
DA:4167,20
DA:4168,20
DA:4169,20
DA:4170,20
DA:4171,20
DA:4172,20
DA:4407,7
DA:4408,7
LF:69
LH:46
end_of_record
TN:
SF:/usr/include/c++/13/bits/basic_string.tcc
FN:221,252,_ZNSt7__cxx1112basic_stringIcSt11char_traitsIcESaIcEE12_M_constructIPKcEEvT_S8_St20forward_iterator_tag
FN:221,252,_ZNSt7__cxx1112basic_stringIcSt11char_traitsIcESaIcEE12_M_constructIPcEEvT_S7_St20forward_iterator_tag
FN:221,252,_ZNSt7__cxx1112basic_stringIwSt11char_traitsIwESaIwEE12_M_constructIPKwEEvT_S8_St20forward_iterator_tag
FN:239,239,_ZZNSt7__cxx1112basic_stringIcSt11char_traitsIcESaIcEE12_M_constructIPKcEEvT_S8_St20forward_iterator_tagEN6_GuardC2EPS4_
FN:239,239,_ZZNSt7__cxx1112basic_stringIcSt11char_traitsIcESaIcEE12_M_constructIPcEEvT_S7_St20forward_iterator_tagEN6_GuardC2EPS4_
FN:239,239,_ZZNSt7__cxx1112basic_stringIwSt11char_traitsIwESaIwEE12_M_constructIPKwEEvT_S8_St20forward_iterator_tagEN6_GuardC2EPS4_
FN:242,242,_ZZNSt7__cxx1112basic_stringIcSt11char_traitsIcESaIcEE12_M_constructIPKcEEvT_S8_St20forward_iterator_tagEN6_GuardD2Ev
FN:242,242,_ZZNSt7__cxx1112basic_stringIcSt11char_traitsIcESaIcEE12_M_constructIPcEEvT_S7_St20forward_iterator_tagEN6_GuardD2Ev
FN:242,242,_ZZNSt7__cxx1112basic_stringIwSt11char_traitsIwESaIwEE12_M_constructIPKwEEvT_S8_St20forward_iterator_tagEN6_GuardD2Ev
FNDA:147,_ZNSt7__cxx1112basic_stringIcSt11char_traitsIcESaIcEE12_M_constructIPKcEEvT_S8_St20forward_iterator_tag
FNDA:0,_ZNSt7__cxx1112basic_stringIcSt11char_traitsIcESaIcEE12_M_constructIPcEEvT_S7_St20forward_iterator_tag
FNDA:0,_ZNSt7__cxx1112basic_stringIwSt11char_traitsIwESaIwEE12_M_constructIPKwEEvT_S8_St20forward_iterator_tag
FNDA:147,_ZZNSt7__cxx1112basic_stringIcSt11char_traitsIcESaIcEE12_M_constructIPKcEEvT_S8_St20forward_iterator_tagEN6_GuardC2EPS4_
FNDA:0,_ZZNSt7__cxx1112basic_stringIcSt11char_traitsIcESaIcEE12_M_constructIPcEEvT_S7_St20forward_iterator_tagEN6_GuardC2EPS4_
FNDA:0,_ZZNSt7__cxx1112basic_stringIwSt11char_traitsIwESaIwEE12_M_constructIPKwEEvT_S8_St20forward_iterator_tagEN6_GuardC2EPS4_
FNDA:147,_ZZNSt7__cxx1112basic_stringIcSt11char_traitsIcESaIcEE12_M_constructIPKcEEvT_S8_St20forward_iterator_tagEN6_GuardD2Ev
FNDA:0,_ZZNSt7__cxx1112basic_stringIcSt11char_traitsIcESaIcEE12_M_constructIPcEEvT_S7_St20forward_iterator_tagEN6_GuardD2Ev
FNDA:0,_ZZNSt7__cxx1112basic_stringIwSt11char_traitsIwESaIwEE12_M_constructIPKwEEvT_S8_St20forward_iterator_tagEN6_GuardD2Ev
FNF:9
FNH:3
DA:221,147
DA:225,147
DA:227,147
DA:229,29
DA:230,29
DA:239,147
DA:242,147
DA:245,147
DA:247,147
DA:249,147
DA:251,147
DA:252,147
LF:12
LH:12
end_of_record
TN:
SF:/usr/include/c++/13/bits/char_traits.h
FN:136,137,_ZN9__gnu_cxx11char_traitsIcE2eqERKcS3_
FN:136,137,_ZN9__gnu_cxx11char_traitsIwE2eqERKwS3_
FN:199,206,_ZN9__gnu_cxx11char_traitsIcE6lengthEPKc
FN:199,206,_ZN9__gnu_cxx11char_traitsIwE6lengthEPKw
FN:366,371,_ZNSt11char_traitsIcE2ltERKcS2_
FN:374,390,_ZNSt11char_traitsIcE7compareEPKcS2_m
FN:393,400,_ZNSt11char_traitsIcE6lengthEPKc
FN:427,436,_ZNSt11char_traitsIcE4copyEPcPKcm
FN:524,531,_ZNSt11char_traitsIwE6lengthEPKw
FN:781,782,_ZNSt11char_traitsIDsE2eqERKDsS2_
FN:800,806,_ZNSt11char_traitsIDsE6lengthEPKDs
FN:910,911,_ZNSt11char_traitsIDiE2eqERKDiS2_
FN:929,935,_ZNSt11char_traitsIDiE6lengthEPKDi
FNDA:0,_ZN9__gnu_cxx11char_traitsIcE2eqERKcS3_
FNDA:0,_ZN9__gnu_cxx11char_traitsIwE2eqERKwS3_
FNDA:0,_ZN9__gnu_cxx11char_traitsIcE6lengthEPKc
FNDA:0,_ZN9__gnu_cxx11char_traitsIwE6lengthEPKw
FNDA:0,_ZNSt11char_traitsIcE2ltERKcS2_
FNDA:41,_ZNSt11char_traitsIcE7compareEPKcS2_m
FNDA:159,_ZNSt11char_traitsIcE6lengthEPKc
FNDA:0,_ZNSt11char_traitsIcE4copyEPcPKcm
FNDA:0,_ZNSt11char_traitsIwE6lengthEPKw
FNDA:0,_ZNSt11char_traitsIDsE2eqERKDsS2_
FNDA:0,_ZNSt11char_traitsIDsE6lengthEPKDs
FNDA:0,_ZNSt11char_traitsIDiE2eqERKDiS2_
FNDA:0,_ZNSt11char_traitsIDiE6lengthEPKDi
FNF:13
FNH:2
DA:136,0
DA:137,0
DA:199,0
DA:202,0
DA:203,0
DA:204,0
DA:205,0
DA:366,0
DA:369,0
DA:370,0
DA:374,41
DA:376,41
DA:377,3
DA:379,38
DA:381,0
DA:382,0
DA:383,0
DA:384,0
DA:385,0
DA:386,0
DA:389,38
DA:393,159
DA:396,159
DA:397,0
DA:399,159
DA:427,0
DA:429,0
DA:430,0
DA:435,0
DA:524,0
DA:527,0
DA:528,0
DA:530,0
DA:781,0
DA:782,0
DA:800,0
DA:802,0
DA:803,0
DA:804,0
DA:805,0
DA:910,0
DA:911,0
DA:929,0
DA:931,0
DA:932,0
DA:933,0
DA:934,0
LF:47
LH:8
end_of_record
TN:
SF:/usr/include/c++/13/bits/charconv.h
FN:55,74,_ZNSt8__detail14__to_chars_lenIjEEjT_i
FN:81,110,_ZNSt8__detail18__to_chars_10_implIjEEvPcjT_
FNDA:20,_ZNSt8__detail14__to_chars_lenIjEEjT_i
FNDA:20,_ZNSt8__detail18__to_chars_10_implIjEEvPcjT_
FNF:2
FNH:2
DA:55,20
DA:61,20
DA:62,20
DA:63,20
DA:64,20
DA:67,20
DA:68,10
DA:69,0
DA:70,0
DA:71,0
DA:72,0
DA:81,20
DA:87,20
DA:93,20
DA:94,20
DA:96,0
DA:97,0
DA:98,0
DA:99,0
DA:100,0
DA:102,20
DA:104,10
DA:105,10
DA:106,10
DA:109,10
DA:110,20
LF:26
LH:17
end_of_record
TN:
SF:/usr/include/c++/13/bits/chrono.h
FN:1019,1023,_ZNSt6chrono15time_point_castINS_8durationIlSt5ratioILl1ELl1000000000EEEENS_3_V212system_clockENS1_IlS2_ILl1ELl1EEEEEENSt9enable_ifIXsrNS_13__is_durationIT_EE5valueENS_10time_pointIT0_SB_EEE4typeERKNSD_ISE_T1_EE
FN:1141,1143,_ZNSt6chronomiINS_3_V212steady_clockENS_8durationIlSt5ratioILl1ELl1000000000EEEES6_EENSt11common_typeIJT0_T1_EE4typeERKNS_10time_pointIT_S8_EERKNSC_ISD_S9_EE
FN:1141,1143,_ZNSt6chronomiINS_3_V212system_clockENS_8durationIlSt5ratioILl1ELl1000000000EEEES6_EENSt11common_typeIJT0_T1_EE4typeERKNS_10time_pointIT_S8_EERKNSC_ISD_S9_EE
FN:1252,1257,_ZNSt6chrono3_V212system_clock11from_time_tEl
FN:208,213,_ZNSt6chrono20__duration_cast_implINS_8durationIlSt5ratioILl1ELl1000EEEES2_ILl1ELl1000000EElLb1ELb0EE6__castIlS2_ILl1ELl1000000000EEEES4_RKNS1_IT_T0_EE
FN:221,226,_ZNSt6chrono20__duration_cast_implINS_8durationIlSt5ratioILl1ELl1000000000EEEES2_ILl1000000000ELl1EElLb0ELb1EE6__castIlS2_ILl1ELl1EEEES4_RKNS1_IT_T0_EE
FN:273,291,_ZNSt6chrono13duration_castINS_8durationIlSt5ratioILl1ELl1000000000EEEElS2_ILl1ELl1EEEENSt9enable_ifIXsrNS_13__is_durationIT_EE5valueES8_E4typeERKNS1_IT0_T1_EE
FN:273,291,_ZNSt6chrono13duration_castINS_8durationIlSt5ratioILl1ELl1000EEEElS2_ILl1ELl1000000000EEEENSt9enable_ifIXsrNS_13__is_durationIT_EE5valueES8_E4typeERKNS1_IT0_T1_EE
FN:573,574,_ZNSt6chrono8durationIlSt5ratioILl1ELl1000000000EEEC1IlvEERKT_
FN:573,574,_ZNSt6chrono8durationIlSt5ratioILl1ELl1000EEEC2IlvEERKT_
FN:573,574,_ZNSt6chrono8durationIlSt5ratioILl1ELl1EEEC1IlvEERKT_
FN:589,590,_ZNKSt6chrono8durationIlSt5ratioILl1ELl1000000000EEE5countEv
FN:589,590,_ZNKSt6chrono8durationIlSt5ratioILl1ELl1000EEE5countEv
FN:589,590,_ZNKSt6chrono8durationIlSt5ratioILl1ELl1EEE5countEv
FN:710,717,_ZNSt6chronomiIlSt5ratioILl1ELl1000000000EElS2_EENSt11common_typeIJNS_8durationIT_T0_EENS4_IT1_T2_EEEE4typeERKS7_RKSA_
FN:936,938,_ZNSt6chrono10time_pointINS_3_V212system_clockENS_8durationIlSt5ratioILl1ELl1000000000EEEEEC2ERKS6_
FN:936,938,_ZNSt6chrono10time_pointINS_3_V212system_clockENS_8durationIlSt5ratioILl1ELl1EEEEEC2ERKS6_
FN:949,950,_ZNKSt6chrono10time_pointINS_3_V212steady_clockENS_8durationIlSt5ratioILl1ELl1000000000EEEEE16time_since_epochEv
FN:949,950,_ZNKSt6chrono10time_pointINS_3_V212system_clockENS_8durationIlSt5ratioILl1ELl1000000000EEEEE16time_since_epochEv
FN:949,950,_ZNKSt6chrono10time_pointINS_3_V212system_clockENS_8durationIlSt5ratioILl1ELl1EEEEE16time_since_epochEv
FNDA:16,_ZNSt6chrono15time_point_castINS_8durationIlSt5ratioILl1ELl1000000000EEEENS_3_V212system_clockENS1_IlS2_ILl1ELl1EEEEEENSt9enable_ifIXsrNS_13__is_durationIT_EE5valueENS_10time_pointIT0_SB_EEE4typeERKNSD_ISE_T1_EE
FNDA:15,_ZNSt6chronomiINS_3_V212steady_clockENS_8durationIlSt5ratioILl1ELl1000000000EEEES6_EENSt11common_typeIJT0_T1_EE4typeERKNS_10time_pointIT_S8_EERKNSC_ISD_S9_EE
FNDA:16,_ZNSt6chronomiINS_3_V212system_clockENS_8durationIlSt5ratioILl1ELl1000000000EEEES6_EENSt11common_typeIJT0_T1_EE4typeERKNS_10time_pointIT_S8_EERKNSC_ISD_S9_EE
FNDA:16,_ZNSt6chrono3_V212system_clock11from_time_tEl
FNDA:31,_ZNSt6chrono20__duration_cast_implINS_8durationIlSt5ratioILl1ELl1000EEEES2_ILl1ELl1000000EElLb1ELb0EE6__castIlS2_ILl1ELl1000000000EEEES4_RKNS1_IT_T0_EE
FNDA:16,_ZNSt6chrono20__duration_cast_implINS_8durationIlSt5ratioILl1ELl1000000000EEEES2_ILl1000000000ELl1EElLb0ELb1EE6__castIlS2_ILl1ELl1EEEES4_RKNS1_IT_T0_EE
FNDA:16,_ZNSt6chrono13duration_castINS_8durationIlSt5ratioILl1ELl1000000000EEEElS2_ILl1ELl1EEEENSt9enable_ifIXsrNS_13__is_durationIT_EE5valueES8_E4typeERKNS1_IT0_T1_EE
FNDA:31,_ZNSt6chrono13duration_castINS_8durationIlSt5ratioILl1ELl1000EEEElS2_ILl1ELl1000000000EEEENSt9enable_ifIXsrNS_13__is_durationIT_EE5valueES8_E4typeERKNS1_IT0_T1_EE
FNDA:47,_ZNSt6chrono8durationIlSt5ratioILl1ELl1000000000EEEC1IlvEERKT_
FNDA:31,_ZNSt6chrono8durationIlSt5ratioILl1ELl1000EEEC2IlvEERKT_
FNDA:16,_ZNSt6chrono8durationIlSt5ratioILl1ELl1EEEC1IlvEERKT_
FNDA:93,_ZNKSt6chrono8durationIlSt5ratioILl1ELl1000000000EEE5countEv
FNDA:31,_ZNKSt6chrono8durationIlSt5ratioILl1ELl1000EEE5countEv
FNDA:16,_ZNKSt6chrono8durationIlSt5ratioILl1ELl1EEE5countEv
FNDA:31,_ZNSt6chronomiIlSt5ratioILl1ELl1000000000EElS2_EENSt11common_typeIJNS_8durationIT_T0_EENS4_IT1_T2_EEEE4typeERKS7_RKSA_
FNDA:16,_ZNSt6chrono10time_pointINS_3_V212system_clockENS_8durationIlSt5ratioILl1ELl1000000000EEEEEC2ERKS6_
FNDA:16,_ZNSt6chrono10time_pointINS_3_V212system_clockENS_8durationIlSt5ratioILl1ELl1EEEEEC2ERKS6_
FNDA:30,_ZNKSt6chrono10time_pointINS_3_V212steady_clockENS_8durationIlSt5ratioILl1ELl1000000000EEEEE16time_since_epochEv
FNDA:32,_ZNKSt6chrono10time_pointINS_3_V212system_clockENS_8durationIlSt5ratioILl1ELl1000000000EEEEE16time_since_epochEv
FNDA:16,_ZNKSt6chrono10time_pointINS_3_V212system_clockENS_8durationIlSt5ratioILl1ELl1EEEEE16time_since_epochEv
FNF:20
FNH:20
DA:208,31
DA:211,62
DA:212,31
DA:221,16
DA:224,32
DA:225,16
DA:273,47
DA:287,47
DA:573,94
DA:574,94
DA:589,140
DA:590,140
DA:710,31
DA:716,31
DA:936,32
DA:937,32
DA:938,32
DA:949,78
DA:950,78
DA:1019,16
DA:1022,16
DA:1141,31
DA:1143,31
DA:1252,16
DA:1256,16
LF:25
LH:25
end_of_record
TN:
SF:/usr/include/c++/13/bits/cpp_type_traits.h
FN:607,608,_ZSt12__miter_baseIN9__gnu_cxx17__normal_iteratorIPKN7testing8internal13edit_distance8EditTypeESt6vectorIS5_SaIS5_EEEEET_SC_
FN:607,608,_ZSt12__miter_baseIN9__gnu_cxx17__normal_iteratorIPKdSt6vectorIdSaIdEEEEET_S8_
FN:607,608,_ZSt12__miter_baseIN9__gnu_cxx17__normal_iteratorIPNSt7__cxx1112basic_stringIcSt11char_traitsIcESaIcEEESt6vectorIS7_SaIS7_EEEEET_SD_
FN:607,608,_ZSt12__miter_baseIN9__gnu_cxx17__normal_iteratorIPPN7testing17TestEventListenerESt6vectorIS4_SaIS4_EEEEET_SA_
FN:607,608,_ZSt12__miter_baseIN9__gnu_cxx17__normal_iteratorIPPN7testing8TestInfoESt6vectorIS4_SaIS4_EEEEET_SA_
FN:607,608,_ZSt12__miter_baseIPNSt7__cxx1112basic_stringIcSt11char_traitsIcESaIcEEEET_S7_
FN:607,608,_ZSt12__miter_baseIPPN7testing8TestInfoEET_S4_
FN:607,608,_ZSt12__miter_baseIPPN7testing9TestSuiteEET_S4_
FN:607,608,_ZSt12__miter_baseIPPP8TreeNodeET_S4_
FNDA:0,_ZSt12__miter_baseIN9__gnu_cxx17__normal_iteratorIPKN7testing8internal13edit_distance8EditTypeESt6vectorIS5_SaIS5_EEEEET_SC_
FNDA:0,_ZSt12__miter_baseIN9__gnu_cxx17__normal_iteratorIPKdSt6vectorIdSaIdEEEEET_S8_
FNDA:40,_ZSt12__miter_baseIN9__gnu_cxx17__normal_iteratorIPNSt7__cxx1112basic_stringIcSt11char_traitsIcESaIcEEESt6vectorIS7_SaIS7_EEEEET_SD_
FNDA:0,_ZSt12__miter_baseIN9__gnu_cxx17__normal_iteratorIPPN7testing17TestEventListenerESt6vectorIS4_SaIS4_EEEEET_SA_
FNDA:14,_ZSt12__miter_baseIN9__gnu_cxx17__normal_iteratorIPPN7testing8TestInfoESt6vectorIS4_SaIS4_EEEEET_SA_
FNDA:0,_ZSt12__miter_baseIPNSt7__cxx1112basic_stringIcSt11char_traitsIcESaIcEEEET_S7_
FNDA:0,_ZSt12__miter_baseIPPN7testing8TestInfoEET_S4_
FNDA:0,_ZSt12__miter_baseIPPN7testing9TestSuiteEET_S4_
FNDA:0,_ZSt12__miter_baseIPPP8TreeNodeET_S4_
FNF:9
FNH:2
DA:607,54
DA:608,54
LF:2
LH:2
end_of_record
TN:
SF:/usr/include/c++/13/bits/deque.tcc
FN:484,516,_ZNSt5dequeIP8TreeNodeSaIS1_EE16_M_push_back_auxIJRKS1_EEEvDpOT_
FN:576,584,_ZNSt5dequeIP8TreeNodeSaIS1_EE16_M_pop_front_auxEv
FN:931,973,_ZNSt5dequeIP8TreeNodeSaIS1_EE17_M_reallocate_mapEmb
FNDA:0,_ZNSt5dequeIP8TreeNodeSaIS1_EE16_M_push_back_auxIJRKS1_EEEvDpOT_
FNDA:0,_ZNSt5dequeIP8TreeNodeSaIS1_EE16_M_pop_front_auxEv
FNDA:0,_ZNSt5dequeIP8TreeNodeSaIS1_EE17_M_reallocate_mapEmb
FNF:3
FNH:0
DA:484,0
DA:492,0
DA:493,0
DA:496,0
DA:497,0
DA:501,0
DA:507,0
DA:509,0
DA:516,0
DA:576,0
DA:579,0
DA:581,0
DA:582,0
DA:583,0
DA:584,0
DA:931,0
DA:934,0
DA:935,0
DA:936,0
DA:939,0
DA:941,0
DA:942,0
DA:943,0
DA:944,0
DA:945,0
DA:946,0
DA:949,0
DA:950,0
DA:951,0
DA:955,0
DA:956,0
DA:959,0
DA:960,0
DA:961,0
DA:962,0
DA:963,0
DA:965,0
DA:967,0
DA:968,0
DA:971,0
DA:972,0
DA:973,0
LF:42
LH:0
end_of_record
TN:
SF:/usr/include/c++/13/bits/functional_hash.h
FN:204,206,_ZNSt10_Hash_impl4hashEPKvmm
FNDA:7,_ZNSt10_Hash_impl4hashEPKvmm
FNF:1
FNH:1
DA:204,7
DA:206,7
LF:2
LH:2
end_of_record
TN:
SF:/usr/include/c++/13/bits/hashtable.h
FN:1404,1414,_ZNSt10_HashtableINSt7__cxx1112basic_stringIcSt11char_traitsIcESaIcEEES5_SaIS5_ENSt8__detail9_IdentityESt8equal_toIS5_ESt4hashIS5_ENS7_18_Mod_range_hashingENS7_20_Default_ranged_hashENS7_20_Prime_rehash_policyENS7_17_Hashtable_traitsILb1ELb1ELb1EEEE8_M_resetEv
FN:1421,1448,_ZNSt10_HashtableINSt7__cxx1112basic_stringIcSt11char_traitsIcESaIcEEES5_SaIS5_ENSt8__detail9_IdentityESt8equal_toIS5_ESt4hashIS5_ENS7_18_Mod_range_hashingENS7_20_Default_ranged_hashENS7_20_Prime_rehash_policyENS7_17_Hashtable_traitsILb1ELb1ELb1EEEE14_M_move_assignEOSI_St17integral_constantIbLb1EE
FN:1595,1610,_ZNSt10_HashtableINSt7__cxx1112basic_stringIcSt11char_traitsIcESaIcEEES5_SaIS5_ENSt8__detail9_IdentityESt8equal_toIS5_ESt4hashIS5_ENS7_18_Mod_range_hashingENS7_20_Default_ranged_hashENS7_20_Prime_rehash_policyENS7_17_Hashtable_traitsILb1ELb1ELb1EEEED2Ev
FN:1595,1610,_ZNSt10_HashtableINSt7__cxx1112basic_stringIcSt11char_traitsIcESaIcEEESt4pairIKS5_PN7testing9TestSuiteEESaISB_ENSt8__detail10_Select1stESt8equal_toIS5_ESt4hashIS5_ENSD_18_Mod_range_hashingENSD_20_Default_ranged_hashENSD_20_Prime_rehash_policyENSD_17_Hashtable_traitsILb1ELb0ELb1EEEED2Ev
FN:1595,1610,_ZNSt10_HashtableINSt7__cxx1112basic_stringIcSt11char_traitsIcESaIcEEESt4pairIKS5_mESaIS8_ENSt8__detail10_Select1stESt8equal_toIS5_ESt4hashIS5_ENSA_18_Mod_range_hashingENSA_20_Default_ranged_hashENSA_20_Prime_rehash_policyENSA_17_Hashtable_traitsILb1ELb0ELb1EEEED2Ev
FN:1664,1680,_ZNSt10_HashtableINSt7__cxx1112basic_stringIcSt11char_traitsIcESaIcEEESt4pairIKS5_PN7testing9TestSuiteEESaISB_ENSt8__detail10_Select1stESt8equal_toIS5_ESt4hashIS5_ENSD_18_Mod_range_hashingENSD_20_Default_ranged_hashENSD_20_Prime_rehash_policyENSD_17_Hashtable_traitsILb1ELb0ELb1EEEE4findERS7_
FN:1687,1703,_ZNKSt10_HashtableINSt7__cxx1112basic_stringIcSt11char_traitsIcESaIcEEES5_SaIS5_ENSt8__detail9_IdentityESt8equal_toIS5_ESt4hashIS5_ENS7_18_Mod_range_hashingENS7_20_Default_ranged_hashENS7_20_Prime_rehash_policyENS7_17_Hashtable_traitsILb1ELb1ELb1EEEE4findERKS5_
FN:1948,1970,_ZNKSt10_HashtableINSt7__cxx1112basic_stringIcSt11char_traitsIcESaIcEEES5_SaIS5_ENSt8__detail9_IdentityESt8equal_toIS5_ESt4hashIS5_ENS7_18_Mod_range_hashingENS7_20_Default_ranged_hashENS7_20_Prime_rehash_policyENS7_17_Hashtable_traitsILb1ELb1ELb1EEEE19_M_find_before_nodeEmRKS5_m
FN:1948,1970,_ZNKSt10_HashtableINSt7__cxx1112basic_stringIcSt11char_traitsIcESaIcEEESt4pairIKS5_PN7testing9TestSuiteEESaISB_ENSt8__detail10_Select1stESt8equal_toIS5_ESt4hashIS5_ENSD_18_Mod_range_hashingENSD_20_Default_ranged_hashENSD_20_Prime_rehash_policyENSD_17_Hashtable_traitsILb1ELb0ELb1EEEE19_M_find_before_nodeEmRS7_m
FN:1978,2000,_ZNKSt10_HashtableINSt7__cxx1112basic_stringIcSt11char_traitsIcESaIcEEES5_SaIS5_ENSt8__detail9_IdentityESt8equal_toIS5_ESt4hashIS5_ENS7_18_Mod_range_hashingENS7_20_Default_ranged_hashENS7_20_Prime_rehash_policyENS7_17_Hashtable_traitsILb1ELb1ELb1EEEE22_M_find_before_node_trIS5_EEPNS7_15_Hash_node_baseEmRKT_m
FN:2007,2033,_ZNSt10_HashtableINSt7__cxx1112basic_stringIcSt11char_traitsIcESaIcEEES5_SaIS5_ENSt8__detail9_IdentityESt8equal_toIS5_ESt4hashIS5_ENS7_18_Mod_range_hashingENS7_20_Default_ranged_hashENS7_20_Prime_rehash_policyENS7_17_Hashtable_traitsILb1ELb1ELb1EEEE22_M_insert_bucket_beginEmPNS7_10_Hash_nodeIS5_Lb1EEE
FN:2007,2033,_ZNSt10_HashtableINSt7__cxx1112basic_stringIcSt11char_traitsIcESaIcEEESt4pairIKS5_PN7testing9TestSuiteEESaISB_ENSt8__detail10_Select1stESt8equal_toIS5_ESt4hashIS5_ENSD_18_Mod_range_hashingENSD_20_Default_ranged_hashENSD_20_Prime_rehash_policyENSD_17_Hashtable_traitsILb1ELb0ELb1EEEE22_M_insert_bucket_beginEmPNSD_10_Hash_nodeISB_Lb1EEE
FN:2081,2108,_ZNSt10_HashtableINSt7__cxx1112basic_stringIcSt11char_traitsIcESaIcEEESt4pairIKS5_PN7testing9TestSuiteEESaISB_ENSt8__detail10_Select1stESt8equal_toIS5_ESt4hashIS5_ENSD_18_Mod_range_hashingENSD_20_Default_ranged_hashENSD_20_Prime_rehash_policyENSD_17_Hashtable_traitsILb1ELb0ELb1EEEE10_M_emplaceIJRS7_RKSA_EEES6_INSD_14_Node_iteratorISB_Lb0ELb1EEEbESt17integral_constantIbLb1EEDpOT_
FN:2166,2189,_ZNSt10_HashtableINSt7__cxx1112basic_stringIcSt11char_traitsIcESaIcEEES5_SaIS5_ENSt8__detail9_IdentityESt8equal_toIS5_ESt4hashIS5_ENS7_18_Mod_range_hashingENS7_20_Default_ranged_hashENS7_20_Prime_rehash_policyENS7_17_Hashtable_traitsILb1ELb1ELb1EEEE21_M_insert_unique_nodeEmmPNS7_10_Hash_nodeIS5_Lb1EEEm
FN:2166,2189,_ZNSt10_HashtableINSt7__cxx1112basic_stringIcSt11char_traitsIcESaIcEEESt4pairIKS5_PN7testing9TestSuiteEESaISB_ENSt8__detail10_Select1stESt8equal_toIS5_ESt4hashIS5_ENSD_18_Mod_range_hashingENSD_20_Default_ranged_hashENSD_20_Prime_rehash_policyENSD_17_Hashtable_traitsILb1ELb0ELb1EEEE21_M_insert_unique_nodeEmmPNSD_10_Hash_nodeISB_Lb1EEEm
FN:2253,2281,_ZNSt10_HashtableINSt7__cxx1112basic_stringIcSt11char_traitsIcESaIcEEES5_SaIS5_ENSt8__detail9_IdentityESt8equal_toIS5_ESt4hashIS5_ENS7_18_Mod_range_hashingENS7_20_Default_ranged_hashENS7_20_Prime_rehash_policyENS7_17_Hashtable_traitsILb1ELb1ELb1EEEE16_M_insert_uniqueIS5_S5_NS7_10_AllocNodeISaINS7_10_Hash_nodeIS5_Lb1EEEEEEEESt4pairINS7_14_Node_iteratorIS5_Lb1ELb1EEEbEOT_OT0_RKT1_
FN:2520,2529,_ZNSt10_HashtableINSt7__cxx1112basic_stringIcSt11char_traitsIcESaIcEEES5_SaIS5_ENSt8__detail9_IdentityESt8equal_toIS5_ESt4hashIS5_ENS7_18_Mod_range_hashingENS7_20_Default_ranged_hashENS7_20_Prime_rehash_policyENS7_17_Hashtable_traitsILb1ELb1ELb1EEEE5clearEv
FN:2520,2529,_ZNSt10_HashtableINSt7__cxx1112basic_stringIcSt11char_traitsIcESaIcEEESt4pairIKS5_PN7testing9TestSuiteEESaISB_ENSt8__detail10_Select1stESt8equal_toIS5_ESt4hashIS5_ENSD_18_Mod_range_hashingENSD_20_Default_ranged_hashENSD_20_Prime_rehash_policyENSD_17_Hashtable_traitsILb1ELb0ELb1EEEE5clearEv
FN:2520,2529,_ZNSt10_HashtableINSt7__cxx1112basic_stringIcSt11char_traitsIcESaIcEEESt4pairIKS5_mESaIS8_ENSt8__detail10_Select1stESt8equal_toIS5_ESt4hashIS5_ENSA_18_Mod_range_hashingENSA_20_Default_ranged_hashENSA_20_Prime_rehash_policyENSA_17_Hashtable_traitsILb1ELb0ELb1EEEE5clearEv
FN:2559,2574,_ZNSt10_HashtableINSt7__cxx1112basic_stringIcSt11char_traitsIcESaIcEEES5_SaIS5_ENSt8__detail9_IdentityESt8equal_toIS5_ESt4hashIS5_ENS7_18_Mod_range_hashingENS7_20_Default_ranged_hashENS7_20_Prime_rehash_policyENS7_17_Hashtable_traitsILb1ELb1ELb1EEEE9_M_rehashEmRKm
FN:2559,2574,_ZNSt10_HashtableINSt7__cxx1112basic_stringIcSt11char_traitsIcESaIcEEESt4pairIKS5_PN7testing9TestSuiteEESaISB_ENSt8__detail10_Select1stESt8equal_toIS5_ESt4hashIS5_ENSD_18_Mod_range_hashingENSD_20_Default_ranged_hashENSD_20_Prime_rehash_policyENSD_17_Hashtable_traitsILb1ELb0ELb1EEEE9_M_rehashEmRKm
FN:2582,2616,_ZNSt10_HashtableINSt7__cxx1112basic_stringIcSt11char_traitsIcESaIcEEES5_SaIS5_ENSt8__detail9_IdentityESt8equal_toIS5_ESt4hashIS5_ENS7_18_Mod_range_hashingENS7_20_Default_ranged_hashENS7_20_Prime_rehash_policyENS7_17_Hashtable_traitsILb1ELb1ELb1EEEE13_M_rehash_auxEmSt17integral_constantIbLb1EE
FN:2582,2616,_ZNSt10_HashtableINSt7__cxx1112basic_stringIcSt11char_traitsIcESaIcEEESt4pairIKS5_PN7testing9TestSuiteEESaISB_ENSt8__detail10_Select1stESt8equal_toIS5_ESt4hashIS5_ENSD_18_Mod_range_hashingENSD_20_Default_ranged_hashENSD_20_Prime_rehash_policyENSD_17_Hashtable_traitsILb1ELb0ELb1EEEE13_M_rehash_auxEmSt17integral_constantIbLb1EE
FN:300,301,_ZNSt10_HashtableINSt7__cxx1112basic_stringIcSt11char_traitsIcESaIcEEES5_SaIS5_ENSt8__detail9_IdentityESt8equal_toIS5_ESt4hashIS5_ENS7_18_Mod_range_hashingENS7_20_Default_ranged_hashENS7_20_Prime_rehash_policyENS7_17_Hashtable_traitsILb1ELb1ELb1EEEE12_Scoped_nodeC2EPNS7_10_Hash_nodeIS5_Lb1EEEPNS7_16_Hashtable_allocISaISL_EEE
FN:305,308,_ZNSt10_HashtableINSt7__cxx1112basic_stringIcSt11char_traitsIcESaIcEEESt4pairIKS5_PN7testing9TestSuiteEESaISB_ENSt8__detail10_Select1stESt8equal_toIS5_ESt4hashIS5_ENSD_18_Mod_range_hashingENSD_20_Default_ranged_hashENSD_20_Prime_rehash_policyENSD_17_Hashtable_traitsILb1ELb0ELb1EEEE12_Scoped_nodeC2IJRS7_RKSA_EEEPNSD_16_Hashtable_allocISaINSD_10_Hash_nodeISB_Lb1EEEEEEDpOT_
FN:311,311,_ZNSt10_HashtableINSt7__cxx1112basic_stringIcSt11char_traitsIcESaIcEEES5_SaIS5_ENSt8__detail9_IdentityESt8equal_toIS5_ESt4hashIS5_ENS7_18_Mod_range_hashingENS7_20_Default_ranged_hashENS7_20_Prime_rehash_policyENS7_17_Hashtable_traitsILb1ELb1ELb1EEEE12_Scoped_nodeD2Ev
FN:311,311,_ZNSt10_HashtableINSt7__cxx1112basic_stringIcSt11char_traitsIcESaIcEEESt4pairIKS5_PN7testing9TestSuiteEESaISB_ENSt8__detail10_Select1stESt8equal_toIS5_ESt4hashIS5_ENSD_18_Mod_range_hashingENSD_20_Default_ranged_hashENSD_20_Prime_rehash_policyENSD_17_Hashtable_traitsILb1ELb0ELb1EEEE12_Scoped_nodeD2Ev
FN:402,406,_ZNSt10_HashtableINSt7__cxx1112basic_stringIcSt11char_traitsIcESaIcEEES5_SaIS5_ENSt8__detail9_IdentityESt8equal_toIS5_ESt4hashIS5_ENS7_18_Mod_range_hashingENS7_20_Default_ranged_hashENS7_20_Prime_rehash_policyENS7_17_Hashtable_traitsILb1ELb1ELb1EEEE16_M_update_bbeginEv
FN:416,417,_ZNKSt10_HashtableINSt7__cxx1112basic_stringIcSt11char_traitsIcESaIcEEES5_SaIS5_ENSt8__detail9_IdentityESt8equal_toIS5_ESt4hashIS5_ENS7_18_Mod_range_hashingENS7_20_Default_ranged_hashENS7_20_Prime_rehash_policyENS7_17_Hashtable_traitsILb1ELb1ELb1EEEE21_M_uses_single_bucketEPPNS7_15_Hash_node_baseE
FN:416,417,_ZNKSt10_HashtableINSt7__cxx1112basic_stringIcSt11char_traitsIcESaIcEEESt4pairIKS5_PN7testing9TestSuiteEESaISB_ENSt8__detail10_Select1stESt8equal_toIS5_ESt4hashIS5_ENSD_18_Mod_range_hashingENSD_20_Default_ranged_hashENSD_20_Prime_rehash_policyENSD_17_Hashtable_traitsILb1ELb0ELb1EEEE21_M_uses_single_bucketEPPNSD_15_Hash_node_baseE
FN:416,417,_ZNKSt10_HashtableINSt7__cxx1112basic_stringIcSt11char_traitsIcESaIcEEESt4pairIKS5_mESaIS8_ENSt8__detail10_Select1stESt8equal_toIS5_ESt4hashIS5_ENSA_18_Mod_range_hashingENSA_20_Default_ranged_hashENSA_20_Prime_rehash_policyENSA_17_Hashtable_traitsILb1ELb0ELb1EEEE21_M_uses_single_bucketEPPNSA_15_Hash_node_baseE
FN:420,421,_ZNKSt10_HashtableINSt7__cxx1112basic_stringIcSt11char_traitsIcESaIcEEES5_SaIS5_ENSt8__detail9_IdentityESt8equal_toIS5_ESt4hashIS5_ENS7_18_Mod_range_hashingENS7_20_Default_ranged_hashENS7_20_Prime_rehash_policyENS7_17_Hashtable_traitsILb1ELb1ELb1EEEE21_M_uses_single_bucketEv
FN:424,428,_ZNSt10_HashtableINSt7__cxx1112basic_stringIcSt11char_traitsIcESaIcEEES5_SaIS5_ENSt8__detail9_IdentityESt8equal_toIS5_ESt4hashIS5_ENS7_18_Mod_range_hashingENS7_20_Default_ranged_hashENS7_20_Prime_rehash_policyENS7_17_Hashtable_traitsILb1ELb1ELb1EEEE22__small_size_thresholdEv
FN:424,428,_ZNSt10_HashtableINSt7__cxx1112basic_stringIcSt11char_traitsIcESaIcEEESt4pairIKS5_PN7testing9TestSuiteEESaISB_ENSt8__detail10_Select1stESt8equal_toIS5_ESt4hashIS5_ENSD_18_Mod_range_hashingENSD_20_Default_ranged_hashENSD_20_Prime_rehash_policyENSD_17_Hashtable_traitsILb1ELb0ELb1EEEE22__small_size_thresholdEv
FN:434,443,_ZNSt10_HashtableINSt7__cxx1112basic_stringIcSt11char_traitsIcESaIcEEES5_SaIS5_ENSt8__detail9_IdentityESt8equal_toIS5_ESt4hashIS5_ENS7_18_Mod_range_hashingENS7_20_Default_ranged_hashENS7_20_Prime_rehash_policyENS7_17_Hashtable_traitsILb1ELb1ELb1EEEE19_M_allocate_bucketsEm
FN:434,443,_ZNSt10_HashtableINSt7__cxx1112basic_stringIcSt11char_traitsIcESaIcEEESt4pairIKS5_PN7testing9TestSuiteEESaISB_ENSt8__detail10_Select1stESt8equal_toIS5_ESt4hashIS5_ENSD_18_Mod_range_hashingENSD_20_Default_ranged_hashENSD_20_Prime_rehash_policyENSD_17_Hashtable_traitsILb1ELb0ELb1EEEE19_M_allocate_bucketsEm
FN:446,452,_ZNSt10_HashtableINSt7__cxx1112basic_stringIcSt11char_traitsIcESaIcEEES5_SaIS5_ENSt8__detail9_IdentityESt8equal_toIS5_ESt4hashIS5_ENS7_18_Mod_range_hashingENS7_20_Default_ranged_hashENS7_20_Prime_rehash_policyENS7_17_Hashtable_traitsILb1ELb1ELb1EEEE21_M_deallocate_bucketsEPPNS7_15_Hash_node_baseEm
FN:446,452,_ZNSt10_HashtableINSt7__cxx1112basic_stringIcSt11char_traitsIcESaIcEEESt4pairIKS5_PN7testing9TestSuiteEESaISB_ENSt8__detail10_Select1stESt8equal_toIS5_ESt4hashIS5_ENSD_18_Mod_range_hashingENSD_20_Default_ranged_hashENSD_20_Prime_rehash_policyENSD_17_Hashtable_traitsILb1ELb0ELb1EEEE21_M_deallocate_bucketsEPPNSD_15_Hash_node_baseEm
FN:446,452,_ZNSt10_HashtableINSt7__cxx1112basic_stringIcSt11char_traitsIcESaIcEEESt4pairIKS5_mESaIS8_ENSt8__detail10_Select1stESt8equal_toIS5_ESt4hashIS5_ENSA_18_Mod_range_hashingENSA_20_Default_ranged_hashENSA_20_Prime_rehash_policyENSA_17_Hashtable_traitsILb1ELb0ELb1EEEE21_M_deallocate_bucketsEPPNSA_15_Hash_node_baseEm
FN:455,456,_ZNSt10_HashtableINSt7__cxx1112basic_stringIcSt11char_traitsIcESaIcEEES5_SaIS5_ENSt8__detail9_IdentityESt8equal_toIS5_ESt4hashIS5_ENS7_18_Mod_range_hashingENS7_20_Default_ranged_hashENS7_20_Prime_rehash_policyENS7_17_Hashtable_traitsILb1ELb1ELb1EEEE21_M_deallocate_bucketsEv
FN:455,456,_ZNSt10_HashtableINSt7__cxx1112basic_stringIcSt11char_traitsIcESaIcEEESt4pairIKS5_PN7testing9TestSuiteEESaISB_ENSt8__detail10_Select1stESt8equal_toIS5_ESt4hashIS5_ENSD_18_Mod_range_hashingENSD_20_Default_ranged_hashENSD_20_Prime_rehash_policyENSD_17_Hashtable_traitsILb1ELb0ELb1EEEE21_M_deallocate_bucketsEv
FN:455,456,_ZNSt10_HashtableINSt7__cxx1112basic_stringIcSt11char_traitsIcESaIcEEESt4pairIKS5_mESaIS8_ENSt8__detail10_Select1stESt8equal_toIS5_ESt4hashIS5_ENSA_18_Mod_range_hashingENSA_20_Default_ranged_hashENSA_20_Prime_rehash_policyENSA_17_Hashtable_traitsILb1ELb0ELb1EEEE21_M_deallocate_bucketsEv
FN:464,465,_ZNKSt10_HashtableINSt7__cxx1112basic_stringIcSt11char_traitsIcESaIcEEES5_SaIS5_ENSt8__detail9_IdentityESt8equal_toIS5_ESt4hashIS5_ENS7_18_Mod_range_hashingENS7_20_Default_ranged_hashENS7_20_Prime_rehash_policyENS7_17_Hashtable_traitsILb1ELb1ELb1EEEE8_M_beginEv
FN:464,465,_ZNKSt10_HashtableINSt7__cxx1112basic_stringIcSt11char_traitsIcESaIcEEESt4pairIKS5_PN7testing9TestSuiteEESaISB_ENSt8__detail10_Select1stESt8equal_toIS5_ESt4hashIS5_ENSD_18_Mod_range_hashingENSD_20_Default_ranged_hashENSD_20_Prime_rehash_policyENSD_17_Hashtable_traitsILb1ELb0ELb1EEEE8_M_beginEv
FN:464,465,_ZNKSt10_HashtableINSt7__cxx1112basic_stringIcSt11char_traitsIcESaIcEEESt4pairIKS5_mESaIS8_ENSt8__detail10_Select1stESt8equal_toIS5_ESt4hashIS5_ENSA_18_Mod_range_hashingENSA_20_Default_ranged_hashENSA_20_Prime_rehash_policyENSA_17_Hashtable_traitsILb1ELb0ELb1EEEE8_M_beginEv
FN:530,530,_ZNSt10_HashtableINSt7__cxx1112basic_stringIcSt11char_traitsIcESaIcEEES5_SaIS5_ENSt8__detail9_IdentityESt8equal_toIS5_ESt4hashIS5_ENS7_18_Mod_range_hashingENS7_20_Default_ranged_hashENS7_20_Prime_rehash_policyENS7_17_Hashtable_traitsILb1ELb1ELb1EEEEC2Ev
FN:530,530,_ZNSt10_HashtableINSt7__cxx1112basic_stringIcSt11char_traitsIcESaIcEEESt4pairIKS5_PN7testing9TestSuiteEESaISB_ENSt8__detail10_Select1stESt8equal_toIS5_ESt4hashIS5_ENSD_18_Mod_range_hashingENSD_20_Default_ranged_hashENSD_20_Prime_rehash_policyENSD_17_Hashtable_traitsILb1ELb0ELb1EEEEC2Ev
FN:530,530,_ZNSt10_HashtableINSt7__cxx1112basic_stringIcSt11char_traitsIcESaIcEEESt4pairIKS5_mESaIS8_ENSt8__detail10_Select1stESt8equal_toIS5_ESt4hashIS5_ENSA_18_Mod_range_hashingENSA_20_Default_ranged_hashENSA_20_Prime_rehash_policyENSA_17_Hashtable_traitsILb1ELb0ELb1EEEEC2Ev
FN:584,594,_ZNSt10_HashtableINSt7__cxx1112basic_stringIcSt11char_traitsIcESaIcEEES5_SaIS5_ENSt8__detail9_IdentityESt8equal_toIS5_ESt4hashIS5_ENS7_18_Mod_range_hashingENS7_20_Default_ranged_hashENS7_20_Prime_rehash_policyENS7_17_Hashtable_traitsILb1ELb1ELb1EEEEaSEOSI_
FN:623,624,_ZNSt10_HashtableINSt7__cxx1112basic_stringIcSt11char_traitsIcESaIcEEES5_SaIS5_ENSt8__detail9_IdentityESt8equal_toIS5_ESt4hashIS5_ENS7_18_Mod_range_hashingENS7_20_Default_ranged_hashENS7_20_Prime_rehash_policyENS7_17_Hashtable_traitsILb1ELb1ELb1EEEE5beginEv
FN:623,624,_ZNSt10_HashtableINSt7__cxx1112basic_stringIcSt11char_traitsIcESaIcEEESt4pairIKS5_PN7testing9TestSuiteEESaISB_ENSt8__detail10_Select1stESt8equal_toIS5_ESt4hashIS5_ENSD_18_Mod_range_hashingENSD_20_Default_ranged_hashENSD_20_Prime_rehash_policyENSD_17_Hashtable_traitsILb1ELb0ELb1EEEE5beginEv
FN:627,628,_ZNKSt10_HashtableINSt7__cxx1112basic_stringIcSt11char_traitsIcESaIcEEES5_SaIS5_ENSt8__detail9_IdentityESt8equal_toIS5_ESt4hashIS5_ENS7_18_Mod_range_hashingENS7_20_Default_ranged_hashENS7_20_Prime_rehash_policyENS7_17_Hashtable_traitsILb1ELb1ELb1EEEE5beginEv
FN:631,632,_ZNSt10_HashtableINSt7__cxx1112basic_stringIcSt11char_traitsIcESaIcEEES5_SaIS5_ENSt8__detail9_IdentityESt8equal_toIS5_ESt4hashIS5_ENS7_18_Mod_range_hashingENS7_20_Default_ranged_hashENS7_20_Prime_rehash_policyENS7_17_Hashtable_traitsILb1ELb1ELb1EEEE3endEv
FN:631,632,_ZNSt10_HashtableINSt7__cxx1112basic_stringIcSt11char_traitsIcESaIcEEESt4pairIKS5_PN7testing9TestSuiteEESaISB_ENSt8__detail10_Select1stESt8equal_toIS5_ESt4hashIS5_ENSD_18_Mod_range_hashingENSD_20_Default_ranged_hashENSD_20_Prime_rehash_policyENSD_17_Hashtable_traitsILb1ELb0ELb1EEEE3endEv
FN:635,636,_ZNKSt10_HashtableINSt7__cxx1112basic_stringIcSt11char_traitsIcESaIcEEES5_SaIS5_ENSt8__detail9_IdentityESt8equal_toIS5_ESt4hashIS5_ENS7_18_Mod_range_hashingENS7_20_Default_ranged_hashENS7_20_Prime_rehash_policyENS7_17_Hashtable_traitsILb1ELb1ELb1EEEE3endEv
FN:647,648,_ZNKSt10_HashtableINSt7__cxx1112basic_stringIcSt11char_traitsIcESaIcEEES5_SaIS5_ENSt8__detail9_IdentityESt8equal_toIS5_ESt4hashIS5_ENS7_18_Mod_range_hashingENS7_20_Default_ranged_hashENS7_20_Prime_rehash_policyENS7_17_Hashtable_traitsILb1ELb1ELb1EEEE4sizeEv
FN:647,648,_ZNKSt10_HashtableINSt7__cxx1112basic_stringIcSt11char_traitsIcESaIcEEESt4pairIKS5_PN7testing9TestSuiteEESaISB_ENSt8__detail10_Select1stESt8equal_toIS5_ESt4hashIS5_ENSD_18_Mod_range_hashingENSD_20_Default_ranged_hashENSD_20_Prime_rehash_policyENSD_17_Hashtable_traitsILb1ELb0ELb1EEEE4sizeEv
FN:792,793,_ZNKSt10_HashtableINSt7__cxx1112basic_stringIcSt11char_traitsIcESaIcEEES5_SaIS5_ENSt8__detail9_IdentityESt8equal_toIS5_ESt4hashIS5_ENS7_18_Mod_range_hashingENS7_20_Default_ranged_hashENS7_20_Prime_rehash_policyENS7_17_Hashtable_traitsILb1ELb1ELb1EEEE15_M_bucket_indexERKNS7_16_Hash_node_valueIS5_Lb1EEE
FN:792,793,_ZNKSt10_HashtableINSt7__cxx1112basic_stringIcSt11char_traitsIcESaIcEEESt4pairIKS5_PN7testing9TestSuiteEESaISB_ENSt8__detail10_Select1stESt8equal_toIS5_ESt4hashIS5_ENSD_18_Mod_range_hashingENSD_20_Default_ranged_hashENSD_20_Prime_rehash_policyENSD_17_Hashtable_traitsILb1ELb0ELb1EEEE15_M_bucket_indexERKNSD_16_Hash_node_valueISB_Lb1EEE
FN:796,797,_ZNKSt10_HashtableINSt7__cxx1112basic_stringIcSt11char_traitsIcESaIcEEES5_SaIS5_ENSt8__detail9_IdentityESt8equal_toIS5_ESt4hashIS5_ENS7_18_Mod_range_hashingENS7_20_Default_ranged_hashENS7_20_Prime_rehash_policyENS7_17_Hashtable_traitsILb1ELb1ELb1EEEE15_M_bucket_indexEm
FN:796,797,_ZNKSt10_HashtableINSt7__cxx1112basic_stringIcSt11char_traitsIcESaIcEEESt4pairIKS5_PN7testing9TestSuiteEESaISB_ENSt8__detail10_Select1stESt8equal_toIS5_ESt4hashIS5_ENSD_18_Mod_range_hashingENSD_20_Default_ranged_hashENSD_20_Prime_rehash_policyENSD_17_Hashtable_traitsILb1ELb0ELb1EEEE15_M_bucket_indexEm
FN:812,819,_ZNKSt10_HashtableINSt7__cxx1112basic_stringIcSt11char_traitsIcESaIcEEES5_SaIS5_ENSt8__detail9_IdentityESt8equal_toIS5_ESt4hashIS5_ENS7_18_Mod_range_hashingENS7_20_Default_ranged_hashENS7_20_Prime_rehash_policyENS7_17_Hashtable_traitsILb1ELb1ELb1EEEE12_M_find_nodeEmRKS5_m
FN:812,819,_ZNKSt10_HashtableINSt7__cxx1112basic_stringIcSt11char_traitsIcESaIcEEESt4pairIKS5_PN7testing9TestSuiteEESaISB_ENSt8__detail10_Select1stESt8equal_toIS5_ESt4hashIS5_ENSD_18_Mod_range_hashingENSD_20_Default_ranged_hashENSD_20_Prime_rehash_policyENSD_17_Hashtable_traitsILb1ELb0ELb1EEEE12_M_find_nodeEmRS7_m
FN:823,830,_ZNKSt10_HashtableINSt7__cxx1112basic_stringIcSt11char_traitsIcESaIcEEES5_SaIS5_ENSt8__detail9_IdentityESt8equal_toIS5_ESt4hashIS5_ENS7_18_Mod_range_hashingENS7_20_Default_ranged_hashENS7_20_Prime_rehash_policyENS7_17_Hashtable_traitsILb1ELb1ELb1EEEE15_M_find_node_trIS5_EEPNS7_10_Hash_nodeIS5_Lb1EEEmRKT_m
FN:897,898,_ZNSt10_HashtableINSt7__cxx1112basic_stringIcSt11char_traitsIcESaIcEEES5_SaIS5_ENSt8__detail9_IdentityESt8equal_toIS5_ESt4hashIS5_ENS7_18_Mod_range_hashingENS7_20_Default_ranged_hashENS7_20_Prime_rehash_policyENS7_17_Hashtable_traitsILb1ELb1ELb1EEEE14_S_forward_keyEOS5_
FN:902,907,_ZNSt10_HashtableINSt7__cxx1112basic_stringIcSt11char_traitsIcESaIcEEES5_SaIS5_ENSt8__detail9_IdentityESt8equal_toIS5_ESt4hashIS5_ENS7_18_Mod_range_hashingENS7_20_Default_ranged_hashENS7_20_Prime_rehash_policyENS7_17_Hashtable_traitsILb1ELb1ELb1EEEE20_M_insert_unique_auxIS5_NS7_10_AllocNodeISaINS7_10_Hash_nodeIS5_Lb1EEEEEEEESt4pairINS7_14_Node_iteratorIS5_Lb1ELb1EEEbEOT_RKT0_
FN:911,918,_ZNSt10_HashtableINSt7__cxx1112basic_stringIcSt11char_traitsIcESaIcEEES5_SaIS5_ENSt8__detail9_IdentityESt8equal_toIS5_ESt4hashIS5_ENS7_18_Mod_range_hashingENS7_20_Default_ranged_hashENS7_20_Prime_rehash_policyENS7_17_Hashtable_traitsILb1ELb1ELb1EEEE9_M_insertIS5_NS7_10_AllocNodeISaINS7_10_Hash_nodeIS5_Lb1EEEEEEEESt4pairINS7_14_Node_iteratorIS5_Lb1ELb1EEEbEOT_RKT0_St17integral_constantIbLb1EE
FN:934,939,_ZNSt10_HashtableINSt7__cxx1112basic_stringIcSt11char_traitsIcESaIcEEES5_SaIS5_ENSt8__detail9_IdentityESt8equal_toIS5_ESt4hashIS5_ENS7_18_Mod_range_hashingENS7_20_Default_ranged_hashENS7_20_Prime_rehash_policyENS7_17_Hashtable_traitsILb1ELb1ELb1EEEE9_M_insertIS5_NS7_10_AllocNodeISaINS7_10_Hash_nodeIS5_Lb1EEEEEEEENS7_14_Node_iteratorIS5_Lb1ELb1EEENS7_20_Node_const_iteratorIS5_Lb1ELb1EEEOT_RKT0_St17integral_constantIbLb1EE
FN:960,961,_ZNSt10_HashtableINSt7__cxx1112basic_stringIcSt11char_traitsIcESaIcEEESt4pairIKS5_PN7testing9TestSuiteEESaISB_ENSt8__detail10_Select1stESt8equal_toIS5_ESt4hashIS5_ENSD_18_Mod_range_hashingENSD_20_Default_ranged_hashENSD_20_Prime_rehash_policyENSD_17_Hashtable_traitsILb1ELb0ELb1EEEE7emplaceIJRS7_RKSA_EEES6_INSD_14_Node_iteratorISB_Lb0ELb1EEEbEDpOT_
FNDA:2,_ZNSt10_HashtableINSt7__cxx1112basic_stringIcSt11char_traitsIcESaIcEEES5_SaIS5_ENSt8__detail9_IdentityESt8equal_toIS5_ESt4hashIS5_ENS7_18_Mod_range_hashingENS7_20_Default_ranged_hashENS7_20_Prime_rehash_policyENS7_17_Hashtable_traitsILb1ELb1ELb1EEEE8_M_resetEv
FNDA:2,_ZNSt10_HashtableINSt7__cxx1112basic_stringIcSt11char_traitsIcESaIcEEES5_SaIS5_ENSt8__detail9_IdentityESt8equal_toIS5_ESt4hashIS5_ENS7_18_Mod_range_hashingENS7_20_Default_ranged_hashENS7_20_Prime_rehash_policyENS7_17_Hashtable_traitsILb1ELb1ELb1EEEE14_M_move_assignEOSI_St17integral_constantIbLb1EE
FNDA:14,_ZNSt10_HashtableINSt7__cxx1112basic_stringIcSt11char_traitsIcESaIcEEES5_SaIS5_ENSt8__detail9_IdentityESt8equal_toIS5_ESt4hashIS5_ENS7_18_Mod_range_hashingENS7_20_Default_ranged_hashENS7_20_Prime_rehash_policyENS7_17_Hashtable_traitsILb1ELb1ELb1EEEED2Ev
FNDA:1,_ZNSt10_HashtableINSt7__cxx1112basic_stringIcSt11char_traitsIcESaIcEEESt4pairIKS5_PN7testing9TestSuiteEESaISB_ENSt8__detail10_Select1stESt8equal_toIS5_ESt4hashIS5_ENSD_18_Mod_range_hashingENSD_20_Default_ranged_hashENSD_20_Prime_rehash_policyENSD_17_Hashtable_traitsILb1ELb0ELb1EEEED2Ev
FNDA:1,_ZNSt10_HashtableINSt7__cxx1112basic_stringIcSt11char_traitsIcESaIcEEESt4pairIKS5_mESaIS8_ENSt8__detail10_Select1stESt8equal_toIS5_ESt4hashIS5_ENSA_18_Mod_range_hashingENSA_20_Default_ranged_hashENSA_20_Prime_rehash_policyENSA_17_Hashtable_traitsILb1ELb0ELb1EEEED2Ev
FNDA:7,_ZNSt10_HashtableINSt7__cxx1112basic_stringIcSt11char_traitsIcESaIcEEESt4pairIKS5_PN7testing9TestSuiteEESaISB_ENSt8__detail10_Select1stESt8equal_toIS5_ESt4hashIS5_ENSD_18_Mod_range_hashingENSD_20_Default_ranged_hashENSD_20_Prime_rehash_policyENSD_17_Hashtable_traitsILb1ELb0ELb1EEEE4findERS7_
FNDA:37,_ZNKSt10_HashtableINSt7__cxx1112basic_stringIcSt11char_traitsIcESaIcEEES5_SaIS5_ENSt8__detail9_IdentityESt8equal_toIS5_ESt4hashIS5_ENS7_18_Mod_range_hashingENS7_20_Default_ranged_hashENS7_20_Prime_rehash_policyENS7_17_Hashtable_traitsILb1ELb1ELb1EEEE4findERKS5_
FNDA:0,_ZNKSt10_HashtableINSt7__cxx1112basic_stringIcSt11char_traitsIcESaIcEEES5_SaIS5_ENSt8__detail9_IdentityESt8equal_toIS5_ESt4hashIS5_ENS7_18_Mod_range_hashingENS7_20_Default_ranged_hashENS7_20_Prime_rehash_policyENS7_17_Hashtable_traitsILb1ELb1ELb1EEEE19_M_find_before_nodeEmRKS5_m
FNDA:0,_ZNKSt10_HashtableINSt7__cxx1112basic_stringIcSt11char_traitsIcESaIcEEESt4pairIKS5_PN7testing9TestSuiteEESaISB_ENSt8__detail10_Select1stESt8equal_toIS5_ESt4hashIS5_ENSD_18_Mod_range_hashingENSD_20_Default_ranged_hashENSD_20_Prime_rehash_policyENSD_17_Hashtable_traitsILb1ELb0ELb1EEEE19_M_find_before_nodeEmRS7_m
FNDA:0,_ZNKSt10_HashtableINSt7__cxx1112basic_stringIcSt11char_traitsIcESaIcEEES5_SaIS5_ENSt8__detail9_IdentityESt8equal_toIS5_ESt4hashIS5_ENS7_18_Mod_range_hashingENS7_20_Default_ranged_hashENS7_20_Prime_rehash_policyENS7_17_Hashtable_traitsILb1ELb1ELb1EEEE22_M_find_before_node_trIS5_EEPNS7_15_Hash_node_baseEmRKT_m
FNDA:0,_ZNSt10_HashtableINSt7__cxx1112basic_stringIcSt11char_traitsIcESaIcEEES5_SaIS5_ENSt8__detail9_IdentityESt8equal_toIS5_ESt4hashIS5_ENS7_18_Mod_range_hashingENS7_20_Default_ranged_hashENS7_20_Prime_rehash_policyENS7_17_Hashtable_traitsILb1ELb1ELb1EEEE22_M_insert_bucket_beginEmPNS7_10_Hash_nodeIS5_Lb1EEE
FNDA:7,_ZNSt10_HashtableINSt7__cxx1112basic_stringIcSt11char_traitsIcESaIcEEESt4pairIKS5_PN7testing9TestSuiteEESaISB_ENSt8__detail10_Select1stESt8equal_toIS5_ESt4hashIS5_ENSD_18_Mod_range_hashingENSD_20_Default_ranged_hashENSD_20_Prime_rehash_policyENSD_17_Hashtable_traitsILb1ELb0ELb1EEEE22_M_insert_bucket_beginEmPNSD_10_Hash_nodeISB_Lb1EEE
FNDA:7,_ZNSt10_HashtableINSt7__cxx1112basic_stringIcSt11char_traitsIcESaIcEEESt4pairIKS5_PN7testing9TestSuiteEESaISB_ENSt8__detail10_Select1stESt8equal_toIS5_ESt4hashIS5_ENSD_18_Mod_range_hashingENSD_20_Default_ranged_hashENSD_20_Prime_rehash_policyENSD_17_Hashtable_traitsILb1ELb0ELb1EEEE10_M_emplaceIJRS7_RKSA_EEES6_INSD_14_Node_iteratorISB_Lb0ELb1EEEbESt17integral_constantIbLb1EEDpOT_
FNDA:0,_ZNSt10_HashtableINSt7__cxx1112basic_stringIcSt11char_traitsIcESaIcEEES5_SaIS5_ENSt8__detail9_IdentityESt8equal_toIS5_ESt4hashIS5_ENS7_18_Mod_range_hashingENS7_20_Default_ranged_hashENS7_20_Prime_rehash_policyENS7_17_Hashtable_traitsILb1ELb1ELb1EEEE21_M_insert_unique_nodeEmmPNS7_10_Hash_nodeIS5_Lb1EEEm
FNDA:7,_ZNSt10_HashtableINSt7__cxx1112basic_stringIcSt11char_traitsIcESaIcEEESt4pairIKS5_PN7testing9TestSuiteEESaISB_ENSt8__detail10_Select1stESt8equal_toIS5_ESt4hashIS5_ENSD_18_Mod_range_hashingENSD_20_Default_ranged_hashENSD_20_Prime_rehash_policyENSD_17_Hashtable_traitsILb1ELb0ELb1EEEE21_M_insert_unique_nodeEmmPNSD_10_Hash_nodeISB_Lb1EEEm
FNDA:0,_ZNSt10_HashtableINSt7__cxx1112basic_stringIcSt11char_traitsIcESaIcEEES5_SaIS5_ENSt8__detail9_IdentityESt8equal_toIS5_ESt4hashIS5_ENS7_18_Mod_range_hashingENS7_20_Default_ranged_hashENS7_20_Prime_rehash_policyENS7_17_Hashtable_traitsILb1ELb1ELb1EEEE16_M_insert_uniqueIS5_S5_NS7_10_AllocNodeISaINS7_10_Hash_nodeIS5_Lb1EEEEEEEESt4pairINS7_14_Node_iteratorIS5_Lb1ELb1EEEbEOT_OT0_RKT1_
FNDA:14,_ZNSt10_HashtableINSt7__cxx1112basic_stringIcSt11char_traitsIcESaIcEEES5_SaIS5_ENSt8__detail9_IdentityESt8equal_toIS5_ESt4hashIS5_ENS7_18_Mod_range_hashingENS7_20_Default_ranged_hashENS7_20_Prime_rehash_policyENS7_17_Hashtable_traitsILb1ELb1ELb1EEEE5clearEv
FNDA:1,_ZNSt10_HashtableINSt7__cxx1112basic_stringIcSt11char_traitsIcESaIcEEESt4pairIKS5_PN7testing9TestSuiteEESaISB_ENSt8__detail10_Select1stESt8equal_toIS5_ESt4hashIS5_ENSD_18_Mod_range_hashingENSD_20_Default_ranged_hashENSD_20_Prime_rehash_policyENSD_17_Hashtable_traitsILb1ELb0ELb1EEEE5clearEv
FNDA:1,_ZNSt10_HashtableINSt7__cxx1112basic_stringIcSt11char_traitsIcESaIcEEESt4pairIKS5_mESaIS8_ENSt8__detail10_Select1stESt8equal_toIS5_ESt4hashIS5_ENSA_18_Mod_range_hashingENSA_20_Default_ranged_hashENSA_20_Prime_rehash_policyENSA_17_Hashtable_traitsILb1ELb0ELb1EEEE5clearEv
FNDA:0,_ZNSt10_HashtableINSt7__cxx1112basic_stringIcSt11char_traitsIcESaIcEEES5_SaIS5_ENSt8__detail9_IdentityESt8equal_toIS5_ESt4hashIS5_ENS7_18_Mod_range_hashingENS7_20_Default_ranged_hashENS7_20_Prime_rehash_policyENS7_17_Hashtable_traitsILb1ELb1ELb1EEEE9_M_rehashEmRKm
FNDA:1,_ZNSt10_HashtableINSt7__cxx1112basic_stringIcSt11char_traitsIcESaIcEEESt4pairIKS5_PN7testing9TestSuiteEESaISB_ENSt8__detail10_Select1stESt8equal_toIS5_ESt4hashIS5_ENSD_18_Mod_range_hashingENSD_20_Default_ranged_hashENSD_20_Prime_rehash_policyENSD_17_Hashtable_traitsILb1ELb0ELb1EEEE9_M_rehashEmRKm
FNDA:0,_ZNSt10_HashtableINSt7__cxx1112basic_stringIcSt11char_traitsIcESaIcEEES5_SaIS5_ENSt8__detail9_IdentityESt8equal_toIS5_ESt4hashIS5_ENS7_18_Mod_range_hashingENS7_20_Default_ranged_hashENS7_20_Prime_rehash_policyENS7_17_Hashtable_traitsILb1ELb1ELb1EEEE13_M_rehash_auxEmSt17integral_constantIbLb1EE
FNDA:1,_ZNSt10_HashtableINSt7__cxx1112basic_stringIcSt11char_traitsIcESaIcEEESt4pairIKS5_PN7testing9TestSuiteEESaISB_ENSt8__detail10_Select1stESt8equal_toIS5_ESt4hashIS5_ENSD_18_Mod_range_hashingENSD_20_Default_ranged_hashENSD_20_Prime_rehash_policyENSD_17_Hashtable_traitsILb1ELb0ELb1EEEE13_M_rehash_auxEmSt17integral_constantIbLb1EE
FNDA:0,_ZNSt10_HashtableINSt7__cxx1112basic_stringIcSt11char_traitsIcESaIcEEES5_SaIS5_ENSt8__detail9_IdentityESt8equal_toIS5_ESt4hashIS5_ENS7_18_Mod_range_hashingENS7_20_Default_ranged_hashENS7_20_Prime_rehash_policyENS7_17_Hashtable_traitsILb1ELb1ELb1EEEE12_Scoped_nodeC2EPNS7_10_Hash_nodeIS5_Lb1EEEPNS7_16_Hashtable_allocISaISL_EEE
FNDA:7,_ZNSt10_HashtableINSt7__cxx1112basic_stringIcSt11char_traitsIcESaIcEEESt4pairIKS5_PN7testing9TestSuiteEESaISB_ENSt8__detail10_Select1stESt8equal_toIS5_ESt4hashIS5_ENSD_18_Mod_range_hashingENSD_20_Default_ranged_hashENSD_20_Prime_rehash_policyENSD_17_Hashtable_traitsILb1ELb0ELb1EEEE12_Scoped_nodeC2IJRS7_RKSA_EEEPNSD_16_Hashtable_allocISaINSD_10_Hash_nodeISB_Lb1EEEEEEDpOT_
FNDA:0,_ZNSt10_HashtableINSt7__cxx1112basic_stringIcSt11char_traitsIcESaIcEEES5_SaIS5_ENSt8__detail9_IdentityESt8equal_toIS5_ESt4hashIS5_ENS7_18_Mod_range_hashingENS7_20_Default_ranged_hashENS7_20_Prime_rehash_policyENS7_17_Hashtable_traitsILb1ELb1ELb1EEEE12_Scoped_nodeD2Ev
FNDA:7,_ZNSt10_HashtableINSt7__cxx1112basic_stringIcSt11char_traitsIcESaIcEEESt4pairIKS5_PN7testing9TestSuiteEESaISB_ENSt8__detail10_Select1stESt8equal_toIS5_ESt4hashIS5_ENSD_18_Mod_range_hashingENSD_20_Default_ranged_hashENSD_20_Prime_rehash_policyENSD_17_Hashtable_traitsILb1ELb0ELb1EEEE12_Scoped_nodeD2Ev
FNDA:2,_ZNSt10_HashtableINSt7__cxx1112basic_stringIcSt11char_traitsIcESaIcEEES5_SaIS5_ENSt8__detail9_IdentityESt8equal_toIS5_ESt4hashIS5_ENS7_18_Mod_range_hashingENS7_20_Default_ranged_hashENS7_20_Prime_rehash_policyENS7_17_Hashtable_traitsILb1ELb1ELb1EEEE16_M_update_bbeginEv
FNDA:18,_ZNKSt10_HashtableINSt7__cxx1112basic_stringIcSt11char_traitsIcESaIcEEES5_SaIS5_ENSt8__detail9_IdentityESt8equal_toIS5_ESt4hashIS5_ENS7_18_Mod_range_hashingENS7_20_Default_ranged_hashENS7_20_Prime_rehash_policyENS7_17_Hashtable_traitsILb1ELb1ELb1EEEE21_M_uses_single_bucketEPPNS7_15_Hash_node_baseE
FNDA:2,_ZNKSt10_HashtableINSt7__cxx1112basic_stringIcSt11char_traitsIcESaIcEEESt4pairIKS5_PN7testing9TestSuiteEESaISB_ENSt8__detail10_Select1stESt8equal_toIS5_ESt4hashIS5_ENSD_18_Mod_range_hashingENSD_20_Default_ranged_hashENSD_20_Prime_rehash_policyENSD_17_Hashtable_traitsILb1ELb0ELb1EEEE21_M_uses_single_bucketEPPNSD_15_Hash_node_baseE
FNDA:1,_ZNKSt10_HashtableINSt7__cxx1112basic_stringIcSt11char_traitsIcESaIcEEESt4pairIKS5_mESaIS8_ENSt8__detail10_Select1stESt8equal_toIS5_ESt4hashIS5_ENSA_18_Mod_range_hashingENSA_20_Default_ranged_hashENSA_20_Prime_rehash_policyENSA_17_Hashtable_traitsILb1ELb0ELb1EEEE21_M_uses_single_bucketEPPNSA_15_Hash_node_baseE
FNDA:2,_ZNKSt10_HashtableINSt7__cxx1112basic_stringIcSt11char_traitsIcESaIcEEES5_SaIS5_ENSt8__detail9_IdentityESt8equal_toIS5_ESt4hashIS5_ENS7_18_Mod_range_hashingENS7_20_Default_ranged_hashENS7_20_Prime_rehash_policyENS7_17_Hashtable_traitsILb1ELb1ELb1EEEE21_M_uses_single_bucketEv
FNDA:37,_ZNSt10_HashtableINSt7__cxx1112basic_stringIcSt11char_traitsIcESaIcEEES5_SaIS5_ENSt8__detail9_IdentityESt8equal_toIS5_ESt4hashIS5_ENS7_18_Mod_range_hashingENS7_20_Default_ranged_hashENS7_20_Prime_rehash_policyENS7_17_Hashtable_traitsILb1ELb1ELb1EEEE22__small_size_thresholdEv
FNDA:21,_ZNSt10_HashtableINSt7__cxx1112basic_stringIcSt11char_traitsIcESaIcEEESt4pairIKS5_PN7testing9TestSuiteEESaISB_ENSt8__detail10_Select1stESt8equal_toIS5_ESt4hashIS5_ENSD_18_Mod_range_hashingENSD_20_Default_ranged_hashENSD_20_Prime_rehash_policyENSD_17_Hashtable_traitsILb1ELb0ELb1EEEE22__small_size_thresholdEv
FNDA:0,_ZNSt10_HashtableINSt7__cxx1112basic_stringIcSt11char_traitsIcESaIcEEES5_SaIS5_ENSt8__detail9_IdentityESt8equal_toIS5_ESt4hashIS5_ENS7_18_Mod_range_hashingENS7_20_Default_ranged_hashENS7_20_Prime_rehash_policyENS7_17_Hashtable_traitsILb1ELb1ELb1EEEE19_M_allocate_bucketsEm
FNDA:1,_ZNSt10_HashtableINSt7__cxx1112basic_stringIcSt11char_traitsIcESaIcEEESt4pairIKS5_PN7testing9TestSuiteEESaISB_ENSt8__detail10_Select1stESt8equal_toIS5_ESt4hashIS5_ENSD_18_Mod_range_hashingENSD_20_Default_ranged_hashENSD_20_Prime_rehash_policyENSD_17_Hashtable_traitsILb1ELb0ELb1EEEE19_M_allocate_bucketsEm
FNDA:16,_ZNSt10_HashtableINSt7__cxx1112basic_stringIcSt11char_traitsIcESaIcEEES5_SaIS5_ENSt8__detail9_IdentityESt8equal_toIS5_ESt4hashIS5_ENS7_18_Mod_range_hashingENS7_20_Default_ranged_hashENS7_20_Prime_rehash_policyENS7_17_Hashtable_traitsILb1ELb1ELb1EEEE21_M_deallocate_bucketsEPPNS7_15_Hash_node_baseEm
FNDA:2,_ZNSt10_HashtableINSt7__cxx1112basic_stringIcSt11char_traitsIcESaIcEEESt4pairIKS5_PN7testing9TestSuiteEESaISB_ENSt8__detail10_Select1stESt8equal_toIS5_ESt4hashIS5_ENSD_18_Mod_range_hashingENSD_20_Default_ranged_hashENSD_20_Prime_rehash_policyENSD_17_Hashtable_traitsILb1ELb0ELb1EEEE21_M_deallocate_bucketsEPPNSD_15_Hash_node_baseEm
FNDA:1,_ZNSt10_HashtableINSt7__cxx1112basic_stringIcSt11char_traitsIcESaIcEEESt4pairIKS5_mESaIS8_ENSt8__detail10_Select1stESt8equal_toIS5_ESt4hashIS5_ENSA_18_Mod_range_hashingENSA_20_Default_ranged_hashENSA_20_Prime_rehash_policyENSA_17_Hashtable_traitsILb1ELb0ELb1EEEE21_M_deallocate_bucketsEPPNSA_15_Hash_node_baseEm
FNDA:16,_ZNSt10_HashtableINSt7__cxx1112basic_stringIcSt11char_traitsIcESaIcEEES5_SaIS5_ENSt8__detail9_IdentityESt8equal_toIS5_ESt4hashIS5_ENS7_18_Mod_range_hashingENS7_20_Default_ranged_hashENS7_20_Prime_rehash_policyENS7_17_Hashtable_traitsILb1ELb1ELb1EEEE21_M_deallocate_bucketsEv
FNDA:2,_ZNSt10_HashtableINSt7__cxx1112basic_stringIcSt11char_traitsIcESaIcEEESt4pairIKS5_PN7testing9TestSuiteEESaISB_ENSt8__detail10_Select1stESt8equal_toIS5_ESt4hashIS5_ENSD_18_Mod_range_hashingENSD_20_Default_ranged_hashENSD_20_Prime_rehash_policyENSD_17_Hashtable_traitsILb1ELb0ELb1EEEE21_M_deallocate_bucketsEv
FNDA:1,_ZNSt10_HashtableINSt7__cxx1112basic_stringIcSt11char_traitsIcESaIcEEESt4pairIKS5_mESaIS8_ENSt8__detail10_Select1stESt8equal_toIS5_ESt4hashIS5_ENSA_18_Mod_range_hashingENSA_20_Default_ranged_hashENSA_20_Prime_rehash_policyENSA_17_Hashtable_traitsILb1ELb0ELb1EEEE21_M_deallocate_bucketsEv
FNDA:65,_ZNKSt10_HashtableINSt7__cxx1112basic_stringIcSt11char_traitsIcESaIcEEES5_SaIS5_ENSt8__detail9_IdentityESt8equal_toIS5_ESt4hashIS5_ENS7_18_Mod_range_hashingENS7_20_Default_ranged_hashENS7_20_Prime_rehash_policyENS7_17_Hashtable_traitsILb1ELb1ELb1EEEE8_M_beginEv
FNDA:16,_ZNKSt10_HashtableINSt7__cxx1112basic_stringIcSt11char_traitsIcESaIcEEESt4pairIKS5_PN7testing9TestSuiteEESaISB_ENSt8__detail10_Select1stESt8equal_toIS5_ESt4hashIS5_ENSD_18_Mod_range_hashingENSD_20_Default_ranged_hashENSD_20_Prime_rehash_policyENSD_17_Hashtable_traitsILb1ELb0ELb1EEEE8_M_beginEv
FNDA:1,_ZNKSt10_HashtableINSt7__cxx1112basic_stringIcSt11char_traitsIcESaIcEEESt4pairIKS5_mESaIS8_ENSt8__detail10_Select1stESt8equal_toIS5_ESt4hashIS5_ENSA_18_Mod_range_hashingENSA_20_Default_ranged_hashENSA_20_Prime_rehash_policyENSA_17_Hashtable_traitsILb1ELb0ELb1EEEE8_M_beginEv
FNDA:14,_ZNSt10_HashtableINSt7__cxx1112basic_stringIcSt11char_traitsIcESaIcEEES5_SaIS5_ENSt8__detail9_IdentityESt8equal_toIS5_ESt4hashIS5_ENS7_18_Mod_range_hashingENS7_20_Default_ranged_hashENS7_20_Prime_rehash_policyENS7_17_Hashtable_traitsILb1ELb1ELb1EEEEC2Ev
FNDA:1,_ZNSt10_HashtableINSt7__cxx1112basic_stringIcSt11char_traitsIcESaIcEEESt4pairIKS5_PN7testing9TestSuiteEESaISB_ENSt8__detail10_Select1stESt8equal_toIS5_ESt4hashIS5_ENSD_18_Mod_range_hashingENSD_20_Default_ranged_hashENSD_20_Prime_rehash_policyENSD_17_Hashtable_traitsILb1ELb0ELb1EEEEC2Ev
FNDA:1,_ZNSt10_HashtableINSt7__cxx1112basic_stringIcSt11char_traitsIcESaIcEEESt4pairIKS5_mESaIS8_ENSt8__detail10_Select1stESt8equal_toIS5_ESt4hashIS5_ENSA_18_Mod_range_hashingENSA_20_Default_ranged_hashENSA_20_Prime_rehash_policyENSA_17_Hashtable_traitsILb1ELb0ELb1EEEEC2Ev
FNDA:2,_ZNSt10_HashtableINSt7__cxx1112basic_stringIcSt11char_traitsIcESaIcEEES5_SaIS5_ENSt8__detail9_IdentityESt8equal_toIS5_ESt4hashIS5_ENS7_18_Mod_range_hashingENS7_20_Default_ranged_hashENS7_20_Prime_rehash_policyENS7_17_Hashtable_traitsILb1ELb1ELb1EEEEaSEOSI_
FNDA:10,_ZNSt10_HashtableINSt7__cxx1112basic_stringIcSt11char_traitsIcESaIcEEES5_SaIS5_ENSt8__detail9_IdentityESt8equal_toIS5_ESt4hashIS5_ENS7_18_Mod_range_hashingENS7_20_Default_ranged_hashENS7_20_Prime_rehash_policyENS7_17_Hashtable_traitsILb1ELb1ELb1EEEE5beginEv
FNDA:14,_ZNSt10_HashtableINSt7__cxx1112basic_stringIcSt11char_traitsIcESaIcEEESt4pairIKS5_PN7testing9TestSuiteEESaISB_ENSt8__detail10_Select1stESt8equal_toIS5_ESt4hashIS5_ENSD_18_Mod_range_hashingENSD_20_Default_ranged_hashENSD_20_Prime_rehash_policyENSD_17_Hashtable_traitsILb1ELb0ELb1EEEE5beginEv
FNDA:37,_ZNKSt10_HashtableINSt7__cxx1112basic_stringIcSt11char_traitsIcESaIcEEES5_SaIS5_ENSt8__detail9_IdentityESt8equal_toIS5_ESt4hashIS5_ENS7_18_Mod_range_hashingENS7_20_Default_ranged_hashENS7_20_Prime_rehash_policyENS7_17_Hashtable_traitsILb1ELb1ELb1EEEE5beginEv
FNDA:0,_ZNSt10_HashtableINSt7__cxx1112basic_stringIcSt11char_traitsIcESaIcEEES5_SaIS5_ENSt8__detail9_IdentityESt8equal_toIS5_ESt4hashIS5_ENS7_18_Mod_range_hashingENS7_20_Default_ranged_hashENS7_20_Prime_rehash_policyENS7_17_Hashtable_traitsILb1ELb1ELb1EEEE3endEv
FNDA:70,_ZNSt10_HashtableINSt7__cxx1112basic_stringIcSt11char_traitsIcESaIcEEESt4pairIKS5_PN7testing9TestSuiteEESaISB_ENSt8__detail10_Select1stESt8equal_toIS5_ESt4hashIS5_ENSD_18_Mod_range_hashingENSD_20_Default_ranged_hashENSD_20_Prime_rehash_policyENSD_17_Hashtable_traitsILb1ELb0ELb1EEEE3endEv
FNDA:111,_ZNKSt10_HashtableINSt7__cxx1112basic_stringIcSt11char_traitsIcESaIcEEES5_SaIS5_ENSt8__detail9_IdentityESt8equal_toIS5_ESt4hashIS5_ENS7_18_Mod_range_hashingENS7_20_Default_ranged_hashENS7_20_Prime_rehash_policyENS7_17_Hashtable_traitsILb1ELb1ELb1EEEE3endEv
FNDA:37,_ZNKSt10_HashtableINSt7__cxx1112basic_stringIcSt11char_traitsIcESaIcEEES5_SaIS5_ENSt8__detail9_IdentityESt8equal_toIS5_ESt4hashIS5_ENS7_18_Mod_range_hashingENS7_20_Default_ranged_hashENS7_20_Prime_rehash_policyENS7_17_Hashtable_traitsILb1ELb1ELb1EEEE4sizeEv
FNDA:21,_ZNKSt10_HashtableINSt7__cxx1112basic_stringIcSt11char_traitsIcESaIcEEESt4pairIKS5_PN7testing9TestSuiteEESaISB_ENSt8__detail10_Select1stESt8equal_toIS5_ESt4hashIS5_ENSD_18_Mod_range_hashingENSD_20_Default_ranged_hashENSD_20_Prime_rehash_policyENSD_17_Hashtable_traitsILb1ELb0ELb1EEEE4sizeEv
FNDA:0,_ZNKSt10_HashtableINSt7__cxx1112basic_stringIcSt11char_traitsIcESaIcEEES5_SaIS5_ENSt8__detail9_IdentityESt8equal_toIS5_ESt4hashIS5_ENS7_18_Mod_range_hashingENS7_20_Default_ranged_hashENS7_20_Prime_rehash_policyENS7_17_Hashtable_traitsILb1ELb1ELb1EEEE15_M_bucket_indexERKNS7_16_Hash_node_valueIS5_Lb1EEE
FNDA:4,_ZNKSt10_HashtableINSt7__cxx1112basic_stringIcSt11char_traitsIcESaIcEEESt4pairIKS5_PN7testing9TestSuiteEESaISB_ENSt8__detail10_Select1stESt8equal_toIS5_ESt4hashIS5_ENSD_18_Mod_range_hashingENSD_20_Default_ranged_hashENSD_20_Prime_rehash_policyENSD_17_Hashtable_traitsILb1ELb0ELb1EEEE15_M_bucket_indexERKNSD_16_Hash_node_valueISB_Lb1EEE
FNDA:0,_ZNKSt10_HashtableINSt7__cxx1112basic_stringIcSt11char_traitsIcESaIcEEES5_SaIS5_ENSt8__detail9_IdentityESt8equal_toIS5_ESt4hashIS5_ENS7_18_Mod_range_hashingENS7_20_Default_ranged_hashENS7_20_Prime_rehash_policyENS7_17_Hashtable_traitsILb1ELb1ELb1EEEE15_M_bucket_indexEm
FNDA:8,_ZNKSt10_HashtableINSt7__cxx1112basic_stringIcSt11char_traitsIcESaIcEEESt4pairIKS5_PN7testing9TestSuiteEESaISB_ENSt8__detail10_Select1stESt8equal_toIS5_ESt4hashIS5_ENSD_18_Mod_range_hashingENSD_20_Default_ranged_hashENSD_20_Prime_rehash_policyENSD_17_Hashtable_traitsILb1ELb0ELb1EEEE15_M_bucket_indexEm
FNDA:0,_ZNKSt10_HashtableINSt7__cxx1112basic_stringIcSt11char_traitsIcESaIcEEES5_SaIS5_ENSt8__detail9_IdentityESt8equal_toIS5_ESt4hashIS5_ENS7_18_Mod_range_hashingENS7_20_Default_ranged_hashENS7_20_Prime_rehash_policyENS7_17_Hashtable_traitsILb1ELb1ELb1EEEE12_M_find_nodeEmRKS5_m
FNDA:0,_ZNKSt10_HashtableINSt7__cxx1112basic_stringIcSt11char_traitsIcESaIcEEESt4pairIKS5_PN7testing9TestSuiteEESaISB_ENSt8__detail10_Select1stESt8equal_toIS5_ESt4hashIS5_ENSD_18_Mod_range_hashingENSD_20_Default_ranged_hashENSD_20_Prime_rehash_policyENSD_17_Hashtable_traitsILb1ELb0ELb1EEEE12_M_find_nodeEmRS7_m
FNDA:0,_ZNKSt10_HashtableINSt7__cxx1112basic_stringIcSt11char_traitsIcESaIcEEES5_SaIS5_ENSt8__detail9_IdentityESt8equal_toIS5_ESt4hashIS5_ENS7_18_Mod_range_hashingENS7_20_Default_ranged_hashENS7_20_Prime_rehash_policyENS7_17_Hashtable_traitsILb1ELb1ELb1EEEE15_M_find_node_trIS5_EEPNS7_10_Hash_nodeIS5_Lb1EEEmRKT_m
FNDA:0,_ZNSt10_HashtableINSt7__cxx1112basic_stringIcSt11char_traitsIcESaIcEEES5_SaIS5_ENSt8__detail9_IdentityESt8equal_toIS5_ESt4hashIS5_ENS7_18_Mod_range_hashingENS7_20_Default_ranged_hashENS7_20_Prime_rehash_policyENS7_17_Hashtable_traitsILb1ELb1ELb1EEEE14_S_forward_keyEOS5_
FNDA:0,_ZNSt10_HashtableINSt7__cxx1112basic_stringIcSt11char_traitsIcESaIcEEES5_SaIS5_ENSt8__detail9_IdentityESt8equal_toIS5_ESt4hashIS5_ENS7_18_Mod_range_hashingENS7_20_Default_ranged_hashENS7_20_Prime_rehash_policyENS7_17_Hashtable_traitsILb1ELb1ELb1EEEE20_M_insert_unique_auxIS5_NS7_10_AllocNodeISaINS7_10_Hash_nodeIS5_Lb1EEEEEEEESt4pairINS7_14_Node_iteratorIS5_Lb1ELb1EEEbEOT_RKT0_
FNDA:0,_ZNSt10_HashtableINSt7__cxx1112basic_stringIcSt11char_traitsIcESaIcEEES5_SaIS5_ENSt8__detail9_IdentityESt8equal_toIS5_ESt4hashIS5_ENS7_18_Mod_range_hashingENS7_20_Default_ranged_hashENS7_20_Prime_rehash_policyENS7_17_Hashtable_traitsILb1ELb1ELb1EEEE9_M_insertIS5_NS7_10_AllocNodeISaINS7_10_Hash_nodeIS5_Lb1EEEEEEEESt4pairINS7_14_Node_iteratorIS5_Lb1ELb1EEEbEOT_RKT0_St17integral_constantIbLb1EE
FNDA:0,_ZNSt10_HashtableINSt7__cxx1112basic_stringIcSt11char_traitsIcESaIcEEES5_SaIS5_ENSt8__detail9_IdentityESt8equal_toIS5_ESt4hashIS5_ENS7_18_Mod_range_hashingENS7_20_Default_ranged_hashENS7_20_Prime_rehash_policyENS7_17_Hashtable_traitsILb1ELb1ELb1EEEE9_M_insertIS5_NS7_10_AllocNodeISaINS7_10_Hash_nodeIS5_Lb1EEEEEEEENS7_14_Node_iteratorIS5_Lb1ELb1EEENS7_20_Node_const_iteratorIS5_Lb1ELb1EEEOT_RKT0_St17integral_constantIbLb1EE
FNDA:7,_ZNSt10_HashtableINSt7__cxx1112basic_stringIcSt11char_traitsIcESaIcEEESt4pairIKS5_PN7testing9TestSuiteEESaISB_ENSt8__detail10_Select1stESt8equal_toIS5_ESt4hashIS5_ENSD_18_Mod_range_hashingENSD_20_Default_ranged_hashENSD_20_Prime_rehash_policyENSD_17_Hashtable_traitsILb1ELb0ELb1EEEE7emplaceIJRS7_RKSA_EEES6_INSD_14_Node_iteratorISB_Lb0ELb1EEEbEDpOT_
FNF:69
FNH:48
DA:300,0
DA:301,0
DA:305,7
DA:306,7
DA:307,7
DA:308,7
DA:311,7
DA:402,2
DA:404,2
DA:405,0
DA:406,2
DA:416,21
DA:417,21
DA:420,2
DA:421,2
DA:424,58
DA:427,58
DA:434,1
DA:436,1
DA:438,0
DA:439,0
DA:442,1
DA:446,19
DA:448,19
DA:449,18
DA:451,1
DA:455,19
DA:456,19
DA:464,82
DA:465,82
DA:530,16
DA:584,2
DA:589,2
DA:592,2
DA:593,2
DA:623,24
DA:624,24
DA:627,37
DA:628,37
DA:631,70
DA:632,70
DA:635,111
DA:636,111
DA:647,58
DA:648,58
DA:792,4
DA:793,4
DA:796,8
DA:797,8
DA:812,0
DA:815,0
DA:816,0
DA:817,0
DA:818,0
DA:823,0
DA:826,0
DA:827,0
DA:828,0
DA:829,0
DA:897,0
DA:898,0
DA:902,0
DA:904,0
DA:905,0
DA:906,0
DA:911,0
DA:916,0
DA:917,0
DA:934,0
DA:938,0
DA:960,7
DA:961,7
DA:1404,2
DA:1408,2
DA:1409,2
DA:1410,2
DA:1411,2
DA:1412,2
DA:1413,2
DA:1414,2
DA:1421,2
DA:1425,2
DA:1426,0
DA:1428,2
DA:1429,2
DA:1430,2
DA:1431,2
DA:1432,2
DA:1433,0
DA:1436,2
DA:1437,2
DA:1440,2
DA:1441,2
DA:1442,2
DA:1443,2
DA:1446,2
DA:1447,2
DA:1595,16
DA:1608,16
DA:1609,16
DA:1610,16
DA:1664,7
DA:1669,7
DA:1671,28
DA:1672,21
DA:1673,0
DA:1674,7
DA:1677,0
DA:1678,0
DA:1679,0
DA:1687,37
DA:1692,37
DA:1694,37
DA:1695,0
DA:1696,0
DA:1697,37
DA:1700,0
DA:1701,0
DA:1702,0
DA:1948,0
DA:1954,0
DA:1955,0
DA:1956,0
DA:1958,0
DA:1959,0
DA:1961,0
DA:1962,0
DA:1964,0
DA:1965,0
DA:1966,0
DA:1969,0
DA:1978,0
DA:1984,0
DA:1985,0
DA:1986,0
DA:1988,0
DA:1989,0
DA:1991,0
DA:1992,0
DA:1994,0
DA:1995,0
DA:1996,0
DA:1999,0
DA:2007,7
DA:2011,7
DA:2015,2
DA:2016,2
DA:2023,5
DA:2024,5
DA:2026,5
DA:2029,4
DA:2031,5
DA:2033,7
DA:2081,7
DA:2087,7
DA:2088,14
DA:2089,7
DA:2091,28
DA:2092,21
DA:2094,0
DA:2097,7
DA:2098,7
DA:2099,7
DA:2100,0
DA:2102,0
DA:2105,7
DA:2106,7
DA:2107,7
DA:2108,7
DA:2166,7
DA:2172,7
DA:2174,7
DA:2177,7
DA:2179,1
DA:2180,1
DA:2183,7
DA:2186,7
DA:2187,7
DA:2188,7
DA:2253,0
DA:2259,0
DA:2260,0
DA:2261,0
DA:2262,0
DA:2264,0
DA:2265,0
DA:2267,0
DA:2268,0
DA:2269,0
DA:2271,0
DA:2278,0
DA:2279,0
DA:2280,0
DA:2281,0
DA:2520,16
DA:2524,16
DA:2525,16
DA:2526,16
DA:2527,16
DA:2528,16
DA:2529,16
DA:2559,1
DA:2565,1
DA:2567,0
DA:2571,0
DA:2572,0
DA:2574,1
DA:2582,1
DA:2586,1
DA:2587,1
DA:2588,1
DA:2589,1
DA:2590,1
DA:2592,0
DA:2594,0
DA:2595,0
DA:2597,0
DA:2598,0
DA:2599,0
DA:2600,0
DA:2601,0
DA:2602,0
DA:2606,0
DA:2607,0
DA:2610,0
DA:2613,1
DA:2614,1
DA:2615,1
DA:2616,1
LF:229
LH:135
end_of_record
TN:
SF:/usr/include/c++/13/bits/hashtable_policy.h
FN:1079,1085,_ZNSt8__detail7_InsertINSt7__cxx1112basic_stringIcSt11char_traitsIcESaIcEEES6_SaIS6_ENS_9_IdentityESt8equal_toIS6_ESt4hashIS6_ENS_18_Mod_range_hashingENS_20_Default_ranged_hashENS_20_Prime_rehash_policyENS_17_Hashtable_traitsILb1ELb1ELb1EEELb1EE6insertENS_20_Node_const_iteratorIS6_Lb1ELb1EEEOS6_
FN:112,113,_ZNKSt8__detail10_Select1stclIRKSt4pairIKNSt7__cxx1112basic_stringIcSt11char_traitsIcESaIcEEEPN7testing9TestSuiteEEEEONS0_10__1st_typeIT_E4typeEOSH_
FN:112,113,_ZNKSt8__detail10_Select1stclIRSt4pairIKNSt7__cxx1112basic_stringIcSt11char_traitsIcESaIcEEEPN7testing9TestSuiteEEEEONS0_10__1st_typeIT_E4typeEOSG_
FN:1218,1218,_ZNSt8__detail21_Hashtable_ebo_helperILi0ESaINS_10_Hash_nodeINSt7__cxx1112basic_stringIcSt11char_traitsIcESaIcEEELb1EEEELb1EEC2Ev
FN:1218,1218,_ZNSt8__detail21_Hashtable_ebo_helperILi0ESaINS_10_Hash_nodeISt4pairIKNSt7__cxx1112basic_stringIcSt11char_traitsIcESaIcEEEPN7testing9TestSuiteEELb1EEEELb1EEC2Ev
FN:1218,1218,_ZNSt8__detail21_Hashtable_ebo_helperILi0ESaINS_10_Hash_nodeISt4pairIKNSt7__cxx1112basic_stringIcSt11char_traitsIcESaIcEEEmELb1EEEELb1EEC2Ev
FN:1218,1218,_ZNSt8__detail21_Hashtable_ebo_helperILi0ESt8equal_toINSt7__cxx1112basic_stringIcSt11char_traitsIcESaIcEEEELb1EEC2Ev
FN:1218,1218,_ZNSt8__detail21_Hashtable_ebo_helperILi1ESt4hashINSt7__cxx1112basic_stringIcSt11char_traitsIcESaIcEEEELb1EEC2Ev
FN:1225,1225,_ZNKSt8__detail21_Hashtable_ebo_helperILi0ESt8equal_toINSt7__cxx1112basic_stringIcSt11char_traitsIcESaIcEEEELb1EE7_M_cgetEv
FN:1225,1225,_ZNKSt8__detail21_Hashtable_ebo_helperILi1ESt4hashINSt7__cxx1112basic_stringIcSt11char_traitsIcESaIcEEEELb1EE7_M_cgetEv
FN:1226,1226,_ZNSt8__detail21_Hashtable_ebo_helperILi0ESaINS_10_Hash_nodeINSt7__cxx1112basic_stringIcSt11char_traitsIcESaIcEEELb1EEEELb1EE6_M_getEv
FN:1226,1226,_ZNSt8__detail21_Hashtable_ebo_helperILi0ESaINS_10_Hash_nodeISt4pairIKNSt7__cxx1112basic_stringIcSt11char_traitsIcESaIcEEEPN7testing9TestSuiteEELb1EEEELb1EE6_M_getEv
FN:1226,1226,_ZNSt8__detail21_Hashtable_ebo_helperILi0ESaINS_10_Hash_nodeISt4pairIKNSt7__cxx1112basic_stringIcSt11char_traitsIcESaIcEEEmELb1EEEELb1EE6_M_getEv
FN:124,125,_ZNKSt8__detail19_ConvertToValueTypeINS_9_IdentityENSt7__cxx1112basic_stringIcSt11char_traitsIcESaIcEEEEclIS7_EEOT_SB_
FN:1301,1301,_ZNSt8__detail15_Hash_code_baseINSt7__cxx1112basic_stringIcSt11char_traitsIcESaIcEEES6_NS_9_IdentityESt4hashIS6_ENS_18_Mod_range_hashingENS_20_Default_ranged_hashELb1EEC2Ev
FN:1301,1301,_ZNSt8__detail15_Hash_code_baseINSt7__cxx1112basic_stringIcSt11char_traitsIcESaIcEEESt4pairIKS6_PN7testing9TestSuiteEENS_10_Select1stESt4hashIS6_ENS_18_Mod_range_hashingENS_20_Default_ranged_hashELb1EEC2Ev
FN:1301,1301,_ZNSt8__detail15_Hash_code_baseINSt7__cxx1112basic_stringIcSt11char_traitsIcESaIcEEESt4pairIKS6_mENS_10_Select1stESt4hashIS6_ENS_18_Mod_range_hashingENS_20_Default_ranged_hashELb1EEC2Ev
FN:1306,1311,_ZNKSt8__detail15_Hash_code_baseINSt7__cxx1112basic_stringIcSt11char_traitsIcESaIcEEES6_NS_9_IdentityESt4hashIS6_ENS_18_Mod_range_hashingENS_20_Default_ranged_hashELb1EE12_M_hash_codeERKS6_
FN:1306,1311,_ZNKSt8__detail15_Hash_code_baseINSt7__cxx1112basic_stringIcSt11char_traitsIcESaIcEEESt4pairIKS6_PN7testing9TestSuiteEENS_10_Select1stESt4hashIS6_ENS_18_Mod_range_hashingENS_20_Default_ranged_hashELb1EE12_M_hash_codeERS8_
FN:1315,1320,_ZNKSt8__detail15_Hash_code_baseINSt7__cxx1112basic_stringIcSt11char_traitsIcESaIcEEES6_NS_9_IdentityESt4hashIS6_ENS_18_Mod_range_hashingENS_20_Default_ranged_hashELb1EE15_M_hash_code_trIS6_EEmRKT_
FN:1331,1332,_ZNKSt8__detail15_Hash_code_baseINSt7__cxx1112basic_stringIcSt11char_traitsIcESaIcEEES6_NS_9_IdentityESt4hashIS6_ENS_18_Mod_range_hashingENS_20_Default_ranged_hashELb1EE15_M_bucket_indexEmm
FN:1331,1332,_ZNKSt8__detail15_Hash_code_baseINSt7__cxx1112basic_stringIcSt11char_traitsIcESaIcEEESt4pairIKS6_PN7testing9TestSuiteEENS_10_Select1stESt4hashIS6_ENS_18_Mod_range_hashingENS_20_Default_ranged_hashELb1EE15_M_bucket_indexEmm
FN:1346,1350,_ZNKSt8__detail15_Hash_code_baseINSt7__cxx1112basic_stringIcSt11char_traitsIcESaIcEEES6_NS_9_IdentityESt4hashIS6_ENS_18_Mod_range_hashingENS_20_Default_ranged_hashELb1EE15_M_bucket_indexERKNS_16_Hash_node_valueIS6_Lb1EEEm
FN:1346,1350,_ZNKSt8__detail15_Hash_code_baseINSt7__cxx1112basic_stringIcSt11char_traitsIcESaIcEEESt4pairIKS6_PN7testing9TestSuiteEENS_10_Select1stESt4hashIS6_ENS_18_Mod_range_hashingENS_20_Default_ranged_hashELb1EE15_M_bucket_indexERKNS_16_Hash_node_valueISC_Lb1EEEm
FN:1362,1363,_ZNKSt8__detail15_Hash_code_baseINSt7__cxx1112basic_stringIcSt11char_traitsIcESaIcEEES6_NS_9_IdentityESt4hashIS6_ENS_18_Mod_range_hashingENS_20_Default_ranged_hashELb1EE13_M_store_codeERNS_21_Hash_node_code_cacheILb1EEEm
FN:1362,1363,_ZNKSt8__detail15_Hash_code_baseINSt7__cxx1112basic_stringIcSt11char_traitsIcESaIcEEESt4pairIKS6_PN7testing9TestSuiteEENS_10_Select1stESt4hashIS6_ENS_18_Mod_range_hashingENS_20_Default_ranged_hashELb1EE13_M_store_codeERNS_21_Hash_node_code_cacheILb1EEEm
FN:1375,1375,_ZNKSt8__detail15_Hash_code_baseINSt7__cxx1112basic_stringIcSt11char_traitsIcESaIcEEES6_NS_9_IdentityESt4hashIS6_ENS_18_Mod_range_hashingENS_20_Default_ranged_hashELb1EE7_M_hashEv
FN:1375,1375,_ZNKSt8__detail15_Hash_code_baseINSt7__cxx1112basic_stringIcSt11char_traitsIcESaIcEEESt4pairIKS6_PN7testing9TestSuiteEENS_10_Select1stESt4hashIS6_ENS_18_Mod_range_hashingENS_20_Default_ranged_hashELb1EE7_M_hashEv
FN:1692,1693,_ZNSt8__detail15_Hashtable_baseINSt7__cxx1112basic_stringIcSt11char_traitsIcESaIcEEES6_NS_9_IdentityESt8equal_toIS6_ESt4hashIS6_ENS_18_Mod_range_hashingENS_20_Default_ranged_hashENS_17_Hashtable_traitsILb1ELb1ELb1EEEE9_S_equalsEmRKNS_21_Hash_node_code_cacheILb1EEE
FN:1692,1693,_ZNSt8__detail15_Hashtable_baseINSt7__cxx1112basic_stringIcSt11char_traitsIcESaIcEEESt4pairIKS6_PN7testing9TestSuiteEENS_10_Select1stESt8equal_toIS6_ESt4hashIS6_ENS_18_Mod_range_hashingENS_20_Default_ranged_hashENS_17_Hashtable_traitsILb1ELb0ELb1EEEE9_S_equalsEmRKNS_21_Hash_node_code_cacheILb1EEE
FN:1701,1701,_ZNSt8__detail15_Hashtable_baseINSt7__cxx1112basic_stringIcSt11char_traitsIcESaIcEEES6_NS_9_IdentityESt8equal_toIS6_ESt4hashIS6_ENS_18_Mod_range_hashingENS_20_Default_ranged_hashENS_17_Hashtable_traitsILb1ELb1ELb1EEEEC2Ev
FN:1701,1701,_ZNSt8__detail15_Hashtable_baseINSt7__cxx1112basic_stringIcSt11char_traitsIcESaIcEEESt4pairIKS6_PN7testing9TestSuiteEENS_10_Select1stESt8equal_toIS6_ESt4hashIS6_ENS_18_Mod_range_hashingENS_20_Default_ranged_hashENS_17_Hashtable_traitsILb1ELb0ELb1EEEEC2Ev
FN:1701,1701,_ZNSt8__detail15_Hashtable_baseINSt7__cxx1112basic_stringIcSt11char_traitsIcESaIcEEESt4pairIKS6_mENS_10_Select1stESt8equal_toIS6_ESt4hashIS6_ENS_18_Mod_range_hashingENS_20_Default_ranged_hashENS_17_Hashtable_traitsILb1ELb0ELb1EEEEC2Ev
FN:1708,1716,_ZNKSt8__detail15_Hashtable_baseINSt7__cxx1112basic_stringIcSt11char_traitsIcESaIcEEES6_NS_9_IdentityESt8equal_toIS6_ESt4hashIS6_ENS_18_Mod_range_hashingENS_20_Default_ranged_hashENS_17_Hashtable_traitsILb1ELb1ELb1EEEE13_M_key_equalsERKS6_RKNS_16_Hash_node_valueIS6_Lb1EEE
FN:1708,1716,_ZNKSt8__detail15_Hashtable_baseINSt7__cxx1112basic_stringIcSt11char_traitsIcESaIcEEESt4pairIKS6_PN7testing9TestSuiteEENS_10_Select1stESt8equal_toIS6_ESt4hashIS6_ENS_18_Mod_range_hashingENS_20_Default_ranged_hashENS_17_Hashtable_traitsILb1ELb0ELb1EEEE13_M_key_equalsERS8_RKNS_16_Hash_node_valueISC_Lb1EEE
FN:171,173,_ZNSt8__detail12_NodeBuilderINS_9_IdentityEE8_S_buildINSt7__cxx1112basic_stringIcSt11char_traitsIcESaIcEEES9_NS_10_AllocNodeISaINS_10_Hash_nodeIS9_Lb1EEEEEEEEPNT1_11__node_typeEOT_OT0_RKSF_
FN:1720,1729,_ZNKSt8__detail15_Hashtable_baseINSt7__cxx1112basic_stringIcSt11char_traitsIcESaIcEEES6_NS_9_IdentityESt8equal_toIS6_ESt4hashIS6_ENS_18_Mod_range_hashingENS_20_Default_ranged_hashENS_17_Hashtable_traitsILb1ELb1ELb1EEEE16_M_key_equals_trIS6_EEbRKT_RKNS_16_Hash_node_valueIS6_Lb1EEE
FN:1732,1734,_ZNKSt8__detail15_Hashtable_baseINSt7__cxx1112basic_stringIcSt11char_traitsIcESaIcEEES6_NS_9_IdentityESt8equal_toIS6_ESt4hashIS6_ENS_18_Mod_range_hashingENS_20_Default_ranged_hashENS_17_Hashtable_traitsILb1ELb1ELb1EEEE9_M_equalsERKS6_mRKNS_16_Hash_node_valueIS6_Lb1EEE
FN:1732,1734,_ZNKSt8__detail15_Hashtable_baseINSt7__cxx1112basic_stringIcSt11char_traitsIcESaIcEEESt4pairIKS6_PN7testing9TestSuiteEENS_10_Select1stESt8equal_toIS6_ESt4hashIS6_ENS_18_Mod_range_hashingENS_20_Default_ranged_hashENS_17_Hashtable_traitsILb1ELb0ELb1EEEE9_M_equalsERS8_mRKNS_16_Hash_node_valueISC_Lb1EEE
FN:1738,1741,_ZNKSt8__detail15_Hashtable_baseINSt7__cxx1112basic_stringIcSt11char_traitsIcESaIcEEES6_NS_9_IdentityESt8equal_toIS6_ESt4hashIS6_ENS_18_Mod_range_hashingENS_20_Default_ranged_hashENS_17_Hashtable_traitsILb1ELb1ELb1EEEE12_M_equals_trIS6_EEbRKT_mRKNS_16_Hash_node_valueIS6_Lb1EEE
FN:1760,1760,_ZNKSt8__detail15_Hashtable_baseINSt7__cxx1112basic_stringIcSt11char_traitsIcESaIcEEES6_NS_9_IdentityESt8equal_toIS6_ESt4hashIS6_ENS_18_Mod_range_hashingENS_20_Default_ranged_hashENS_17_Hashtable_traitsILb1ELb1ELb1EEEE5_M_eqEv
FN:1760,1760,_ZNKSt8__detail15_Hashtable_baseINSt7__cxx1112basic_stringIcSt11char_traitsIcESaIcEEESt4pairIKS6_PN7testing9TestSuiteEENS_10_Select1stESt8equal_toIS6_ESt4hashIS6_ENS_18_Mod_range_hashingENS_20_Default_ranged_hashENS_17_Hashtable_traitsILb1ELb0ELb1EEEE5_M_eqEv
FN:1940,1940,_ZNSt8__detail16_Hashtable_allocISaINS_10_Hash_nodeINSt7__cxx1112basic_stringIcSt11char_traitsIcESaIcEEELb1EEEEEC2Ev
FN:1940,1940,_ZNSt8__detail16_Hashtable_allocISaINS_10_Hash_nodeISt4pairIKNSt7__cxx1112basic_stringIcSt11char_traitsIcESaIcEEEPN7testing9TestSuiteEELb1EEEEEC2Ev
FN:1940,1940,_ZNSt8__detail16_Hashtable_allocISaINS_10_Hash_nodeISt4pairIKNSt7__cxx1112basic_stringIcSt11char_traitsIcESaIcEEEmELb1EEEEEC2Ev
FN:1950,1951,_ZNSt8__detail16_Hashtable_allocISaINS_10_Hash_nodeINSt7__cxx1112basic_stringIcSt11char_traitsIcESaIcEEELb1EEEEE17_M_node_allocatorEv
FN:1950,1951,_ZNSt8__detail16_Hashtable_allocISaINS_10_Hash_nodeISt4pairIKNSt7__cxx1112basic_stringIcSt11char_traitsIcESaIcEEEPN7testing9TestSuiteEELb1EEEEE17_M_node_allocatorEv
FN:1950,1951,_ZNSt8__detail16_Hashtable_allocISaINS_10_Hash_nodeISt4pairIKNSt7__cxx1112basic_stringIcSt11char_traitsIcESaIcEEEmELb1EEEEE17_M_node_allocatorEv
FN:1987,2005,_ZNSt8__detail16_Hashtable_allocISaINS_10_Hash_nodeINSt7__cxx1112basic_stringIcSt11char_traitsIcESaIcEEELb1EEEEE16_M_allocate_nodeIJS7_EEEPS8_DpOT_
FN:1987,2005,_ZNSt8__detail16_Hashtable_allocISaINS_10_Hash_nodeISt4pairIKNSt7__cxx1112basic_stringIcSt11char_traitsIcESaIcEEEPN7testing9TestSuiteEELb1EEEEE16_M_allocate_nodeIJRS9_RKSC_EEEPSE_DpOT_
FN:2009,2013,_ZNSt8__detail16_Hashtable_allocISaINS_10_Hash_nodeINSt7__cxx1112basic_stringIcSt11char_traitsIcESaIcEEELb1EEEEE18_M_deallocate_nodeEPS8_
FN:2009,2013,_ZNSt8__detail16_Hashtable_allocISaINS_10_Hash_nodeISt4pairIKNSt7__cxx1112basic_stringIcSt11char_traitsIcESaIcEEEPN7testing9TestSuiteEELb1EEEEE18_M_deallocate_nodeEPSE_
FN:2009,2013,_ZNSt8__detail16_Hashtable_allocISaINS_10_Hash_nodeISt4pairIKNSt7__cxx1112basic_stringIcSt11char_traitsIcESaIcEEEmELb1EEEEE18_M_deallocate_nodeEPSB_
FN:2017,2023,_ZNSt8__detail16_Hashtable_allocISaINS_10_Hash_nodeINSt7__cxx1112basic_stringIcSt11char_traitsIcESaIcEEELb1EEEEE22_M_deallocate_node_ptrEPS8_
FN:2017,2023,_ZNSt8__detail16_Hashtable_allocISaINS_10_Hash_nodeISt4pairIKNSt7__cxx1112basic_stringIcSt11char_traitsIcESaIcEEEPN7testing9TestSuiteEELb1EEEEE22_M_deallocate_node_ptrEPSE_
FN:2017,2023,_ZNSt8__detail16_Hashtable_allocISaINS_10_Hash_nodeISt4pairIKNSt7__cxx1112basic_stringIcSt11char_traitsIcESaIcEEEmELb1EEEEE22_M_deallocate_node_ptrEPSB_
FN:2027,2035,_ZNSt8__detail16_Hashtable_allocISaINS_10_Hash_nodeINSt7__cxx1112basic_stringIcSt11char_traitsIcESaIcEEELb1EEEEE19_M_deallocate_nodesEPS8_
FN:2027,2035,_ZNSt8__detail16_Hashtable_allocISaINS_10_Hash_nodeISt4pairIKNSt7__cxx1112basic_stringIcSt11char_traitsIcESaIcEEEPN7testing9TestSuiteEELb1EEEEE19_M_deallocate_nodesEPSE_
FN:2027,2035,_ZNSt8__detail16_Hashtable_allocISaINS_10_Hash_nodeISt4pairIKNSt7__cxx1112basic_stringIcSt11char_traitsIcESaIcEEEmELb1EEEEE19_M_deallocate_nodesEPSB_
FN:2039,2048,_ZNSt8__detail16_Hashtable_allocISaINS_10_Hash_nodeINSt7__cxx1112basic_stringIcSt11char_traitsIcESaIcEEELb1EEEEE19_M_allocate_bucketsEm
FN:2039,2048,_ZNSt8__detail16_Hashtable_allocISaINS_10_Hash_nodeISt4pairIKNSt7__cxx1112basic_stringIcSt11char_traitsIcESaIcEEEPN7testing9TestSuiteEELb1EEEEE19_M_allocate_bucketsEm
FN:2052,2060,_ZNSt8__detail16_Hashtable_allocISaINS_10_Hash_nodeINSt7__cxx1112basic_stringIcSt11char_traitsIcESaIcEEELb1EEEEE21_M_deallocate_bucketsEPPNS_15_Hash_node_baseEm
FN:2052,2060,_ZNSt8__detail16_Hashtable_allocISaINS_10_Hash_nodeISt4pairIKNSt7__cxx1112basic_stringIcSt11char_traitsIcESaIcEEEPN7testing9TestSuiteEELb1EEEEE21_M_deallocate_bucketsEPPNS_15_Hash_node_baseEm
FN:2052,2060,_ZNSt8__detail16_Hashtable_allocISaINS_10_Hash_nodeISt4pairIKNSt7__cxx1112basic_stringIcSt11char_traitsIcESaIcEEEmELb1EEEEE21_M_deallocate_bucketsEPPNS_15_Hash_node_baseEm
FN:242,243,_ZNSt8__detail10_AllocNodeISaINS_10_Hash_nodeINSt7__cxx1112basic_stringIcSt11char_traitsIcESaIcEEELb1EEEEEC2ERNS_16_Hashtable_allocIS9_EE
FN:247,248,_ZNKSt8__detail10_AllocNodeISaINS_10_Hash_nodeINSt7__cxx1112basic_stringIcSt11char_traitsIcESaIcEEELb1EEEEEclIJS7_EEEPS8_DpOT_
FN:297,298,_ZNSt8__detail22_Hashtable_hash_traitsISt4hashINSt7__cxx1112basic_stringIcSt11char_traitsIcESaIcEEEEE22__small_size_thresholdEv
FN:313,313,_ZNSt8__detail15_Hash_node_baseC2Ev
FN:380,381,_ZNKSt8__detail10_Hash_nodeINSt7__cxx1112basic_stringIcSt11char_traitsIcESaIcEEELb1EE7_M_nextEv
FN:380,381,_ZNKSt8__detail10_Hash_nodeISt4pairIKNSt7__cxx1112basic_stringIcSt11char_traitsIcESaIcEEEPN7testing9TestSuiteEELb1EE7_M_nextEv
FN:380,381,_ZNKSt8__detail10_Hash_nodeISt4pairIKNSt7__cxx1112basic_stringIcSt11char_traitsIcESaIcEEEmELb1EE7_M_nextEv
FN:393,394,_ZNSt8__detail19_Node_iterator_baseINSt7__cxx1112basic_stringIcSt11char_traitsIcESaIcEEELb1EEC2EPNS_10_Hash_nodeIS6_Lb1EEE
FN:393,394,_ZNSt8__detail19_Node_iterator_baseISt4pairIKNSt7__cxx1112basic_stringIcSt11char_traitsIcESaIcEEEPN7testing9TestSuiteEELb1EEC2EPNS_10_Hash_nodeISC_Lb1EEE
FN:397,398,_ZNSt8__detail19_Node_iterator_baseINSt7__cxx1112basic_stringIcSt11char_traitsIcESaIcEEELb1EE7_M_incrEv
FN:397,398,_ZNSt8__detail19_Node_iterator_baseISt4pairIKNSt7__cxx1112basic_stringIcSt11char_traitsIcESaIcEEEPN7testing9TestSuiteEELb1EE7_M_incrEv
FN:407,409,_ZNSt8__detailneERKNS_19_Node_iterator_baseINSt7__cxx1112basic_stringIcSt11char_traitsIcESaIcEEELb1EEES9_
FN:407,409,_ZNSt8__detailneERKNS_19_Node_iterator_baseISt4pairIKNSt7__cxx1112basic_stringIcSt11char_traitsIcESaIcEEEPN7testing9TestSuiteEELb1EEESF_
FN:436,437,_ZNSt8__detail14_Node_iteratorINSt7__cxx1112basic_stringIcSt11char_traitsIcESaIcEEELb1ELb1EEC2EPNS_10_Hash_nodeIS6_Lb1EEE
FN:436,437,_ZNSt8__detail14_Node_iteratorISt4pairIKNSt7__cxx1112basic_stringIcSt11char_traitsIcESaIcEEEPN7testing9TestSuiteEELb0ELb1EEC2EPNS_10_Hash_nodeISC_Lb1EEE
FN:444,445,_ZNKSt8__detail14_Node_iteratorISt4pairIKNSt7__cxx1112basic_stringIcSt11char_traitsIcESaIcEEEPN7testing9TestSuiteEELb0ELb1EEptEv
FN:448,452,_ZNSt8__detail14_Node_iteratorINSt7__cxx1112basic_stringIcSt11char_traitsIcESaIcEEELb1ELb1EEppEv
FN:448,452,_ZNSt8__detail14_Node_iteratorISt4pairIKNSt7__cxx1112basic_stringIcSt11char_traitsIcESaIcEEEPN7testing9TestSuiteEELb0ELb1EEppEv
FN:483,484,_ZNSt8__detail20_Node_const_iteratorINSt7__cxx1112basic_stringIcSt11char_traitsIcESaIcEEELb1ELb1EEC2EPNS_10_Hash_nodeIS6_Lb1EEE
FN:486,488,_ZNSt8__detail20_Node_const_iteratorINSt7__cxx1112basic_stringIcSt11char_traitsIcESaIcEEELb1ELb1EEC2ERKNS_14_Node_iteratorIS6_Lb1ELb1EEE
FN:499,503,_ZNSt8__detail20_Node_const_iteratorINSt7__cxx1112basic_stringIcSt11char_traitsIcESaIcEEELb1ELb1EEppEv
FN:526,528,_ZNKSt8__detail18_Mod_range_hashingclEmm
FN:544,545,_ZNSt8__detail20_Prime_rehash_policyC2Ef
FN:571,572,_ZNKSt8__detail20_Prime_rehash_policy8_M_stateEv
FN:575,576,_ZNSt8__detail20_Prime_rehash_policy8_M_resetEv
FN:579,580,_ZNSt8__detail20_Prime_rehash_policy8_M_resetEm
FN:89,90,_ZNKSt8__detail9_IdentityclINSt7__cxx1112basic_stringIcSt11char_traitsIcESaIcEEEEEOT_S9_
FN:89,90,_ZNKSt8__detail9_IdentityclIRKNSt7__cxx1112basic_stringIcSt11char_traitsIcESaIcEEEEEOT_SB_
FN:903,904,_ZNSt8__detail12_Insert_baseINSt7__cxx1112basic_stringIcSt11char_traitsIcESaIcEEES6_SaIS6_ENS_9_IdentityESt8equal_toIS6_ESt4hashIS6_ENS_18_Mod_range_hashingENS_20_Default_ranged_hashENS_20_Prime_rehash_policyENS_17_Hashtable_traitsILb1ELb1ELb1EEEE20_M_conjure_hashtableEv
FNDA:0,_ZNSt8__detail7_InsertINSt7__cxx1112basic_stringIcSt11char_traitsIcESaIcEEES6_SaIS6_ENS_9_IdentityESt8equal_toIS6_ESt4hashIS6_ENS_18_Mod_range_hashingENS_20_Default_ranged_hashENS_20_Prime_rehash_policyENS_17_Hashtable_traitsILb1ELb1ELb1EEELb1EE6insertENS_20_Node_const_iteratorIS6_Lb1ELb1EEEOS6_
FNDA:42,_ZNKSt8__detail10_Select1stclIRKSt4pairIKNSt7__cxx1112basic_stringIcSt11char_traitsIcESaIcEEEPN7testing9TestSuiteEEEEONS0_10__1st_typeIT_E4typeEOSH_
FNDA:7,_ZNKSt8__detail10_Select1stclIRSt4pairIKNSt7__cxx1112basic_stringIcSt11char_traitsIcESaIcEEEPN7testing9TestSuiteEEEEONS0_10__1st_typeIT_E4typeEOSG_
FNDA:14,_ZNSt8__detail21_Hashtable_ebo_helperILi0ESaINS_10_Hash_nodeINSt7__cxx1112basic_stringIcSt11char_traitsIcESaIcEEELb1EEEELb1EEC2Ev
FNDA:1,_ZNSt8__detail21_Hashtable_ebo_helperILi0ESaINS_10_Hash_nodeISt4pairIKNSt7__cxx1112basic_stringIcSt11char_traitsIcESaIcEEEPN7testing9TestSuiteEELb1EEEELb1EEC2Ev
FNDA:1,_ZNSt8__detail21_Hashtable_ebo_helperILi0ESaINS_10_Hash_nodeISt4pairIKNSt7__cxx1112basic_stringIcSt11char_traitsIcESaIcEEEmELb1EEEELb1EEC2Ev
FNDA:16,_ZNSt8__detail21_Hashtable_ebo_helperILi0ESt8equal_toINSt7__cxx1112basic_stringIcSt11char_traitsIcESaIcEEEELb1EEC2Ev
FNDA:16,_ZNSt8__detail21_Hashtable_ebo_helperILi1ESt4hashINSt7__cxx1112basic_stringIcSt11char_traitsIcESaIcEEEELb1EEC2Ev
FNDA:42,_ZNKSt8__detail21_Hashtable_ebo_helperILi0ESt8equal_toINSt7__cxx1112basic_stringIcSt11char_traitsIcESaIcEEEELb1EE7_M_cgetEv
FNDA:7,_ZNKSt8__detail21_Hashtable_ebo_helperILi1ESt4hashINSt7__cxx1112basic_stringIcSt11char_traitsIcESaIcEEEELb1EE7_M_cgetEv
FNDA:4,_ZNSt8__detail21_Hashtable_ebo_helperILi0ESaINS_10_Hash_nodeINSt7__cxx1112basic_stringIcSt11char_traitsIcESaIcEEELb1EEEELb1EE6_M_getEv
FNDA:30,_ZNSt8__detail21_Hashtable_ebo_helperILi0ESaINS_10_Hash_nodeISt4pairIKNSt7__cxx1112basic_stringIcSt11char_traitsIcESaIcEEEPN7testing9TestSuiteEELb1EEEELb1EE6_M_getEv
FNDA:0,_ZNSt8__detail21_Hashtable_ebo_helperILi0ESaINS_10_Hash_nodeISt4pairIKNSt7__cxx1112basic_stringIcSt11char_traitsIcESaIcEEEmELb1EEEELb1EE6_M_getEv
FNDA:0,_ZNKSt8__detail19_ConvertToValueTypeINS_9_IdentityENSt7__cxx1112basic_stringIcSt11char_traitsIcESaIcEEEEclIS7_EEOT_SB_
FNDA:14,_ZNSt8__detail15_Hash_code_baseINSt7__cxx1112basic_stringIcSt11char_traitsIcESaIcEEES6_NS_9_IdentityESt4hashIS6_ENS_18_Mod_range_hashingENS_20_Default_ranged_hashELb1EEC2Ev
FNDA:1,_ZNSt8__detail15_Hash_code_baseINSt7__cxx1112basic_stringIcSt11char_traitsIcESaIcEEESt4pairIKS6_PN7testing9TestSuiteEENS_10_Select1stESt4hashIS6_ENS_18_Mod_range_hashingENS_20_Default_ranged_hashELb1EEC2Ev
FNDA:1,_ZNSt8__detail15_Hash_code_baseINSt7__cxx1112basic_stringIcSt11char_traitsIcESaIcEEESt4pairIKS6_mENS_10_Select1stESt4hashIS6_ENS_18_Mod_range_hashingENS_20_Default_ranged_hashELb1EEC2Ev
FNDA:0,_ZNKSt8__detail15_Hash_code_baseINSt7__cxx1112basic_stringIcSt11char_traitsIcESaIcEEES6_NS_9_IdentityESt4hashIS6_ENS_18_Mod_range_hashingENS_20_Default_ranged_hashELb1EE12_M_hash_codeERKS6_
FNDA:7,_ZNKSt8__detail15_Hash_code_baseINSt7__cxx1112basic_stringIcSt11char_traitsIcESaIcEEESt4pairIKS6_PN7testing9TestSuiteEENS_10_Select1stESt4hashIS6_ENS_18_Mod_range_hashingENS_20_Default_ranged_hashELb1EE12_M_hash_codeERS8_
FNDA:0,_ZNKSt8__detail15_Hash_code_baseINSt7__cxx1112basic_stringIcSt11char_traitsIcESaIcEEES6_NS_9_IdentityESt4hashIS6_ENS_18_Mod_range_hashingENS_20_Default_ranged_hashELb1EE15_M_hash_code_trIS6_EEmRKT_
FNDA:0,_ZNKSt8__detail15_Hash_code_baseINSt7__cxx1112basic_stringIcSt11char_traitsIcESaIcEEES6_NS_9_IdentityESt4hashIS6_ENS_18_Mod_range_hashingENS_20_Default_ranged_hashELb1EE15_M_bucket_indexEmm
FNDA:8,_ZNKSt8__detail15_Hash_code_baseINSt7__cxx1112basic_stringIcSt11char_traitsIcESaIcEEESt4pairIKS6_PN7testing9TestSuiteEENS_10_Select1stESt4hashIS6_ENS_18_Mod_range_hashingENS_20_Default_ranged_hashELb1EE15_M_bucket_indexEmm
FNDA:0,_ZNKSt8__detail15_Hash_code_baseINSt7__cxx1112basic_stringIcSt11char_traitsIcESaIcEEES6_NS_9_IdentityESt4hashIS6_ENS_18_Mod_range_hashingENS_20_Default_ranged_hashELb1EE15_M_bucket_indexERKNS_16_Hash_node_valueIS6_Lb1EEEm
FNDA:4,_ZNKSt8__detail15_Hash_code_baseINSt7__cxx1112basic_stringIcSt11char_traitsIcESaIcEEESt4pairIKS6_PN7testing9TestSuiteEENS_10_Select1stESt4hashIS6_ENS_18_Mod_range_hashingENS_20_Default_ranged_hashELb1EE15_M_bucket_indexERKNS_16_Hash_node_valueISC_Lb1EEEm
FNDA:0,_ZNKSt8__detail15_Hash_code_baseINSt7__cxx1112basic_stringIcSt11char_traitsIcESaIcEEES6_NS_9_IdentityESt4hashIS6_ENS_18_Mod_range_hashingENS_20_Default_ranged_hashELb1EE13_M_store_codeERNS_21_Hash_node_code_cacheILb1EEEm
FNDA:7,_ZNKSt8__detail15_Hash_code_baseINSt7__cxx1112basic_stringIcSt11char_traitsIcESaIcEEESt4pairIKS6_PN7testing9TestSuiteEENS_10_Select1stESt4hashIS6_ENS_18_Mod_range_hashingENS_20_Default_ranged_hashELb1EE13_M_store_codeERNS_21_Hash_node_code_cacheILb1EEEm
FNDA:0,_ZNKSt8__detail15_Hash_code_baseINSt7__cxx1112basic_stringIcSt11char_traitsIcESaIcEEES6_NS_9_IdentityESt4hashIS6_ENS_18_Mod_range_hashingENS_20_Default_ranged_hashELb1EE7_M_hashEv
FNDA:7,_ZNKSt8__detail15_Hash_code_baseINSt7__cxx1112basic_stringIcSt11char_traitsIcESaIcEEESt4pairIKS6_PN7testing9TestSuiteEENS_10_Select1stESt4hashIS6_ENS_18_Mod_range_hashingENS_20_Default_ranged_hashELb1EE7_M_hashEv
FNDA:0,_ZNSt8__detail15_Hashtable_baseINSt7__cxx1112basic_stringIcSt11char_traitsIcESaIcEEES6_NS_9_IdentityESt8equal_toIS6_ESt4hashIS6_ENS_18_Mod_range_hashingENS_20_Default_ranged_hashENS_17_Hashtable_traitsILb1ELb1ELb1EEEE9_S_equalsEmRKNS_21_Hash_node_code_cacheILb1EEE
FNDA:0,_ZNSt8__detail15_Hashtable_baseINSt7__cxx1112basic_stringIcSt11char_traitsIcESaIcEEESt4pairIKS6_PN7testing9TestSuiteEENS_10_Select1stESt8equal_toIS6_ESt4hashIS6_ENS_18_Mod_range_hashingENS_20_Default_ranged_hashENS_17_Hashtable_traitsILb1ELb0ELb1EEEE9_S_equalsEmRKNS_21_Hash_node_code_cacheILb1EEE
FNDA:14,_ZNSt8__detail15_Hashtable_baseINSt7__cxx1112basic_stringIcSt11char_traitsIcESaIcEEES6_NS_9_IdentityESt8equal_toIS6_ESt4hashIS6_ENS_18_Mod_range_hashingENS_20_Default_ranged_hashENS_17_Hashtable_traitsILb1ELb1ELb1EEEEC2Ev
FNDA:1,_ZNSt8__detail15_Hashtable_baseINSt7__cxx1112basic_stringIcSt11char_traitsIcESaIcEEESt4pairIKS6_PN7testing9TestSuiteEENS_10_Select1stESt8equal_toIS6_ESt4hashIS6_ENS_18_Mod_range_hashingENS_20_Default_ranged_hashENS_17_Hashtable_traitsILb1ELb0ELb1EEEEC2Ev
FNDA:1,_ZNSt8__detail15_Hashtable_baseINSt7__cxx1112basic_stringIcSt11char_traitsIcESaIcEEESt4pairIKS6_mENS_10_Select1stESt8equal_toIS6_ESt4hashIS6_ENS_18_Mod_range_hashingENS_20_Default_ranged_hashENS_17_Hashtable_traitsILb1ELb0ELb1EEEEC2Ev
FNDA:0,_ZNKSt8__detail15_Hashtable_baseINSt7__cxx1112basic_stringIcSt11char_traitsIcESaIcEEES6_NS_9_IdentityESt8equal_toIS6_ESt4hashIS6_ENS_18_Mod_range_hashingENS_20_Default_ranged_hashENS_17_Hashtable_traitsILb1ELb1ELb1EEEE13_M_key_equalsERKS6_RKNS_16_Hash_node_valueIS6_Lb1EEE
FNDA:42,_ZNKSt8__detail15_Hashtable_baseINSt7__cxx1112basic_stringIcSt11char_traitsIcESaIcEEESt4pairIKS6_PN7testing9TestSuiteEENS_10_Select1stESt8equal_toIS6_ESt4hashIS6_ENS_18_Mod_range_hashingENS_20_Default_ranged_hashENS_17_Hashtable_traitsILb1ELb0ELb1EEEE13_M_key_equalsERS8_RKNS_16_Hash_node_valueISC_Lb1EEE
FNDA:0,_ZNSt8__detail12_NodeBuilderINS_9_IdentityEE8_S_buildINSt7__cxx1112basic_stringIcSt11char_traitsIcESaIcEEES9_NS_10_AllocNodeISaINS_10_Hash_nodeIS9_Lb1EEEEEEEEPNT1_11__node_typeEOT_OT0_RKSF_
FNDA:0,_ZNKSt8__detail15_Hashtable_baseINSt7__cxx1112basic_stringIcSt11char_traitsIcESaIcEEES6_NS_9_IdentityESt8equal_toIS6_ESt4hashIS6_ENS_18_Mod_range_hashingENS_20_Default_ranged_hashENS_17_Hashtable_traitsILb1ELb1ELb1EEEE16_M_key_equals_trIS6_EEbRKT_RKNS_16_Hash_node_valueIS6_Lb1EEE
FNDA:0,_ZNKSt8__detail15_Hashtable_baseINSt7__cxx1112basic_stringIcSt11char_traitsIcESaIcEEES6_NS_9_IdentityESt8equal_toIS6_ESt4hashIS6_ENS_18_Mod_range_hashingENS_20_Default_ranged_hashENS_17_Hashtable_traitsILb1ELb1ELb1EEEE9_M_equalsERKS6_mRKNS_16_Hash_node_valueIS6_Lb1EEE
FNDA:0,_ZNKSt8__detail15_Hashtable_baseINSt7__cxx1112basic_stringIcSt11char_traitsIcESaIcEEESt4pairIKS6_PN7testing9TestSuiteEENS_10_Select1stESt8equal_toIS6_ESt4hashIS6_ENS_18_Mod_range_hashingENS_20_Default_ranged_hashENS_17_Hashtable_traitsILb1ELb0ELb1EEEE9_M_equalsERS8_mRKNS_16_Hash_node_valueISC_Lb1EEE
FNDA:0,_ZNKSt8__detail15_Hashtable_baseINSt7__cxx1112basic_stringIcSt11char_traitsIcESaIcEEES6_NS_9_IdentityESt8equal_toIS6_ESt4hashIS6_ENS_18_Mod_range_hashingENS_20_Default_ranged_hashENS_17_Hashtable_traitsILb1ELb1ELb1EEEE12_M_equals_trIS6_EEbRKT_mRKNS_16_Hash_node_valueIS6_Lb1EEE
FNDA:0,_ZNKSt8__detail15_Hashtable_baseINSt7__cxx1112basic_stringIcSt11char_traitsIcESaIcEEES6_NS_9_IdentityESt8equal_toIS6_ESt4hashIS6_ENS_18_Mod_range_hashingENS_20_Default_ranged_hashENS_17_Hashtable_traitsILb1ELb1ELb1EEEE5_M_eqEv
FNDA:42,_ZNKSt8__detail15_Hashtable_baseINSt7__cxx1112basic_stringIcSt11char_traitsIcESaIcEEESt4pairIKS6_PN7testing9TestSuiteEENS_10_Select1stESt8equal_toIS6_ESt4hashIS6_ENS_18_Mod_range_hashingENS_20_Default_ranged_hashENS_17_Hashtable_traitsILb1ELb0ELb1EEEE5_M_eqEv
FNDA:14,_ZNSt8__detail16_Hashtable_allocISaINS_10_Hash_nodeINSt7__cxx1112basic_stringIcSt11char_traitsIcESaIcEEELb1EEEEEC2Ev
FNDA:1,_ZNSt8__detail16_Hashtable_allocISaINS_10_Hash_nodeISt4pairIKNSt7__cxx1112basic_stringIcSt11char_traitsIcESaIcEEEPN7testing9TestSuiteEELb1EEEEEC2Ev
FNDA:1,_ZNSt8__detail16_Hashtable_allocISaINS_10_Hash_nodeISt4pairIKNSt7__cxx1112basic_stringIcSt11char_traitsIcESaIcEEEmELb1EEEEEC2Ev
FNDA:4,_ZNSt8__detail16_Hashtable_allocISaINS_10_Hash_nodeINSt7__cxx1112basic_stringIcSt11char_traitsIcESaIcEEELb1EEEEE17_M_node_allocatorEv
FNDA:30,_ZNSt8__detail16_Hashtable_allocISaINS_10_Hash_nodeISt4pairIKNSt7__cxx1112basic_stringIcSt11char_traitsIcESaIcEEEPN7testing9TestSuiteEELb1EEEEE17_M_node_allocatorEv
FNDA:0,_ZNSt8__detail16_Hashtable_allocISaINS_10_Hash_nodeISt4pairIKNSt7__cxx1112basic_stringIcSt11char_traitsIcESaIcEEEmELb1EEEEE17_M_node_allocatorEv
FNDA:0,_ZNSt8__detail16_Hashtable_allocISaINS_10_Hash_nodeINSt7__cxx1112basic_stringIcSt11char_traitsIcESaIcEEELb1EEEEE16_M_allocate_nodeIJS7_EEEPS8_DpOT_
FNDA:7,_ZNSt8__detail16_Hashtable_allocISaINS_10_Hash_nodeISt4pairIKNSt7__cxx1112basic_stringIcSt11char_traitsIcESaIcEEEPN7testing9TestSuiteEELb1EEEEE16_M_allocate_nodeIJRS9_RKSC_EEEPSE_DpOT_
FNDA:0,_ZNSt8__detail16_Hashtable_allocISaINS_10_Hash_nodeINSt7__cxx1112basic_stringIcSt11char_traitsIcESaIcEEELb1EEEEE18_M_deallocate_nodeEPS8_
FNDA:7,_ZNSt8__detail16_Hashtable_allocISaINS_10_Hash_nodeISt4pairIKNSt7__cxx1112basic_stringIcSt11char_traitsIcESaIcEEEPN7testing9TestSuiteEELb1EEEEE18_M_deallocate_nodeEPSE_
FNDA:0,_ZNSt8__detail16_Hashtable_allocISaINS_10_Hash_nodeISt4pairIKNSt7__cxx1112basic_stringIcSt11char_traitsIcESaIcEEEmELb1EEEEE18_M_deallocate_nodeEPSB_
FNDA:0,_ZNSt8__detail16_Hashtable_allocISaINS_10_Hash_nodeINSt7__cxx1112basic_stringIcSt11char_traitsIcESaIcEEELb1EEEEE22_M_deallocate_node_ptrEPS8_
FNDA:7,_ZNSt8__detail16_Hashtable_allocISaINS_10_Hash_nodeISt4pairIKNSt7__cxx1112basic_stringIcSt11char_traitsIcESaIcEEEPN7testing9TestSuiteEELb1EEEEE22_M_deallocate_node_ptrEPSE_
FNDA:0,_ZNSt8__detail16_Hashtable_allocISaINS_10_Hash_nodeISt4pairIKNSt7__cxx1112basic_stringIcSt11char_traitsIcESaIcEEEmELb1EEEEE22_M_deallocate_node_ptrEPSB_
FNDA:16,_ZNSt8__detail16_Hashtable_allocISaINS_10_Hash_nodeINSt7__cxx1112basic_stringIcSt11char_traitsIcESaIcEEELb1EEEEE19_M_deallocate_nodesEPS8_
FNDA:1,_ZNSt8__detail16_Hashtable_allocISaINS_10_Hash_nodeISt4pairIKNSt7__cxx1112basic_stringIcSt11char_traitsIcESaIcEEEPN7testing9TestSuiteEELb1EEEEE19_M_deallocate_nodesEPSE_
FNDA:1,_ZNSt8__detail16_Hashtable_allocISaINS_10_Hash_nodeISt4pairIKNSt7__cxx1112basic_stringIcSt11char_traitsIcESaIcEEEmELb1EEEEE19_M_deallocate_nodesEPSB_
FNDA:0,_ZNSt8__detail16_Hashtable_allocISaINS_10_Hash_nodeINSt7__cxx1112basic_stringIcSt11char_traitsIcESaIcEEELb1EEEEE19_M_allocate_bucketsEm
FNDA:1,_ZNSt8__detail16_Hashtable_allocISaINS_10_Hash_nodeISt4pairIKNSt7__cxx1112basic_stringIcSt11char_traitsIcESaIcEEEPN7testing9TestSuiteEELb1EEEEE19_M_allocate_bucketsEm
FNDA:0,_ZNSt8__detail16_Hashtable_allocISaINS_10_Hash_nodeINSt7__cxx1112basic_stringIcSt11char_traitsIcESaIcEEELb1EEEEE21_M_deallocate_bucketsEPPNS_15_Hash_node_baseEm
FNDA:1,_ZNSt8__detail16_Hashtable_allocISaINS_10_Hash_nodeISt4pairIKNSt7__cxx1112basic_stringIcSt11char_traitsIcESaIcEEEPN7testing9TestSuiteEELb1EEEEE21_M_deallocate_bucketsEPPNS_15_Hash_node_baseEm
FNDA:0,_ZNSt8__detail16_Hashtable_allocISaINS_10_Hash_nodeISt4pairIKNSt7__cxx1112basic_stringIcSt11char_traitsIcESaIcEEEmELb1EEEEE21_M_deallocate_bucketsEPPNS_15_Hash_node_baseEm
FNDA:0,_ZNSt8__detail10_AllocNodeISaINS_10_Hash_nodeINSt7__cxx1112basic_stringIcSt11char_traitsIcESaIcEEELb1EEEEEC2ERNS_16_Hashtable_allocIS9_EE
FNDA:0,_ZNKSt8__detail10_AllocNodeISaINS_10_Hash_nodeINSt7__cxx1112basic_stringIcSt11char_traitsIcESaIcEEELb1EEEEEclIJS7_EEEPS8_DpOT_
FNDA:58,_ZNSt8__detail22_Hashtable_hash_traitsISt4hashINSt7__cxx1112basic_stringIcSt11char_traitsIcESaIcEEEEE22__small_size_thresholdEv
FNDA:23,_ZNSt8__detail15_Hash_node_baseC2Ev
FNDA:0,_ZNKSt8__detail10_Hash_nodeINSt7__cxx1112basic_stringIcSt11char_traitsIcESaIcEEELb1EE7_M_nextEv
FNDA:53,_ZNKSt8__detail10_Hash_nodeISt4pairIKNSt7__cxx1112basic_stringIcSt11char_traitsIcESaIcEEEPN7testing9TestSuiteEELb1EE7_M_nextEv
FNDA:0,_ZNKSt8__detail10_Hash_nodeISt4pairIKNSt7__cxx1112basic_stringIcSt11char_traitsIcESaIcEEEmELb1EE7_M_nextEv
FNDA:158,_ZNSt8__detail19_Node_iterator_baseINSt7__cxx1112basic_stringIcSt11char_traitsIcESaIcEEELb1EEC2EPNS_10_Hash_nodeIS6_Lb1EEE
FNDA:91,_ZNSt8__detail19_Node_iterator_baseISt4pairIKNSt7__cxx1112basic_stringIcSt11char_traitsIcESaIcEEEPN7testing9TestSuiteEELb1EEC2EPNS_10_Hash_nodeISC_Lb1EEE
FNDA:0,_ZNSt8__detail19_Node_iterator_baseINSt7__cxx1112basic_stringIcSt11char_traitsIcESaIcEEELb1EE7_M_incrEv
FNDA:42,_ZNSt8__detail19_Node_iterator_baseISt4pairIKNSt7__cxx1112basic_stringIcSt11char_traitsIcESaIcEEEPN7testing9TestSuiteEELb1EE7_M_incrEv
FNDA:74,_ZNSt8__detailneERKNS_19_Node_iterator_baseINSt7__cxx1112basic_stringIcSt11char_traitsIcESaIcEEELb1EEES9_
FNDA:63,_ZNSt8__detailneERKNS_19_Node_iterator_baseISt4pairIKNSt7__cxx1112basic_stringIcSt11char_traitsIcESaIcEEEPN7testing9TestSuiteEELb1EEESF_
FNDA:10,_ZNSt8__detail14_Node_iteratorINSt7__cxx1112basic_stringIcSt11char_traitsIcESaIcEEELb1ELb1EEC2EPNS_10_Hash_nodeIS6_Lb1EEE
FNDA:91,_ZNSt8__detail14_Node_iteratorISt4pairIKNSt7__cxx1112basic_stringIcSt11char_traitsIcESaIcEEEPN7testing9TestSuiteEELb0ELb1EEC2EPNS_10_Hash_nodeISC_Lb1EEE
FNDA:0,_ZNKSt8__detail14_Node_iteratorISt4pairIKNSt7__cxx1112basic_stringIcSt11char_traitsIcESaIcEEEPN7testing9TestSuiteEELb0ELb1EEptEv
FNDA:0,_ZNSt8__detail14_Node_iteratorINSt7__cxx1112basic_stringIcSt11char_traitsIcESaIcEEELb1ELb1EEppEv
FNDA:42,_ZNSt8__detail14_Node_iteratorISt4pairIKNSt7__cxx1112basic_stringIcSt11char_traitsIcESaIcEEEPN7testing9TestSuiteEELb0ELb1EEppEv
FNDA:148,_ZNSt8__detail20_Node_const_iteratorINSt7__cxx1112basic_stringIcSt11char_traitsIcESaIcEEELb1ELb1EEC2EPNS_10_Hash_nodeIS6_Lb1EEE
FNDA:0,_ZNSt8__detail20_Node_const_iteratorINSt7__cxx1112basic_stringIcSt11char_traitsIcESaIcEEELb1ELb1EEC2ERKNS_14_Node_iteratorIS6_Lb1ELb1EEE
FNDA:0,_ZNSt8__detail20_Node_const_iteratorINSt7__cxx1112basic_stringIcSt11char_traitsIcESaIcEEELb1ELb1EEppEv
FNDA:12,_ZNKSt8__detail18_Mod_range_hashingclEmm
FNDA:16,_ZNSt8__detail20_Prime_rehash_policyC2Ef
FNDA:7,_ZNKSt8__detail20_Prime_rehash_policy8_M_stateEv
FNDA:2,_ZNSt8__detail20_Prime_rehash_policy8_M_resetEv
FNDA:0,_ZNSt8__detail20_Prime_rehash_policy8_M_resetEm
FNDA:0,_ZNKSt8__detail9_IdentityclINSt7__cxx1112basic_stringIcSt11char_traitsIcESaIcEEEEEOT_S9_
FNDA:0,_ZNKSt8__detail9_IdentityclIRKNSt7__cxx1112basic_stringIcSt11char_traitsIcESaIcEEEEEOT_SB_
FNDA:0,_ZNSt8__detail12_Insert_baseINSt7__cxx1112basic_stringIcSt11char_traitsIcESaIcEEES6_SaIS6_ENS_9_IdentityESt8equal_toIS6_ESt4hashIS6_ENS_18_Mod_range_hashingENS_20_Default_ranged_hashENS_20_Prime_rehash_policyENS_17_Hashtable_traitsILb1ELb1ELb1EEEE20_M_conjure_hashtableEv
FNF:93
FNH:53
DA:89,0
DA:90,0
DA:112,49
DA:113,49
DA:124,0
DA:125,0
DA:171,0
DA:173,0
DA:242,0
DA:243,0
DA:247,0
DA:248,0
DA:297,58
DA:298,58
DA:313,23
DA:333,21
DA:338,42
DA:343,7
DA:348,42
DA:380,53
DA:381,53
DA:393,249
DA:394,249
DA:397,42
DA:398,42
DA:407,137
DA:409,137
DA:436,101
DA:437,101
DA:444,0
DA:445,0
DA:448,42
DA:450,42
DA:451,42
DA:483,148
DA:484,148
DA:486,0
DA:488,0
DA:499,0
DA:501,0
DA:502,0
DA:526,12
DA:528,12
DA:544,16
DA:545,16
DA:571,7
DA:572,7
DA:575,2
DA:576,2
DA:579,0
DA:580,0
DA:903,0
DA:904,0
DA:1079,0
DA:1081,0
DA:1082,0
DA:1083,0
DA:1084,0
DA:1218,48
DA:1225,49
DA:1226,34
DA:1301,16
DA:1306,7
DA:1310,7
DA:1315,0
DA:1319,0
DA:1331,8
DA:1332,8
DA:1346,4
DA:1350,4
DA:1362,7
DA:1363,7
DA:1375,7
DA:1692,0
DA:1693,0
DA:1701,16
DA:1708,42
DA:1715,84
DA:1720,0
DA:1728,0
DA:1732,0
DA:1734,0
DA:1738,0
DA:1741,0
DA:1760,42
DA:1940,16
DA:1950,34
DA:1951,34
DA:1987,7
DA:1990,7
DA:1991,7
DA:1994,7
DA:1995,14
DA:1998,7
DA:2000,0
DA:2002,0
DA:2003,0
DA:2009,7
DA:2011,14
DA:2012,7
DA:2013,7
DA:2017,7
DA:2020,7
DA:2021,7
DA:2022,7
DA:2023,7
DA:2027,18
DA:2029,25
DA:2031,7
DA:2032,7
DA:2033,7
DA:2035,18
DA:2039,1
DA:2042,1
DA:2044,1
DA:2045,1
DA:2046,1
DA:2047,2
DA:2052,1
DA:2057,1
DA:2058,1
DA:2060,1
LF:122
LH:83
end_of_record
TN:
SF:/usr/include/c++/13/bits/ios_base.h
FN:1001,1005,_ZSt9uppercaseRSt8ios_base
FN:103,104,_ZStaNRSt13_Ios_FmtflagsS_
FN:1067,1071,_ZSt3hexRSt8ios_base
FN:1084,1088,_ZSt5fixedRSt8ios_base
FN:662,663,_ZNKSt8ios_base5flagsEv
FN:673,678,_ZNSt8ios_base5flagsESt13_Ios_Fmtflags
FN:689,694,_ZNSt8ios_base4setfESt13_Ios_Fmtflags
FN:706,712,_ZNSt8ios_base4setfESt13_Ios_FmtflagsS0_
FN:83,84,_ZStanSt13_Ios_FmtflagsS_
FN:87,88,_ZStorSt13_Ios_FmtflagsS_
FN:95,96,_ZStcoSt13_Ios_Fmtflags
FN:953,957,_ZSt9showpointRSt8ios_base
FN:99,100,_ZStoRRSt13_Ios_FmtflagsS_
FNDA:0,_ZSt9uppercaseRSt8ios_base
FNDA:0,_ZStaNRSt13_Ios_FmtflagsS_
FNDA:0,_ZSt3hexRSt8ios_base
FNDA:0,_ZSt5fixedRSt8ios_base
FNDA:0,_ZNKSt8ios_base5flagsEv
FNDA:0,_ZNSt8ios_base5flagsESt13_Ios_Fmtflags
FNDA:0,_ZNSt8ios_base4setfESt13_Ios_Fmtflags
FNDA:0,_ZNSt8ios_base4setfESt13_Ios_FmtflagsS0_
FNDA:0,_ZStanSt13_Ios_FmtflagsS_
FNDA:0,_ZStorSt13_Ios_FmtflagsS_
FNDA:0,_ZStcoSt13_Ios_Fmtflags
FNDA:0,_ZSt9showpointRSt8ios_base
FNDA:0,_ZStoRRSt13_Ios_FmtflagsS_
FNF:13
FNH:0
DA:83,0
DA:84,0
DA:87,0
DA:88,0
DA:95,0
DA:96,0
DA:99,0
DA:100,0
DA:103,0
DA:104,0
DA:662,0
DA:663,0
DA:673,0
DA:675,0
DA:676,0
DA:677,0
DA:689,0
DA:691,0
DA:692,0
DA:693,0
DA:706,0
DA:708,0
DA:709,0
DA:710,0
DA:711,0
DA:953,0
DA:955,0
DA:956,0
DA:1001,0
DA:1003,0
DA:1004,0
DA:1067,0
DA:1069,0
DA:1070,0
DA:1084,0
DA:1086,0
DA:1087,0
LF:37
LH:0
end_of_record
TN:
SF:/usr/include/c++/13/bits/list.tcc
FN:66,83,_ZNSt7__cxx1110_List_baseISt4pairIcPKcESaIS4_EE8_M_clearEv
FNDA:0,_ZNSt7__cxx1110_List_baseISt4pairIcPKcESaIS4_EE8_M_clearEv
FNF:1
FNH:0
DA:66,0
DA:70,0
DA:71,0
DA:73,0
DA:74,0
DA:75,0
DA:77,0
DA:81,0
DA:83,0
LF:9
LH:0
end_of_record
TN:
SF:/usr/include/c++/13/bits/move.h
FN:138,139,_ZSt9addressofINSt8__detail10_Hash_nodeINSt7__cxx1112basic_stringIcSt11char_traitsIcESaIcEEELb1EEEEPT_RS9_
FN:138,139,_ZSt9addressofINSt8__detail10_Hash_nodeISt4pairIKNSt7__cxx1112basic_stringIcSt11char_traitsIcESaIcEEEPN7testing9TestSuiteEELb1EEEEPT_RSF_
FN:138,139,_ZSt9addressofINSt8__detail10_Hash_nodeISt4pairIKNSt7__cxx1112basic_stringIcSt11char_traitsIcESaIcEEEmELb1EEEEPT_RSC_
FN:138,139,_ZSt9addressofIPNSt8__detail15_Hash_node_baseEEPT_RS3_
FN:189,200,_ZSt4swapIN7testing8internal13edit_distance8EditTypeEENSt9enable_ifIXsrSt6__and_IJSt6__not_ISt15__is_tuple_likeIT_EESt21is_move_constructibleIS8_ESt18is_move_assignableIS8_EEE5valueEvE4typeERS8_SI_
FN:189,200,_ZSt4swapIPN7testing8TestInfoEENSt9enable_ifIXsrSt6__and_IJSt6__not_ISt15__is_tuple_likeIT_EESt21is_move_constructibleIS7_ESt18is_move_assignableIS7_EEE5valueEvE4typeERS7_SH_
FN:189,200,_ZSt4swapIPNSt7__cxx1112basic_stringIcSt11char_traitsIcESaIcEEEENSt9enable_ifIXsrSt6__and_IJSt6__not_ISt15__is_tuple_likeIT_EESt21is_move_constructibleISB_ESt18is_move_assignableISB_EEE5valueEvE4typeERSB_SL_
FN:189,200,_ZSt4swapISt14default_deleteINSt7__cxx1112basic_stringIcSt11char_traitsIcESaIcEEEEENSt9enable_ifIXsrSt6__and_IJSt6__not_ISt15__is_tuple_likeIT_EESt21is_move_constructibleISC_ESt18is_move_assignableISC_EEE5valueEvE4typeERSC_SM_
FN:189,200,_ZSt4swapIbENSt9enable_ifIXsrSt6__and_IJSt6__not_ISt15__is_tuple_likeIT_EESt21is_move_constructibleIS4_ESt18is_move_assignableIS4_EEE5valueEvE4typeERS4_SE_
FN:189,200,_ZSt4swapIiENSt9enable_ifIXsrSt6__and_IJSt6__not_ISt15__is_tuple_likeIT_EESt21is_move_constructibleIS4_ESt18is_move_assignableIS4_EEE5valueEvE4typeERS4_SE_
FN:189,200,_ZSt4swapIlENSt9enable_ifIXsrSt6__and_IJSt6__not_ISt15__is_tuple_likeIT_EESt21is_move_constructibleIS4_ESt18is_move_assignableIS4_EEE5valueEvE4typeERS4_SE_
FN:51,52,_ZSt11__addressofI9HashEntryEPT_RS1_
FN:51,52,_ZSt11__addressofIN7testing12TestPropertyEEPT_RS2_
FN:51,52,_ZSt11__addressofIN7testing14TestPartResultEEPT_RS2_
FN:51,52,_ZSt11__addressofIN7testing8internal13edit_distance8EditTypeEEPT_RS4_
FN:51,52,_ZSt11__addressofIN7testing8internal9TraceInfoEEPT_RS3_
FN:51,52,_ZSt11__addressofINSt7__cxx1112basic_stringIcSt11char_traitsIcESaIcEEEEPT_RS6_
FN:51,52,_ZSt11__addressofINSt8__detail10_Hash_nodeINSt7__cxx1112basic_stringIcSt11char_traitsIcESaIcEEELb1EEEEPT_RS9_
FN:51,52,_ZSt11__addressofINSt8__detail10_Hash_nodeISt4pairIKNSt7__cxx1112basic_stringIcSt11char_traitsIcESaIcEEEPN7testing9TestSuiteEELb1EEEEPT_RSF_
FN:51,52,_ZSt11__addressofINSt8__detail10_Hash_nodeISt4pairIKNSt7__cxx1112basic_stringIcSt11char_traitsIcESaIcEEEmELb1EEEEPT_RSC_
FN:51,52,_ZSt11__addressofIPN7testing9TestSuiteEEPT_RS3_
FN:51,52,_ZSt11__addressofIPNSt8__detail15_Hash_node_baseEEPT_RS3_
FN:51,52,_ZSt11__addressofISaISt10_List_nodeISt4pairIcPKcEEEEPT_RS7_
FN:51,52,_ZSt11__addressofISt10_HashtableINSt7__cxx1112basic_stringIcSt11char_traitsIcESaIcEEES6_SaIS6_ENSt8__detail9_IdentityESt8equal_toIS6_ESt4hashIS6_ENS8_18_Mod_range_hashingENS8_20_Default_ranged_hashENS8_20_Prime_rehash_policyENS8_17_Hashtable_traitsILb1ELb1ELb1EEEEEPT_RSK_
FN:51,52,_ZSt11__addressofISt13unordered_setINSt7__cxx1112basic_stringIcSt11char_traitsIcESaIcEEESt4hashIS6_ESt8equal_toIS6_ESaIS6_EEEPT_RSD_
FN:51,52,_ZSt11__addressofISt6vectorIN7testing8internal13edit_distance8EditTypeESaIS4_EEEPT_RS7_
FN:51,52,_ZSt11__addressofISt6vectorINSt7__cxx1112basic_stringIcSt11char_traitsIcESaIcEEESaIS6_EEEPT_RS9_
FN:51,52,_ZSt11__addressofISt6vectorIdSaIdEEEPT_RS3_
FN:51,52,_ZSt11__addressofIdEPT_RS0_
FN:70,71,_ZSt7forwardI9HashEntryEOT_RNSt16remove_referenceIS1_E4typeE
FN:70,71,_ZSt7forwardIN7testing12TestPropertyEEOT_RNSt16remove_referenceIS2_E4typeE
FN:70,71,_ZSt7forwardIN7testing14TestPartResultEEOT_RNSt16remove_referenceIS2_E4typeE
FN:70,71,_ZSt7forwardIN7testing8internal34TypeParameterizedTestSuiteRegistry30TypeParameterizedTestSuiteInfoEEOT_RNSt16remove_referenceIS4_E4typeE
FN:70,71,_ZSt7forwardIN7testing8internal9EqMatcherINSt7__cxx1112basic_stringIcSt11char_traitsIcESaIcEEEEEEOT_RNSt16remove_referenceISA_E4typeE
FN:70,71,_ZSt7forwardIN7testing8internal9TraceInfoEEOT_RNSt16remove_referenceIS3_E4typeE
FN:70,71,_ZSt7forwardINSt7__cxx1112basic_stringIcSt11char_traitsIcESaIcEEEEOT_RNSt16remove_referenceIS6_E4typeE
FN:70,71,_ZSt7forwardINSt8__detail14_Node_iteratorINSt7__cxx1112basic_stringIcSt11char_traitsIcESaIcEEELb1ELb1EEEEOT_RNSt16remove_referenceIS9_E4typeE
FN:70,71,_ZSt7forwardINSt8__detail14_Node_iteratorISt4pairIKNSt7__cxx1112basic_stringIcSt11char_traitsIcESaIcEEEPN7testing9TestSuiteEELb0ELb1EEEEOT_RNSt16remove_referenceISF_E4typeE
FN:70,71,_ZSt7forwardIPKN7testing8internal11MatcherBaseINSt7__cxx1112basic_stringIcSt11char_traitsIcESaIcEEEEEEOT_RNSt16remove_referenceISC_E4typeE
FN:70,71,_ZSt7forwardIPKN7testing8internal11MatcherBaseIRKNSt7__cxx1112basic_stringIcSt11char_traitsIcESaIcEEEEEEOT_RNSt16remove_referenceISE_E4typeE
FN:70,71,_ZSt7forwardIPKN7testing8internal11MatcherBaseIRKSt17basic_string_viewIcSt11char_traitsIcEEEEEOT_RNSt16remove_referenceISC_E4typeE
FN:70,71,_ZSt7forwardIPKN7testing8internal11MatcherBaseISt17basic_string_viewIcSt11char_traitsIcEEEEEOT_RNSt16remove_referenceISA_E4typeE
FN:70,71,_ZSt7forwardIPKN7testing8internal9EqMatcherINSt7__cxx1112basic_stringIcSt11char_traitsIcESaIcEEEEEEOT_RNSt16remove_referenceISC_E4typeE
FN:70,71,_ZSt7forwardIPN7testing9TestSuiteEEOT_RNSt16remove_referenceIS3_E4typeE
FN:70,71,_ZSt7forwardIPPN7testing8TestInfoEEOT_RNSt16remove_referenceIS4_E4typeE
FN:70,71,_ZSt7forwardIPcEOT_RNSt16remove_referenceIS1_E4typeE
FN:70,71,_ZSt7forwardIRK9HashEntryEOT_RNSt16remove_referenceIS3_E4typeE
FN:70,71,_ZSt7forwardIRKN7testing12TestPropertyEEOT_RNSt16remove_referenceIS4_E4typeE
FN:70,71,_ZSt7forwardIRKN7testing14TestPartResultEEOT_RNSt16remove_referenceIS4_E4typeE
FN:70,71,_ZSt7forwardIRKN7testing8internal13edit_distance8EditTypeEEOT_RNSt16remove_referenceIS6_E4typeE
FN:70,71,_ZSt7forwardIRKN7testing8internal9TraceInfoEEOT_RNSt16remove_referenceIS5_E4typeE
FN:70,71,_ZSt7forwardIRKNSt7__cxx1112basic_stringIcSt11char_traitsIcESaIcEEEEOT_RNSt16remove_referenceIS8_E4typeE
FN:70,71,_ZSt7forwardIRKP8TreeNodeEOT_RNSt16remove_referenceIS4_E4typeE
FN:70,71,_ZSt7forwardIRKPKcEOT_RNSt16remove_referenceIS4_E4typeE
FN:70,71,_ZSt7forwardIRKPN7testing11EnvironmentEEOT_RNSt16remove_referenceIS5_E4typeE
FN:70,71,_ZSt7forwardIRKPN7testing17TestEventListenerEEOT_RNSt16remove_referenceIS5_E4typeE
FN:70,71,_ZSt7forwardIRKPN7testing8TestInfoEEOT_RNSt16remove_referenceIS5_E4typeE
FN:70,71,_ZSt7forwardIRKPN7testing9TestSuiteEEOT_RNSt16remove_referenceIS5_E4typeE
FN:70,71,_ZSt7forwardIRKSt17basic_string_viewIcSt11char_traitsIcEEEOT_RNSt16remove_referenceIS6_E4typeE
FN:70,71,_ZSt7forwardIRKSt21piecewise_construct_tEOT_RNSt16remove_referenceIS3_E4typeE
FN:70,71,_ZSt7forwardIRKSt4pairIKNSt7__cxx1112basic_stringIcSt11char_traitsIcESaIcEEEPN7testing9TestSuiteEEEOT_RNSt16remove_referenceISE_E4typeE
FN:70,71,_ZSt7forwardIRKSt6vectorIN7testing8internal13edit_distance8EditTypeESaIS4_EEEOT_RNSt16remove_referenceIS9_E4typeE
FN:70,71,_ZSt7forwardIRKSt6vectorIdSaIdEEEOT_RNSt16remove_referenceIS5_E4typeE
FN:70,71,_ZSt7forwardIRN7testing8internal34TypeParameterizedTestSuiteRegistry30TypeParameterizedTestSuiteInfoEEOT_RNSt16remove_referenceIS5_E4typeE
FN:70,71,_ZSt7forwardIRNSt7__cxx1112basic_stringIcSt11char_traitsIcESaIcEEEEOT_RNSt16remove_referenceIS7_E4typeE
FN:70,71,_ZSt7forwardIRNSt8__detail14_Node_iteratorINSt7__cxx1112basic_stringIcSt11char_traitsIcESaIcEEELb1ELb1EEEEOT_RNSt16remove_referenceISA_E4typeE
FN:70,71,_ZSt7forwardIRNSt8__detail14_Node_iteratorISt4pairIKNSt7__cxx1112basic_stringIcSt11char_traitsIcESaIcEEEPN7testing9TestSuiteEELb0ELb1EEEEOT_RNSt16remove_referenceISG_E4typeE
FN:70,71,_ZSt7forwardIRPKcEOT_RNSt16remove_referenceIS3_E4typeE
FN:70,71,_ZSt7forwardIRPPN7testing8TestInfoEEOT_RNSt16remove_referenceIS5_E4typeE
FN:70,71,_ZSt7forwardIRPSt13_Rb_tree_nodeINSt7__cxx1112basic_stringIcSt11char_traitsIcESaIcEEEEEOT_RNSt16remove_referenceISA_E4typeE
FN:70,71,_ZSt7forwardIRPSt13_Rb_tree_nodeISt4pairIKNSt7__cxx1112basic_stringIcSt11char_traitsIcESaIcEEEN7testing8internal34TypeParameterizedTestSuiteRegistry30TypeParameterizedTestSuiteInfoEEEEOT_RNSt16remove_referenceISH_E4typeE
FN:70,71,_ZSt7forwardIRPSt13_Rb_tree_nodeISt4pairIKNSt7__cxx1112basic_stringIcSt11char_traitsIcESaIcEEEmEEEOT_RNSt16remove_referenceISD_E4typeE
FN:70,71,_ZSt7forwardIRPSt18_Rb_tree_node_baseEOT_RNSt16remove_referenceIS3_E4typeE
FN:70,71,_ZSt7forwardIRSt17_Rb_tree_iteratorINSt7__cxx1112basic_stringIcSt11char_traitsIcESaIcEEEEEOT_RNSt16remove_referenceIS9_E4typeE
FN:70,71,_ZSt7forwardIRSt17_Rb_tree_iteratorISt4pairIKNSt7__cxx1112basic_stringIcSt11char_traitsIcESaIcEEEN7testing8internal34TypeParameterizedTestSuiteRegistry30TypeParameterizedTestSuiteInfoEEEEOT_RNSt16remove_referenceISG_E4typeE
FN:70,71,_ZSt7forwardIRSt4pairIKNSt7__cxx1112basic_stringIcSt11char_traitsIcESaIcEEEPN7testing9TestSuiteEEEOT_RNSt16remove_referenceISD_E4typeE
FN:70,71,_ZSt7forwardIRbEOT_RNSt16remove_referenceIS1_E4typeE
FN:70,71,_ZSt7forwardIRlEOT_RNSt16remove_referenceIS1_E4typeE
FN:70,71,_ZSt7forwardISt14default_deleteINSt7__cxx1112basic_stringIcSt11char_traitsIcESaIcEEEEEOT_RNSt16remove_referenceIS8_E4typeE
FN:70,71,_ZSt7forwardISt17_Rb_tree_iteratorINSt7__cxx1112basic_stringIcSt11char_traitsIcESaIcEEEEEOT_RNSt16remove_referenceIS8_E4typeE
FN:70,71,_ZSt7forwardISt4pairIcPKcEEOT_RNSt16remove_referenceIS4_E4typeE
FN:70,71,_ZSt7forwardISt5tupleIJEEEOT_RNSt16remove_referenceIS2_E4typeE
FN:70,71,_ZSt7forwardISt5tupleIJRKNSt7__cxx1112basic_stringIcSt11char_traitsIcESaIcEEEEEEOT_RNSt16remove_referenceISA_E4typeE
FN:70,71,_ZSt7forwardIbEOT_RNSt16remove_referenceIS0_E4typeE
FN:70,71,_ZSt7forwardIcEOT_RNSt16remove_referenceIS0_E4typeE
FN:70,71,_ZSt7forwardIiEOT_RNSt16remove_referenceIS0_E4typeE
FN:70,71,_ZSt7forwardImEOT_RNSt16remove_referenceIS0_E4typeE
FN:97,98,_ZSt4moveIR9HashEntryEONSt16remove_referenceIT_E4typeEOS3_
FN:97,98,_ZSt4moveIRN7testing12TestPropertyEEONSt16remove_referenceIT_E4typeEOS4_
FN:97,98,_ZSt4moveIRN7testing14TestPartResultEEONSt16remove_referenceIT_E4typeEOS4_
FN:97,98,_ZSt4moveIRN7testing7MatcherIRKNSt7__cxx1112basic_stringIcSt11char_traitsIcESaIcEEEEEEONSt16remove_referenceIT_E4typeEOSD_
FN:97,98,_ZSt4moveIRN7testing8internal12CodeLocationEEONSt16remove_referenceIT_E4typeEOS5_
FN:97,98,_ZSt4moveIRN7testing8internal13edit_distance8EditTypeEEONSt16remove_referenceIT_E4typeEOS6_
FN:97,98,_ZSt4moveIRN7testing8internal17TestPropertyKeyIsEEONSt16remove_referenceIT_E4typeEOS5_
FN:97,98,_ZSt4moveIRN7testing8internal9EqMatcherINSt7__cxx1112basic_stringIcSt11char_traitsIcESaIcEEEEEEONSt16remove_referenceIT_E4typeEOSC_
FN:97,98,_ZSt4moveIRN7testing8internal9TraceInfoEEONSt16remove_referenceIT_E4typeEOS5_
FN:97,98,_ZSt4moveIRN9__gnu_cxx5__ops15_Iter_comp_iterIZN7testing9TestSuite3RunEvEUlPKNS3_8TestInfoES7_E_EEEONSt16remove_referenceIT_E4typeEOSC_
FN:97,98,_ZSt4moveIRNSt7__cxx1112basic_stringIcSt11char_traitsIcESaIcEEEEONSt16remove_referenceIT_E4typeEOS8_
FN:97,98,_ZSt4moveIRNSt7__cxx114listISt4pairIcPKcESaIS5_EEEEONSt16remove_referenceIT_E4typeEOSA_
FN:97,98,_ZSt4moveIRPKNSt7__cxx1112basic_stringIcSt11char_traitsIcESaIcEEEEONSt16remove_referenceIT_E4typeEOSA_
FN:97,98,_ZSt4moveIRPN7testing17TestEventListenerEEONSt16remove_referenceIT_E4typeEOS5_
FN:97,98,_ZSt4moveIRPN7testing8TestInfoEEONSt16remove_referenceIT_E4typeEOS5_
FN:97,98,_ZSt4moveIRPN7testing8internal11ThreadLocalIPNS0_31TestPartResultReporterInterfaceEE18ValueHolderFactoryEEONSt16remove_referenceIT_E4typeEOSA_
FN:97,98,_ZSt4moveIRPN7testing8internal11ThreadLocalISt6vectorINS1_9TraceInfoESaIS4_EEE18ValueHolderFactoryEEONSt16remove_referenceIT_E4typeEOSC_
FN:97,98,_ZSt4moveIRPN7testing8internal14GTestFlagSaverEEONSt16remove_referenceIT_E4typeEOS6_
FN:97,98,_ZSt4moveIRPN7testing8internal16DeathTestFactoryEEONSt16remove_referenceIT_E4typeEOS6_
FN:97,98,_ZSt4moveIRPN7testing8internal17StreamingListener20AbstractSocketWriterEEONSt16remove_referenceIT_E4typeEOS7_
FN:97,98,_ZSt4moveIRPN7testing8internal24InternalRunDeathTestFlagEEONSt16remove_referenceIT_E4typeEOS6_
FN:97,98,_ZSt4moveIRPN7testing9TestSuiteEEONSt16remove_referenceIT_E4typeEOS5_
FN:97,98,_ZSt4moveIRPNSt7__cxx1112basic_stringIcSt11char_traitsIcESaIcEEEEONSt16remove_referenceIT_E4typeEOS9_
FN:97,98,_ZSt4moveIRPNSt7__cxx1118basic_stringstreamIcSt11char_traitsIcESaIcEEEEONSt16remove_referenceIT_E4typeEOS9_
FN:97,98,_ZSt4moveIRPcEONSt16remove_referenceIT_E4typeEOS3_
FN:97,98,_ZSt4moveIRSaINSt7__cxx1112basic_stringIcSt11char_traitsIcESaIcEEEEEONSt16remove_referenceIT_E4typeEOS9_
FN:97,98,_ZSt4moveIRSaINSt8__detail10_Hash_nodeINSt7__cxx1112basic_stringIcSt11char_traitsIcESaIcEEELb1EEEEEONSt16remove_referenceIT_E4typeEOSC_
FN:97,98,_ZSt4moveIRSaIcEEONSt16remove_referenceIT_E4typeEOS3_
FN:97,98,_ZSt4moveIRSt10_HashtableINSt7__cxx1112basic_stringIcSt11char_traitsIcESaIcEEES6_SaIS6_ENSt8__detail9_IdentityESt8equal_toIS6_ESt4hashIS6_ENS8_18_Mod_range_hashingENS8_20_Default_ranged_hashENS8_20_Prime_rehash_policyENS8_17_Hashtable_traitsILb1ELb1ELb1EEEEEONSt16remove_referenceIT_E4typeEOSM_
FN:97,98,_ZSt4moveIRSt14default_deleteINSt7__cxx1112basic_stringIcSt11char_traitsIcESaIcEEEEEONSt16remove_referenceIT_E4typeEOSA_
FN:97,98,_ZSt4moveIRSt4pairIRNSt7__cxx1112basic_stringIcSt11char_traitsIcESaIcEEERN7testing8internal34TypeParameterizedTestSuiteRegistry30TypeParameterizedTestSuiteInfoEEEONSt16remove_referenceIT_E4typeEOSG_
FN:97,98,_ZSt4moveIRSt4pairIcPKcEEONSt16remove_referenceIT_E4typeEOS6_
FN:97,98,_ZSt4moveIRSt6vectorINSt7__cxx1112basic_stringIcSt11char_traitsIcESaIcEEESaIS6_EEEONSt16remove_referenceIT_E4typeEOSB_
FN:97,98,_ZSt4moveIRZN7testing8internal12_GLOBAL__N_113IsGlobPatternERKNSt7__cxx1112basic_stringIcSt11char_traitsIcESaIcEEEEUlcE_EONSt16remove_referenceIT_E4typeEOSE_
FN:97,98,_ZSt4moveIRZN7testing8internal23InsertSyntheticTestCaseERKNSt7__cxx1112basic_stringIcSt11char_traitsIcESaIcEEENS1_12CodeLocationEbEUlvE_EONSt16remove_referenceIT_E4typeEOSE_
FN:97,98,_ZSt4moveIRZN7testing8internal34TypeParameterizedTestSuiteRegistry22CheckForInstantiationsEvEUlvE_EONSt16remove_referenceIT_E4typeEOS6_
FN:97,98,_ZSt4moveIRZN7testing9TestSuite3RunEvEUlPKNS0_8TestInfoES4_E_EONSt16remove_referenceIT_E4typeEOS8_
FN:97,98,_ZSt4moveIRZNK7testing8internal12_GLOBAL__N_114UnitTestFilter11MatchesNameERKNSt7__cxx1112basic_stringIcSt11char_traitsIcESaIcEEEEUlSB_E_EONSt16remove_referenceIT_E4typeEOSF_
FN:97,98,_ZSt4moveIRbEONSt16remove_referenceIT_E4typeEOS2_
FN:97,98,_ZSt4moveIRiEONSt16remove_referenceIT_E4typeEOS2_
FN:97,98,_ZSt4moveIRlEONSt16remove_referenceIT_E4typeEOS2_
FN:97,98,_ZSt4moveIRmEONSt16remove_referenceIT_E4typeEOS2_
FNDA:0,_ZSt9addressofINSt8__detail10_Hash_nodeINSt7__cxx1112basic_stringIcSt11char_traitsIcESaIcEEELb1EEEEPT_RS9_
FNDA:7,_ZSt9addressofINSt8__detail10_Hash_nodeISt4pairIKNSt7__cxx1112basic_stringIcSt11char_traitsIcESaIcEEEPN7testing9TestSuiteEELb1EEEEPT_RSF_
FNDA:0,_ZSt9addressofINSt8__detail10_Hash_nodeISt4pairIKNSt7__cxx1112basic_stringIcSt11char_traitsIcESaIcEEEmELb1EEEEPT_RSC_
FNDA:1,_ZSt9addressofIPNSt8__detail15_Hash_node_baseEEPT_RS3_
FNDA:0,_ZSt4swapIN7testing8internal13edit_distance8EditTypeEENSt9enable_ifIXsrSt6__and_IJSt6__not_ISt15__is_tuple_likeIT_EESt21is_move_constructibleIS8_ESt18is_move_assignableIS8_EEE5valueEvE4typeERS8_SI_
FNDA:0,_ZSt4swapIPN7testing8TestInfoEENSt9enable_ifIXsrSt6__and_IJSt6__not_ISt15__is_tuple_likeIT_EESt21is_move_constructibleIS7_ESt18is_move_assignableIS7_EEE5valueEvE4typeERS7_SH_
FNDA:0,_ZSt4swapIPNSt7__cxx1112basic_stringIcSt11char_traitsIcESaIcEEEENSt9enable_ifIXsrSt6__and_IJSt6__not_ISt15__is_tuple_likeIT_EESt21is_move_constructibleISB_ESt18is_move_assignableISB_EEE5valueEvE4typeERSB_SL_
FNDA:0,_ZSt4swapISt14default_deleteINSt7__cxx1112basic_stringIcSt11char_traitsIcESaIcEEEEENSt9enable_ifIXsrSt6__and_IJSt6__not_ISt15__is_tuple_likeIT_EESt21is_move_constructibleISC_ESt18is_move_assignableISC_EEE5valueEvE4typeERSC_SM_
FNDA:0,_ZSt4swapIbENSt9enable_ifIXsrSt6__and_IJSt6__not_ISt15__is_tuple_likeIT_EESt21is_move_constructibleIS4_ESt18is_move_assignableIS4_EEE5valueEvE4typeERS4_SE_
FNDA:0,_ZSt4swapIiENSt9enable_ifIXsrSt6__and_IJSt6__not_ISt15__is_tuple_likeIT_EESt21is_move_constructibleIS4_ESt18is_move_assignableIS4_EEE5valueEvE4typeERS4_SE_
FNDA:0,_ZSt4swapIlENSt9enable_ifIXsrSt6__and_IJSt6__not_ISt15__is_tuple_likeIT_EESt21is_move_constructibleIS4_ESt18is_move_assignableIS4_EEE5valueEvE4typeERS4_SE_
FNDA:20,_ZSt11__addressofI9HashEntryEPT_RS1_
FNDA:0,_ZSt11__addressofIN7testing12TestPropertyEEPT_RS2_
FNDA:5,_ZSt11__addressofIN7testing14TestPartResultEEPT_RS2_
FNDA:0,_ZSt11__addressofIN7testing8internal13edit_distance8EditTypeEEPT_RS4_
FNDA:0,_ZSt11__addressofIN7testing8internal9TraceInfoEEPT_RS3_
FNDA:69,_ZSt11__addressofINSt7__cxx1112basic_stringIcSt11char_traitsIcESaIcEEEEPT_RS6_
FNDA:0,_ZSt11__addressofINSt8__detail10_Hash_nodeINSt7__cxx1112basic_stringIcSt11char_traitsIcESaIcEEELb1EEEEPT_RS9_
FNDA:7,_ZSt11__addressofINSt8__detail10_Hash_nodeISt4pairIKNSt7__cxx1112basic_stringIcSt11char_traitsIcESaIcEEEPN7testing9TestSuiteEELb1EEEEPT_RSF_
FNDA:0,_ZSt11__addressofINSt8__detail10_Hash_nodeISt4pairIKNSt7__cxx1112basic_stringIcSt11char_traitsIcESaIcEEEmELb1EEEEPT_RSC_
FNDA:0,_ZSt11__addressofIPN7testing9TestSuiteEEPT_RS3_
FNDA:1,_ZSt11__addressofIPNSt8__detail15_Hash_node_baseEEPT_RS3_
FNDA:0,_ZSt11__addressofISaISt10_List_nodeISt4pairIcPKcEEEEPT_RS7_
FNDA:2,_ZSt11__addressofISt10_HashtableINSt7__cxx1112basic_stringIcSt11char_traitsIcESaIcEEES6_SaIS6_ENSt8__detail9_IdentityESt8equal_toIS6_ESt4hashIS6_ENS8_18_Mod_range_hashingENS8_20_Default_ranged_hashENS8_20_Prime_rehash_policyENS8_17_Hashtable_traitsILb1ELb1ELb1EEEEEPT_RSK_
FNDA:10,_ZSt11__addressofISt13unordered_setINSt7__cxx1112basic_stringIcSt11char_traitsIcESaIcEEESt4hashIS6_ESt8equal_toIS6_ESaIS6_EEEPT_RSD_
FNDA:0,_ZSt11__addressofISt6vectorIN7testing8internal13edit_distance8EditTypeESaIS4_EEEPT_RS7_
FNDA:10,_ZSt11__addressofISt6vectorINSt7__cxx1112basic_stringIcSt11char_traitsIcESaIcEEESaIS6_EEEPT_RS9_
FNDA:0,_ZSt11__addressofISt6vectorIdSaIdEEEPT_RS3_
FNDA:0,_ZSt11__addressofIdEPT_RS0_
FNDA:0,_ZSt7forwardI9HashEntryEOT_RNSt16remove_referenceIS1_E4typeE
FNDA:0,_ZSt7forwardIN7testing12TestPropertyEEOT_RNSt16remove_referenceIS2_E4typeE
FNDA:2,_ZSt7forwardIN7testing14TestPartResultEEOT_RNSt16remove_referenceIS2_E4typeE
FNDA:0,_ZSt7forwardIN7testing8internal34TypeParameterizedTestSuiteRegistry30TypeParameterizedTestSuiteInfoEEOT_RNSt16remove_referenceIS4_E4typeE
FNDA:0,_ZSt7forwardIN7testing8internal9EqMatcherINSt7__cxx1112basic_stringIcSt11char_traitsIcESaIcEEEEEEOT_RNSt16remove_referenceISA_E4typeE
FNDA:0,_ZSt7forwardIN7testing8internal9TraceInfoEEOT_RNSt16remove_referenceIS3_E4typeE
FNDA:152,_ZSt7forwardINSt7__cxx1112basic_stringIcSt11char_traitsIcESaIcEEEEOT_RNSt16remove_referenceIS6_E4typeE
FNDA:0,_ZSt7forwardINSt8__detail14_Node_iteratorINSt7__cxx1112basic_stringIcSt11char_traitsIcESaIcEEELb1ELb1EEEEOT_RNSt16remove_referenceIS9_E4typeE
FNDA:0,_ZSt7forwardINSt8__detail14_Node_iteratorISt4pairIKNSt7__cxx1112basic_stringIcSt11char_traitsIcESaIcEEEPN7testing9TestSuiteEELb0ELb1EEEEOT_RNSt16remove_referenceISF_E4typeE
FNDA:0,_ZSt7forwardIPKN7testing8internal11MatcherBaseINSt7__cxx1112basic_stringIcSt11char_traitsIcESaIcEEEEEEOT_RNSt16remove_referenceISC_E4typeE
FNDA:0,_ZSt7forwardIPKN7testing8internal11MatcherBaseIRKNSt7__cxx1112basic_stringIcSt11char_traitsIcESaIcEEEEEEOT_RNSt16remove_referenceISE_E4typeE
FNDA:0,_ZSt7forwardIPKN7testing8internal11MatcherBaseIRKSt17basic_string_viewIcSt11char_traitsIcEEEEEOT_RNSt16remove_referenceISC_E4typeE
FNDA:0,_ZSt7forwardIPKN7testing8internal11MatcherBaseISt17basic_string_viewIcSt11char_traitsIcEEEEEOT_RNSt16remove_referenceISA_E4typeE
FNDA:0,_ZSt7forwardIPKN7testing8internal9EqMatcherINSt7__cxx1112basic_stringIcSt11char_traitsIcESaIcEEEEEEOT_RNSt16remove_referenceISC_E4typeE
FNDA:0,_ZSt7forwardIPN7testing9TestSuiteEEOT_RNSt16remove_referenceIS3_E4typeE
FNDA:0,_ZSt7forwardIPPN7testing8TestInfoEEOT_RNSt16remove_referenceIS4_E4typeE
FNDA:0,_ZSt7forwardIPcEOT_RNSt16remove_referenceIS1_E4typeE
FNDA:0,_ZSt7forwardIRK9HashEntryEOT_RNSt16remove_referenceIS3_E4typeE
FNDA:0,_ZSt7forwardIRKN7testing12TestPropertyEEOT_RNSt16remove_referenceIS4_E4typeE
FNDA:6,_ZSt7forwardIRKN7testing14TestPartResultEEOT_RNSt16remove_referenceIS4_E4typeE
FNDA:0,_ZSt7forwardIRKN7testing8internal13edit_distance8EditTypeEEOT_RNSt16remove_referenceIS6_E4typeE
FNDA:0,_ZSt7forwardIRKN7testing8internal9TraceInfoEEOT_RNSt16remove_referenceIS5_E4typeE
FNDA:50,_ZSt7forwardIRKNSt7__cxx1112basic_stringIcSt11char_traitsIcESaIcEEEEOT_RNSt16remove_referenceIS8_E4typeE
FNDA:44,_ZSt7forwardIRKP8TreeNodeEOT_RNSt16remove_referenceIS4_E4typeE
FNDA:0,_ZSt7forwardIRKPKcEOT_RNSt16remove_referenceIS4_E4typeE
FNDA:0,_ZSt7forwardIRKPN7testing11EnvironmentEEOT_RNSt16remove_referenceIS5_E4typeE
FNDA:3,_ZSt7forwardIRKPN7testing17TestEventListenerEEOT_RNSt16remove_referenceIS5_E4typeE
FNDA:21,_ZSt7forwardIRKPN7testing8TestInfoEEOT_RNSt16remove_referenceIS5_E4typeE
FNDA:67,_ZSt7forwardIRKPN7testing9TestSuiteEEOT_RNSt16remove_referenceIS5_E4typeE
FNDA:0,_ZSt7forwardIRKSt17basic_string_viewIcSt11char_traitsIcEEEOT_RNSt16remove_referenceIS6_E4typeE
FNDA:0,_ZSt7forwardIRKSt21piecewise_construct_tEOT_RNSt16remove_referenceIS3_E4typeE
FNDA:42,_ZSt7forwardIRKSt4pairIKNSt7__cxx1112basic_stringIcSt11char_traitsIcESaIcEEEPN7testing9TestSuiteEEEOT_RNSt16remove_referenceISE_E4typeE
FNDA:0,_ZSt7forwardIRKSt6vectorIN7testing8internal13edit_distance8EditTypeESaIS4_EEEOT_RNSt16remove_referenceIS9_E4typeE
FNDA:0,_ZSt7forwardIRKSt6vectorIdSaIdEEEOT_RNSt16remove_referenceIS5_E4typeE
FNDA:0,_ZSt7forwardIRN7testing8internal34TypeParameterizedTestSuiteRegistry30TypeParameterizedTestSuiteInfoEEOT_RNSt16remove_referenceIS5_E4typeE
FNDA:0,_ZSt7forwardIRNSt7__cxx1112basic_stringIcSt11char_traitsIcESaIcEEEEOT_RNSt16remove_referenceIS7_E4typeE
FNDA:0,_ZSt7forwardIRNSt8__detail14_Node_iteratorINSt7__cxx1112basic_stringIcSt11char_traitsIcESaIcEEELb1ELb1EEEEOT_RNSt16remove_referenceISA_E4typeE
FNDA:7,_ZSt7forwardIRNSt8__detail14_Node_iteratorISt4pairIKNSt7__cxx1112basic_stringIcSt11char_traitsIcESaIcEEEPN7testing9TestSuiteEELb0ELb1EEEEOT_RNSt16remove_referenceISG_E4typeE
FNDA:0,_ZSt7forwardIRPKcEOT_RNSt16remove_referenceIS3_E4typeE
FNDA:7,_ZSt7forwardIRPPN7testing8TestInfoEEOT_RNSt16remove_referenceIS5_E4typeE
FNDA:0,_ZSt7forwardIRPSt13_Rb_tree_nodeINSt7__cxx1112basic_stringIcSt11char_traitsIcESaIcEEEEEOT_RNSt16remove_referenceISA_E4typeE
FNDA:0,_ZSt7forwardIRPSt13_Rb_tree_nodeISt4pairIKNSt7__cxx1112basic_stringIcSt11char_traitsIcESaIcEEEN7testing8internal34TypeParameterizedTestSuiteRegistry30TypeParameterizedTestSuiteInfoEEEEOT_RNSt16remove_referenceISH_E4typeE
FNDA:0,_ZSt7forwardIRPSt13_Rb_tree_nodeISt4pairIKNSt7__cxx1112basic_stringIcSt11char_traitsIcESaIcEEEmEEEOT_RNSt16remove_referenceISD_E4typeE
FNDA:0,_ZSt7forwardIRPSt18_Rb_tree_node_baseEOT_RNSt16remove_referenceIS3_E4typeE
FNDA:0,_ZSt7forwardIRSt17_Rb_tree_iteratorINSt7__cxx1112basic_stringIcSt11char_traitsIcESaIcEEEEEOT_RNSt16remove_referenceIS9_E4typeE
FNDA:0,_ZSt7forwardIRSt17_Rb_tree_iteratorISt4pairIKNSt7__cxx1112basic_stringIcSt11char_traitsIcESaIcEEEN7testing8internal34TypeParameterizedTestSuiteRegistry30TypeParameterizedTestSuiteInfoEEEEOT_RNSt16remove_referenceISG_E4typeE
FNDA:7,_ZSt7forwardIRSt4pairIKNSt7__cxx1112basic_stringIcSt11char_traitsIcESaIcEEEPN7testing9TestSuiteEEEOT_RNSt16remove_referenceISD_E4typeE
FNDA:0,_ZSt7forwardIRbEOT_RNSt16remove_referenceIS1_E4typeE
FNDA:7,_ZSt7forwardIRlEOT_RNSt16remove_referenceIS1_E4typeE
FNDA:2,_ZSt7forwardISt14default_deleteINSt7__cxx1112basic_stringIcSt11char_traitsIcESaIcEEEEEOT_RNSt16remove_referenceIS8_E4typeE
FNDA:0,_ZSt7forwardISt17_Rb_tree_iteratorINSt7__cxx1112basic_stringIcSt11char_traitsIcESaIcEEEEEOT_RNSt16remove_referenceIS8_E4typeE
FNDA:0,_ZSt7forwardISt4pairIcPKcEEOT_RNSt16remove_referenceIS4_E4typeE
FNDA:0,_ZSt7forwardISt5tupleIJEEEOT_RNSt16remove_referenceIS2_E4typeE
FNDA:0,_ZSt7forwardISt5tupleIJRKNSt7__cxx1112basic_stringIcSt11char_traitsIcESaIcEEEEEEOT_RNSt16remove_referenceISA_E4typeE
FNDA:7,_ZSt7forwardIbEOT_RNSt16remove_referenceIS0_E4typeE
FNDA:0,_ZSt7forwardIcEOT_RNSt16remove_referenceIS0_E4typeE
FNDA:53,_ZSt7forwardIiEOT_RNSt16remove_referenceIS0_E4typeE
FNDA:0,_ZSt7forwardImEOT_RNSt16remove_referenceIS0_E4typeE
FNDA:0,_ZSt4moveIR9HashEntryEONSt16remove_referenceIT_E4typeEOS3_
FNDA:0,_ZSt4moveIRN7testing12TestPropertyEEONSt16remove_referenceIT_E4typeEOS4_
FNDA:1,_ZSt4moveIRN7testing14TestPartResultEEONSt16remove_referenceIT_E4typeEOS4_
FNDA:0,_ZSt4moveIRN7testing7MatcherIRKNSt7__cxx1112basic_stringIcSt11char_traitsIcESaIcEEEEEEONSt16remove_referenceIT_E4typeEOSD_
FNDA:14,_ZSt4moveIRN7testing8internal12CodeLocationEEONSt16remove_referenceIT_E4typeEOS5_
FNDA:0,_ZSt4moveIRN7testing8internal13edit_distance8EditTypeEEONSt16remove_referenceIT_E4typeEOS6_
FNDA:0,_ZSt4moveIRN7testing8internal17TestPropertyKeyIsEEONSt16remove_referenceIT_E4typeEOS5_
FNDA:0,_ZSt4moveIRN7testing8internal9EqMatcherINSt7__cxx1112basic_stringIcSt11char_traitsIcESaIcEEEEEEONSt16remove_referenceIT_E4typeEOSC_
FNDA:0,_ZSt4moveIRN7testing8internal9TraceInfoEEONSt16remove_referenceIT_E4typeEOS5_
FNDA:0,_ZSt4moveIRN9__gnu_cxx5__ops15_Iter_comp_iterIZN7testing9TestSuite3RunEvEUlPKNS3_8TestInfoES7_E_EEEONSt16remove_referenceIT_E4typeEOSC_
FNDA:187,_ZSt4moveIRNSt7__cxx1112basic_stringIcSt11char_traitsIcESaIcEEEEONSt16remove_referenceIT_E4typeEOS8_
FNDA:0,_ZSt4moveIRNSt7__cxx114listISt4pairIcPKcESaIS5_EEEEONSt16remove_referenceIT_E4typeEOSA_
FNDA:0,_ZSt4moveIRPKNSt7__cxx1112basic_stringIcSt11char_traitsIcESaIcEEEEONSt16remove_referenceIT_E4typeEOSA_
FNDA:0,_ZSt4moveIRPN7testing17TestEventListenerEEONSt16remove_referenceIT_E4typeEOS5_
FNDA:0,_ZSt4moveIRPN7testing8TestInfoEEONSt16remove_referenceIT_E4typeEOS5_
FNDA:1,_ZSt4moveIRPN7testing8internal11ThreadLocalIPNS0_31TestPartResultReporterInterfaceEE18ValueHolderFactoryEEONSt16remove_referenceIT_E4typeEOSA_
FNDA:1,_ZSt4moveIRPN7testing8internal11ThreadLocalISt6vectorINS1_9TraceInfoESaIS4_EEE18ValueHolderFactoryEEONSt16remove_referenceIT_E4typeEOSC_
FNDA:7,_ZSt4moveIRPN7testing8internal14GTestFlagSaverEEONSt16remove_referenceIT_E4typeEOS6_
FNDA:1,_ZSt4moveIRPN7testing8internal16DeathTestFactoryEEONSt16remove_referenceIT_E4typeEOS6_
FNDA:0,_ZSt4moveIRPN7testing8internal17StreamingListener20AbstractSocketWriterEEONSt16remove_referenceIT_E4typeEOS7_
FNDA:1,_ZSt4moveIRPN7testing8internal24InternalRunDeathTestFlagEEONSt16remove_referenceIT_E4typeEOS6_
FNDA:0,_ZSt4moveIRPN7testing9TestSuiteEEONSt16remove_referenceIT_E4typeEOS5_
FNDA:4,_ZSt4moveIRPNSt7__cxx1112basic_stringIcSt11char_traitsIcESaIcEEEEONSt16remove_referenceIT_E4typeEOS9_
FNDA:94,_ZSt4moveIRPNSt7__cxx1118basic_stringstreamIcSt11char_traitsIcESaIcEEEEONSt16remove_referenceIT_E4typeEOS9_
FNDA:0,_ZSt4moveIRPcEONSt16remove_referenceIT_E4typeEOS3_
FNDA:2,_ZSt4moveIRSaINSt7__cxx1112basic_stringIcSt11char_traitsIcESaIcEEEEEONSt16remove_referenceIT_E4typeEOS9_
FNDA:2,_ZSt4moveIRSaINSt8__detail10_Hash_nodeINSt7__cxx1112basic_stringIcSt11char_traitsIcESaIcEEELb1EEEEEONSt16remove_referenceIT_E4typeEOSC_
FNDA:0,_ZSt4moveIRSaIcEEONSt16remove_referenceIT_E4typeEOS3_
FNDA:4,_ZSt4moveIRSt10_HashtableINSt7__cxx1112basic_stringIcSt11char_traitsIcESaIcEEES6_SaIS6_ENSt8__detail9_IdentityESt8equal_toIS6_ESt4hashIS6_ENS8_18_Mod_range_hashingENS8_20_Default_ranged_hashENS8_20_Prime_rehash_policyENS8_17_Hashtable_traitsILb1ELb1ELb1EEEEEONSt16remove_referenceIT_E4typeEOSM_
FNDA:0,_ZSt4moveIRSt14default_deleteINSt7__cxx1112basic_stringIcSt11char_traitsIcESaIcEEEEEONSt16remove_referenceIT_E4typeEOSA_
FNDA:0,_ZSt4moveIRSt4pairIRNSt7__cxx1112basic_stringIcSt11char_traitsIcESaIcEEERN7testing8internal34TypeParameterizedTestSuiteRegistry30TypeParameterizedTestSuiteInfoEEEONSt16remove_referenceIT_E4typeEOSG_
FNDA:0,_ZSt4moveIRSt4pairIcPKcEEONSt16remove_referenceIT_E4typeEOS6_
FNDA:2,_ZSt4moveIRSt6vectorINSt7__cxx1112basic_stringIcSt11char_traitsIcESaIcEEESaIS6_EEEONSt16remove_referenceIT_E4typeEOSB_
FNDA:36,_ZSt4moveIRZN7testing8internal12_GLOBAL__N_113IsGlobPatternERKNSt7__cxx1112basic_stringIcSt11char_traitsIcESaIcEEEEUlcE_EONSt16remove_referenceIT_E4typeEOSE_
FNDA:0,_ZSt4moveIRZN7testing8internal23InsertSyntheticTestCaseERKNSt7__cxx1112basic_stringIcSt11char_traitsIcESaIcEEENS1_12CodeLocationEbEUlvE_EONSt16remove_referenceIT_E4typeEOSE_
FNDA:0,_ZSt4moveIRZN7testing8internal34TypeParameterizedTestSuiteRegistry22CheckForInstantiationsEvEUlvE_EONSt16remove_referenceIT_E4typeEOS6_
FNDA:14,_ZSt4moveIRZN7testing9TestSuite3RunEvEUlPKNS0_8TestInfoES4_E_EONSt16remove_referenceIT_E4typeEOS8_
FNDA:74,_ZSt4moveIRZNK7testing8internal12_GLOBAL__N_114UnitTestFilter11MatchesNameERKNSt7__cxx1112basic_stringIcSt11char_traitsIcESaIcEEEEUlSB_E_EONSt16remove_referenceIT_E4typeEOSF_
FNDA:0,_ZSt4moveIRbEONSt16remove_referenceIT_E4typeEOS2_
FNDA:14,_ZSt4moveIRiEONSt16remove_referenceIT_E4typeEOS2_
FNDA:0,_ZSt4moveIRlEONSt16remove_referenceIT_E4typeEOS2_
FNDA:0,_ZSt4moveIRmEONSt16remove_referenceIT_E4typeEOS2_
FNF:129
FNH:44
DA:51,124
DA:52,124
DA:70,477
DA:71,477
DA:97,459
DA:98,459
DA:138,8
DA:139,8
DA:189,0
DA:197,0
DA:198,0
DA:199,0
DA:200,0
LF:13
LH:8
end_of_record
TN:
SF:/usr/include/c++/13/bits/new_allocator.h
FN:104,104,_ZNSt15__new_allocatorI9HashEntryED2Ev
FN:104,104,_ZNSt15__new_allocatorIN7testing12TestPropertyEED2Ev
FN:104,104,_ZNSt15__new_allocatorIN7testing14TestPartResultEED2Ev
FN:104,104,_ZNSt15__new_allocatorIN7testing8internal13edit_distance8EditTypeEED2Ev
FN:104,104,_ZNSt15__new_allocatorIN7testing8internal9TraceInfoEED2Ev
FN:104,104,_ZNSt15__new_allocatorINSt7__cxx1112basic_stringIcSt11char_traitsIcESaIcEEEED2Ev
FN:104,104,_ZNSt15__new_allocatorINSt8__detail10_Hash_nodeINSt7__cxx1112basic_stringIcSt11char_traitsIcESaIcEEELb1EEEED2Ev
FN:104,104,_ZNSt15__new_allocatorINSt8__detail10_Hash_nodeISt4pairIKNSt7__cxx1112basic_stringIcSt11char_traitsIcESaIcEEEPN7testing9TestSuiteEELb1EEEED2Ev
FN:104,104,_ZNSt15__new_allocatorINSt8__detail10_Hash_nodeISt4pairIKNSt7__cxx1112basic_stringIcSt11char_traitsIcESaIcEEEmELb1EEEED2Ev
FN:104,104,_ZNSt15__new_allocatorIP8TreeNodeED2Ev
FN:104,104,_ZNSt15__new_allocatorIPN7testing11EnvironmentEED2Ev
FN:104,104,_ZNSt15__new_allocatorIPN7testing17TestEventListenerEED2Ev
FN:104,104,_ZNSt15__new_allocatorIPN7testing8TestInfoEED2Ev
FN:104,104,_ZNSt15__new_allocatorIPN7testing8internal30ParameterizedTestSuiteInfoBaseEED2Ev
FN:104,104,_ZNSt15__new_allocatorIPN7testing9TestSuiteEED2Ev
FN:104,104,_ZNSt15__new_allocatorIPNSt8__detail15_Hash_node_baseEED2Ev
FN:104,104,_ZNSt15__new_allocatorIPP8TreeNodeED2Ev
FN:104,104,_ZNSt15__new_allocatorIPcED2Ev
FN:104,104,_ZNSt15__new_allocatorISt10_List_nodeISt4pairIcPKcEEED2Ev
FN:104,104,_ZNSt15__new_allocatorISt13_Rb_tree_nodeINSt7__cxx1112basic_stringIcSt11char_traitsIcESaIcEEEEED2Ev
FN:104,104,_ZNSt15__new_allocatorISt13_Rb_tree_nodeISt4pairIKNSt7__cxx1112basic_stringIcSt11char_traitsIcESaIcEEEN7testing8internal34TypeParameterizedTestSuiteRegistry30TypeParameterizedTestSuiteInfoEEEED2Ev
FN:104,104,_ZNSt15__new_allocatorISt13_Rb_tree_nodeISt4pairIKNSt7__cxx1112basic_stringIcSt11char_traitsIcESaIcEEEmEEED2Ev
FN:104,104,_ZNSt15__new_allocatorISt6vectorIN7testing8internal13edit_distance8EditTypeESaIS4_EEED2Ev
FN:104,104,_ZNSt15__new_allocatorISt6vectorIdSaIdEEED2Ev
FN:104,104,_ZNSt15__new_allocatorIcED2Ev
FN:104,104,_ZNSt15__new_allocatorIdED2Ev
FN:104,104,_ZNSt15__new_allocatorIiED2Ev
FN:104,104,_ZNSt15__new_allocatorImED2Ev
FN:104,104,_ZNSt15__new_allocatorIwED2Ev
FN:126,152,_ZNSt15__new_allocatorI9HashEntryE8allocateEmPKv
FN:126,152,_ZNSt15__new_allocatorIN7testing12TestPropertyEE8allocateEmPKv
FN:126,152,_ZNSt15__new_allocatorIN7testing14TestPartResultEE8allocateEmPKv
FN:126,152,_ZNSt15__new_allocatorIN7testing8internal13edit_distance8EditTypeEE8allocateEmPKv
FN:126,152,_ZNSt15__new_allocatorIN7testing8internal9TraceInfoEE8allocateEmPKv
FN:126,152,_ZNSt15__new_allocatorINSt7__cxx1112basic_stringIcSt11char_traitsIcESaIcEEEE8allocateEmPKv
FN:126,152,_ZNSt15__new_allocatorINSt8__detail10_Hash_nodeINSt7__cxx1112basic_stringIcSt11char_traitsIcESaIcEEELb1EEEE8allocateEmPKv
FN:126,152,_ZNSt15__new_allocatorINSt8__detail10_Hash_nodeISt4pairIKNSt7__cxx1112basic_stringIcSt11char_traitsIcESaIcEEEPN7testing9TestSuiteEELb1EEEE8allocateEmPKv
FN:126,152,_ZNSt15__new_allocatorIP8TreeNodeE8allocateEmPKv
FN:126,152,_ZNSt15__new_allocatorIPN7testing11EnvironmentEE8allocateEmPKv
FN:126,152,_ZNSt15__new_allocatorIPN7testing17TestEventListenerEE8allocateEmPKv
FN:126,152,_ZNSt15__new_allocatorIPN7testing8TestInfoEE8allocateEmPKv
FN:126,152,_ZNSt15__new_allocatorIPN7testing9TestSuiteEE8allocateEmPKv
FN:126,152,_ZNSt15__new_allocatorIPNSt8__detail15_Hash_node_baseEE8allocateEmPKv
FN:126,152,_ZNSt15__new_allocatorIPP8TreeNodeE8allocateEmPKv
FN:126,152,_ZNSt15__new_allocatorIPcE8allocateEmPKv
FN:126,152,_ZNSt15__new_allocatorISt10_List_nodeISt4pairIcPKcEEE8allocateEmPKv
FN:126,152,_ZNSt15__new_allocatorISt13_Rb_tree_nodeINSt7__cxx1112basic_stringIcSt11char_traitsIcESaIcEEEEE8allocateEmPKv
FN:126,152,_ZNSt15__new_allocatorISt13_Rb_tree_nodeISt4pairIKNSt7__cxx1112basic_stringIcSt11char_traitsIcESaIcEEEN7testing8internal34TypeParameterizedTestSuiteRegistry30TypeParameterizedTestSuiteInfoEEEE8allocateEmPKv
FN:126,152,_ZNSt15__new_allocatorISt13_Rb_tree_nodeISt4pairIKNSt7__cxx1112basic_stringIcSt11char_traitsIcESaIcEEEmEEE8allocateEmPKv
FN:126,152,_ZNSt15__new_allocatorISt6vectorIN7testing8internal13edit_distance8EditTypeESaIS4_EEE8allocateEmPKv
FN:126,152,_ZNSt15__new_allocatorISt6vectorIdSaIdEEE8allocateEmPKv
FN:126,152,_ZNSt15__new_allocatorIdE8allocateEmPKv
FN:126,152,_ZNSt15__new_allocatorIiE8allocateEmPKv
FN:126,152,_ZNSt15__new_allocatorImE8allocateEmPKv
FN:156,173,_ZNSt15__new_allocatorI9HashEntryE10deallocateEPS0_m
FN:156,173,_ZNSt15__new_allocatorIN7testing12TestPropertyEE10deallocateEPS1_m
FN:156,173,_ZNSt15__new_allocatorIN7testing14TestPartResultEE10deallocateEPS1_m
FN:156,173,_ZNSt15__new_allocatorIN7testing8internal13edit_distance8EditTypeEE10deallocateEPS3_m
FN:156,173,_ZNSt15__new_allocatorIN7testing8internal9TraceInfoEE10deallocateEPS2_m
FN:156,173,_ZNSt15__new_allocatorINSt7__cxx1112basic_stringIcSt11char_traitsIcESaIcEEEE10deallocateEPS5_m
FN:156,173,_ZNSt15__new_allocatorINSt8__detail10_Hash_nodeINSt7__cxx1112basic_stringIcSt11char_traitsIcESaIcEEELb1EEEE10deallocateEPS8_m
FN:156,173,_ZNSt15__new_allocatorINSt8__detail10_Hash_nodeISt4pairIKNSt7__cxx1112basic_stringIcSt11char_traitsIcESaIcEEEPN7testing9TestSuiteEELb1EEEE10deallocateEPSE_m
FN:156,173,_ZNSt15__new_allocatorINSt8__detail10_Hash_nodeISt4pairIKNSt7__cxx1112basic_stringIcSt11char_traitsIcESaIcEEEmELb1EEEE10deallocateEPSB_m
FN:156,173,_ZNSt15__new_allocatorIP8TreeNodeE10deallocateEPS1_m
FN:156,173,_ZNSt15__new_allocatorIPN7testing11EnvironmentEE10deallocateEPS2_m
FN:156,173,_ZNSt15__new_allocatorIPN7testing17TestEventListenerEE10deallocateEPS2_m
FN:156,173,_ZNSt15__new_allocatorIPN7testing8TestInfoEE10deallocateEPS2_m
FN:156,173,_ZNSt15__new_allocatorIPN7testing8internal30ParameterizedTestSuiteInfoBaseEE10deallocateEPS3_m
FN:156,173,_ZNSt15__new_allocatorIPN7testing9TestSuiteEE10deallocateEPS2_m
FN:156,173,_ZNSt15__new_allocatorIPNSt8__detail15_Hash_node_baseEE10deallocateEPS2_m
FN:156,173,_ZNSt15__new_allocatorIPP8TreeNodeE10deallocateEPS2_m
FN:156,173,_ZNSt15__new_allocatorIPcE10deallocateEPS0_m
FN:156,173,_ZNSt15__new_allocatorISt10_List_nodeISt4pairIcPKcEEE10deallocateEPS5_m
FN:156,173,_ZNSt15__new_allocatorISt13_Rb_tree_nodeINSt7__cxx1112basic_stringIcSt11char_traitsIcESaIcEEEEE10deallocateEPS7_m
FN:156,173,_ZNSt15__new_allocatorISt13_Rb_tree_nodeISt4pairIKNSt7__cxx1112basic_stringIcSt11char_traitsIcESaIcEEEN7testing8internal34TypeParameterizedTestSuiteRegistry30TypeParameterizedTestSuiteInfoEEEE10deallocateEPSE_m
FN:156,173,_ZNSt15__new_allocatorISt13_Rb_tree_nodeISt4pairIKNSt7__cxx1112basic_stringIcSt11char_traitsIcESaIcEEEmEEE10deallocateEPSA_m
FN:156,173,_ZNSt15__new_allocatorISt6vectorIN7testing8internal13edit_distance8EditTypeESaIS4_EEE10deallocateEPS6_m
FN:156,173,_ZNSt15__new_allocatorISt6vectorIdSaIdEEE10deallocateEPS2_m
FN:156,173,_ZNSt15__new_allocatorIdE10deallocateEPdm
FN:156,173,_ZNSt15__new_allocatorIiE10deallocateEPim
FN:156,173,_ZNSt15__new_allocatorImE10deallocateEPmm
FNDA:2,_ZNSt15__new_allocatorI9HashEntryED2Ev
FNDA:15,_ZNSt15__new_allocatorIN7testing12TestPropertyEED2Ev
FNDA:15,_ZNSt15__new_allocatorIN7testing14TestPartResultEED2Ev
FNDA:0,_ZNSt15__new_allocatorIN7testing8internal13edit_distance8EditTypeEED2Ev
FNDA:1,_ZNSt15__new_allocatorIN7testing8internal9TraceInfoEED2Ev
FNDA:51,_ZNSt15__new_allocatorINSt7__cxx1112basic_stringIcSt11char_traitsIcESaIcEEEED2Ev
FNDA:14,_ZNSt15__new_allocatorINSt8__detail10_Hash_nodeINSt7__cxx1112basic_stringIcSt11char_traitsIcESaIcEEELb1EEEED2Ev
FNDA:1,_ZNSt15__new_allocatorINSt8__detail10_Hash_nodeISt4pairIKNSt7__cxx1112basic_stringIcSt11char_traitsIcESaIcEEEPN7testing9TestSuiteEELb1EEEED2Ev
FNDA:1,_ZNSt15__new_allocatorINSt8__detail10_Hash_nodeISt4pairIKNSt7__cxx1112basic_stringIcSt11char_traitsIcESaIcEEEmELb1EEEED2Ev
FNDA:10,_ZNSt15__new_allocatorIP8TreeNodeED2Ev
FNDA:1,_ZNSt15__new_allocatorIPN7testing11EnvironmentEED2Ev
FNDA:1,_ZNSt15__new_allocatorIPN7testing17TestEventListenerEED2Ev
FNDA:7,_ZNSt15__new_allocatorIPN7testing8TestInfoEED2Ev
FNDA:1,_ZNSt15__new_allocatorIPN7testing8internal30ParameterizedTestSuiteInfoBaseEED2Ev
FNDA:1,_ZNSt15__new_allocatorIPN7testing9TestSuiteEED2Ev
FNDA:2,_ZNSt15__new_allocatorIPNSt8__detail15_Hash_node_baseEED2Ev
FNDA:20,_ZNSt15__new_allocatorIPP8TreeNodeED2Ev
FNDA:0,_ZNSt15__new_allocatorIPcED2Ev
FNDA:0,_ZNSt15__new_allocatorISt10_List_nodeISt4pairIcPKcEEED2Ev
FNDA:1,_ZNSt15__new_allocatorISt13_Rb_tree_nodeINSt7__cxx1112basic_stringIcSt11char_traitsIcESaIcEEEEED2Ev
FNDA:1,_ZNSt15__new_allocatorISt13_Rb_tree_nodeISt4pairIKNSt7__cxx1112basic_stringIcSt11char_traitsIcESaIcEEEN7testing8internal34TypeParameterizedTestSuiteRegistry30TypeParameterizedTestSuiteInfoEEEED2Ev
FNDA:0,_ZNSt15__new_allocatorISt13_Rb_tree_nodeISt4pairIKNSt7__cxx1112basic_stringIcSt11char_traitsIcESaIcEEEmEEED2Ev
FNDA:0,_ZNSt15__new_allocatorISt6vectorIN7testing8internal13edit_distance8EditTypeESaIS4_EEED2Ev
FNDA:0,_ZNSt15__new_allocatorISt6vectorIdSaIdEEED2Ev
FNDA:163,_ZNSt15__new_allocatorIcED2Ev
FNDA:0,_ZNSt15__new_allocatorIdED2Ev
FNDA:8,_ZNSt15__new_allocatorIiED2Ev
FNDA:0,_ZNSt15__new_allocatorImED2Ev
FNDA:0,_ZNSt15__new_allocatorIwED2Ev
FNDA:2,_ZNSt15__new_allocatorI9HashEntryE8allocateEmPKv
FNDA:0,_ZNSt15__new_allocatorIN7testing12TestPropertyEE8allocateEmPKv
FNDA:2,_ZNSt15__new_allocatorIN7testing14TestPartResultEE8allocateEmPKv
FNDA:0,_ZNSt15__new_allocatorIN7testing8internal13edit_distance8EditTypeEE8allocateEmPKv
FNDA:0,_ZNSt15__new_allocatorIN7testing8internal9TraceInfoEE8allocateEmPKv
FNDA:36,_ZNSt15__new_allocatorINSt7__cxx1112basic_stringIcSt11char_traitsIcESaIcEEEE8allocateEmPKv
FNDA:0,_ZNSt15__new_allocatorINSt8__detail10_Hash_nodeINSt7__cxx1112basic_stringIcSt11char_traitsIcESaIcEEELb1EEEE8allocateEmPKv
FNDA:7,_ZNSt15__new_allocatorINSt8__detail10_Hash_nodeISt4pairIKNSt7__cxx1112basic_stringIcSt11char_traitsIcESaIcEEEPN7testing9TestSuiteEELb1EEEE8allocateEmPKv
FNDA:10,_ZNSt15__new_allocatorIP8TreeNodeE8allocateEmPKv
FNDA:0,_ZNSt15__new_allocatorIPN7testing11EnvironmentEE8allocateEmPKv
FNDA:1,_ZNSt15__new_allocatorIPN7testing17TestEventListenerEE8allocateEmPKv
FNDA:7,_ZNSt15__new_allocatorIPN7testing8TestInfoEE8allocateEmPKv
FNDA:4,_ZNSt15__new_allocatorIPN7testing9TestSuiteEE8allocateEmPKv
FNDA:1,_ZNSt15__new_allocatorIPNSt8__detail15_Hash_node_baseEE8allocateEmPKv
FNDA:10,_ZNSt15__new_allocatorIPP8TreeNodeE8allocateEmPKv
FNDA:0,_ZNSt15__new_allocatorIPcE8allocateEmPKv
FNDA:0,_ZNSt15__new_allocatorISt10_List_nodeISt4pairIcPKcEEE8allocateEmPKv
FNDA:0,_ZNSt15__new_allocatorISt13_Rb_tree_nodeINSt7__cxx1112basic_stringIcSt11char_traitsIcESaIcEEEEE8allocateEmPKv
FNDA:0,_ZNSt15__new_allocatorISt13_Rb_tree_nodeISt4pairIKNSt7__cxx1112basic_stringIcSt11char_traitsIcESaIcEEEN7testing8internal34TypeParameterizedTestSuiteRegistry30TypeParameterizedTestSuiteInfoEEEE8allocateEmPKv
FNDA:0,_ZNSt15__new_allocatorISt13_Rb_tree_nodeISt4pairIKNSt7__cxx1112basic_stringIcSt11char_traitsIcESaIcEEEmEEE8allocateEmPKv
FNDA:0,_ZNSt15__new_allocatorISt6vectorIN7testing8internal13edit_distance8EditTypeESaIS4_EEE8allocateEmPKv
FNDA:0,_ZNSt15__new_allocatorISt6vectorIdSaIdEEE8allocateEmPKv
FNDA:0,_ZNSt15__new_allocatorIdE8allocateEmPKv
FNDA:11,_ZNSt15__new_allocatorIiE8allocateEmPKv
FNDA:0,_ZNSt15__new_allocatorImE8allocateEmPKv
FNDA:2,_ZNSt15__new_allocatorI9HashEntryE10deallocateEPS0_m
FNDA:0,_ZNSt15__new_allocatorIN7testing12TestPropertyEE10deallocateEPS1_m
FNDA:2,_ZNSt15__new_allocatorIN7testing14TestPartResultEE10deallocateEPS1_m
FNDA:0,_ZNSt15__new_allocatorIN7testing8internal13edit_distance8EditTypeEE10deallocateEPS3_m
FNDA:0,_ZNSt15__new_allocatorIN7testing8internal9TraceInfoEE10deallocateEPS2_m
FNDA:36,_ZNSt15__new_allocatorINSt7__cxx1112basic_stringIcSt11char_traitsIcESaIcEEEE10deallocateEPS5_m
FNDA:0,_ZNSt15__new_allocatorINSt8__detail10_Hash_nodeINSt7__cxx1112basic_stringIcSt11char_traitsIcESaIcEEELb1EEEE10deallocateEPS8_m
FNDA:7,_ZNSt15__new_allocatorINSt8__detail10_Hash_nodeISt4pairIKNSt7__cxx1112basic_stringIcSt11char_traitsIcESaIcEEEPN7testing9TestSuiteEELb1EEEE10deallocateEPSE_m
FNDA:0,_ZNSt15__new_allocatorINSt8__detail10_Hash_nodeISt4pairIKNSt7__cxx1112basic_stringIcSt11char_traitsIcESaIcEEEmELb1EEEE10deallocateEPSB_m
FNDA:10,_ZNSt15__new_allocatorIP8TreeNodeE10deallocateEPS1_m
FNDA:0,_ZNSt15__new_allocatorIPN7testing11EnvironmentEE10deallocateEPS2_m
FNDA:1,_ZNSt15__new_allocatorIPN7testing17TestEventListenerEE10deallocateEPS2_m
FNDA:7,_ZNSt15__new_allocatorIPN7testing8TestInfoEE10deallocateEPS2_m
FNDA:0,_ZNSt15__new_allocatorIPN7testing8internal30ParameterizedTestSuiteInfoBaseEE10deallocateEPS3_m
FNDA:4,_ZNSt15__new_allocatorIPN7testing9TestSuiteEE10deallocateEPS2_m
FNDA:1,_ZNSt15__new_allocatorIPNSt8__detail15_Hash_node_baseEE10deallocateEPS2_m
FNDA:10,_ZNSt15__new_allocatorIPP8TreeNodeE10deallocateEPS2_m
FNDA:0,_ZNSt15__new_allocatorIPcE10deallocateEPS0_m
FNDA:0,_ZNSt15__new_allocatorISt10_List_nodeISt4pairIcPKcEEE10deallocateEPS5_m
FNDA:0,_ZNSt15__new_allocatorISt13_Rb_tree_nodeINSt7__cxx1112basic_stringIcSt11char_traitsIcESaIcEEEEE10deallocateEPS7_m
FNDA:0,_ZNSt15__new_allocatorISt13_Rb_tree_nodeISt4pairIKNSt7__cxx1112basic_stringIcSt11char_traitsIcESaIcEEEN7testing8internal34TypeParameterizedTestSuiteRegistry30TypeParameterizedTestSuiteInfoEEEE10deallocateEPSE_m
FNDA:0,_ZNSt15__new_allocatorISt13_Rb_tree_nodeISt4pairIKNSt7__cxx1112basic_stringIcSt11char_traitsIcESaIcEEEmEEE10deallocateEPSA_m
FNDA:0,_ZNSt15__new_allocatorISt6vectorIN7testing8internal13edit_distance8EditTypeESaIS4_EEE10deallocateEPS6_m
FNDA:0,_ZNSt15__new_allocatorISt6vectorIdSaIdEEE10deallocateEPS2_m
FNDA:0,_ZNSt15__new_allocatorIdE10deallocateEPdm
FNDA:11,_ZNSt15__new_allocatorIiE10deallocateEPim
FNDA:0,_ZNSt15__new_allocatorImE10deallocateEPmm
FNF:81
FNH:42
DA:88,267
DA:92,18
DA:104,316
DA:126,91
DA:134,91
DA:138,0
DA:139,0
DA:140,0
DA:151,91
DA:156,91
DA:172,91
DA:183,118
DA:191,112
DA:198,34
DA:233,209
LF:15
LH:12
end_of_record
TN:
SF:/usr/include/c++/13/bits/predefined_ops.h
FN:150,152,_ZN9__gnu_cxx5__ops15_Iter_comp_iterIZN7testing9TestSuite3RunEvEUlPKNS2_8TestInfoES6_E_EC2ES7_
FN:157,158,_ZN9__gnu_cxx5__ops15_Iter_comp_iterIZN7testing9TestSuite3RunEvEUlPKNS2_8TestInfoES6_E_EclINS_17__normal_iteratorIPPS4_St6vectorISB_SaISB_EEEESC_EEbT_T0_
FN:157,158,_ZN9__gnu_cxx5__ops15_Iter_comp_iterIZN7testing9TestSuite3RunEvEUlPKNS2_8TestInfoES6_E_EclINS_17__normal_iteratorIPPS4_St6vectorISB_SaISB_EEEESG_EEbT_T0_
FN:157,158,_ZN9__gnu_cxx5__ops15_Iter_comp_iterIZN7testing9TestSuite3RunEvEUlPKNS2_8TestInfoES6_E_EclIPPS4_NS_17__normal_iteratorISB_St6vectorISA_SaISA_EEEEEEbT_T0_
FN:157,158,_ZN9__gnu_cxx5__ops15_Iter_comp_iterIZN7testing9TestSuite3RunEvEUlPKNS2_8TestInfoES6_E_EclIPPS4_SB_EEbT_T0_
FN:164,165,_ZN9__gnu_cxx5__ops16__iter_comp_iterIZN7testing9TestSuite3RunEvEUlPKNS2_8TestInfoES6_E_EENS0_15_Iter_comp_iterIT_EES9_
FN:187,189,_ZN9__gnu_cxx5__ops14_Iter_comp_valIZN7testing9TestSuite3RunEvEUlPKNS2_8TestInfoES6_E_EC2EONS0_15_Iter_comp_iterIS7_EE
FN:195,196,_ZN9__gnu_cxx5__ops14_Iter_comp_valIZN7testing9TestSuite3RunEvEUlPKNS2_8TestInfoES6_E_EclINS_17__normal_iteratorIPPS4_St6vectorISB_SaISB_EEEEKSB_EEbT_RT0_
FN:208,209,_ZN9__gnu_cxx5__ops15__iter_comp_valIZN7testing9TestSuite3RunEvEUlPKNS2_8TestInfoES6_E_EENS0_14_Iter_comp_valIT_EENS0_15_Iter_comp_iterIS9_EE
FN:231,233,_ZN9__gnu_cxx5__ops14_Val_comp_iterIZN7testing9TestSuite3RunEvEUlPKNS2_8TestInfoES6_E_EC2EONS0_15_Iter_comp_iterIS7_EE
FN:239,240,_ZN9__gnu_cxx5__ops14_Val_comp_iterIZN7testing9TestSuite3RunEvEUlPKNS2_8TestInfoES6_E_EclIKPS4_NS_17__normal_iteratorIPSA_St6vectorISA_SaISA_EEEEEEbRT_T0_
FN:239,240,_ZN9__gnu_cxx5__ops14_Val_comp_iterIZN7testing9TestSuite3RunEvEUlPKNS2_8TestInfoES6_E_EclIPS4_NS_17__normal_iteratorIPSA_St6vectorISA_SaISA_EEEEEEbRT_T0_
FN:252,253,_ZN9__gnu_cxx5__ops15__val_comp_iterIZN7testing9TestSuite3RunEvEUlPKNS2_8TestInfoES6_E_EENS0_14_Val_comp_iterIT_EENS0_15_Iter_comp_iterIS9_EE
FN:262,264,_ZN9__gnu_cxx5__ops16_Iter_equals_valIKNSt7__cxx1112basic_stringIcSt11char_traitsIcESaIcEEEEC2ERS8_
FN:269,270,_ZN9__gnu_cxx5__ops16_Iter_equals_valIKNSt7__cxx1112basic_stringIcSt11char_traitsIcESaIcEEEEclINS_17__normal_iteratorIPS8_St6vectorIS7_SaIS7_EEEEEEbT_
FN:276,277,_ZN9__gnu_cxx5__ops17__iter_equals_valIKNSt7__cxx1112basic_stringIcSt11char_traitsIcESaIcEEEEENS0_16_Iter_equals_valIT_EERSA_
FN:310,312,_ZN9__gnu_cxx5__ops10_Iter_predIN7testing8internal17TestPropertyKeyIsEEC2ES4_
FN:310,312,_ZN9__gnu_cxx5__ops10_Iter_predIZN7testing8internal12_GLOBAL__N_113IsGlobPatternERKNSt7__cxx1112basic_stringIcSt11char_traitsIcESaIcEEEEUlcE_EC2ESD_
FN:310,312,_ZN9__gnu_cxx5__ops10_Iter_predIZNK7testing8internal12_GLOBAL__N_114UnitTestFilter11MatchesNameERKNSt7__cxx1112basic_stringIcSt11char_traitsIcESaIcEEEEUlSD_E_EC2ESE_
FN:317,318,_ZN9__gnu_cxx5__ops10_Iter_predIN7testing8internal17TestPropertyKeyIsEEclINS_17__normal_iteratorIPNS2_12TestPropertyESt6vectorIS8_SaIS8_EEEEEEbT_
FN:317,318,_ZN9__gnu_cxx5__ops10_Iter_predIZN7testing8internal12_GLOBAL__N_113IsGlobPatternERKNSt7__cxx1112basic_stringIcSt11char_traitsIcESaIcEEEEUlcE_EclINS_17__normal_iteratorIPKcSA_EEEEbT_
FN:317,318,_ZN9__gnu_cxx5__ops10_Iter_predIZNK7testing8internal12_GLOBAL__N_114UnitTestFilter11MatchesNameERKNSt7__cxx1112basic_stringIcSt11char_traitsIcESaIcEEEEUlSD_E_EclINS_17__normal_iteratorIPSC_St6vectorISB_SaISB_EEEEEEbT_
FN:324,325,_ZN9__gnu_cxx5__ops11__pred_iterIN7testing8internal17TestPropertyKeyIsEEENS0_10_Iter_predIT_EES6_
FN:324,325,_ZN9__gnu_cxx5__ops11__pred_iterIZN7testing8internal12_GLOBAL__N_113IsGlobPatternERKNSt7__cxx1112basic_stringIcSt11char_traitsIcESaIcEEEEUlcE_EENS0_10_Iter_predIT_EESF_
FN:324,325,_ZN9__gnu_cxx5__ops11__pred_iterIZNK7testing8internal12_GLOBAL__N_114UnitTestFilter11MatchesNameERKNSt7__cxx1112basic_stringIcSt11char_traitsIcESaIcEEEEUlSD_E_EENS0_10_Iter_predIT_EESG_
FNDA:7,_ZN9__gnu_cxx5__ops15_Iter_comp_iterIZN7testing9TestSuite3RunEvEUlPKNS2_8TestInfoES6_E_EC2ES7_
FNDA:0,_ZN9__gnu_cxx5__ops15_Iter_comp_iterIZN7testing9TestSuite3RunEvEUlPKNS2_8TestInfoES6_E_EclINS_17__normal_iteratorIPPS4_St6vectorISB_SaISB_EEEESC_EEbT_T0_
FNDA:0,_ZN9__gnu_cxx5__ops15_Iter_comp_iterIZN7testing9TestSuite3RunEvEUlPKNS2_8TestInfoES6_E_EclINS_17__normal_iteratorIPPS4_St6vectorISB_SaISB_EEEESG_EEbT_T0_
FNDA:0,_ZN9__gnu_cxx5__ops15_Iter_comp_iterIZN7testing9TestSuite3RunEvEUlPKNS2_8TestInfoES6_E_EclIPPS4_NS_17__normal_iteratorISB_St6vectorISA_SaISA_EEEEEEbT_T0_
FNDA:0,_ZN9__gnu_cxx5__ops15_Iter_comp_iterIZN7testing9TestSuite3RunEvEUlPKNS2_8TestInfoES6_E_EclIPPS4_SB_EEbT_T0_
FNDA:7,_ZN9__gnu_cxx5__ops16__iter_comp_iterIZN7testing9TestSuite3RunEvEUlPKNS2_8TestInfoES6_E_EENS0_15_Iter_comp_iterIT_EES9_
FNDA:0,_ZN9__gnu_cxx5__ops14_Iter_comp_valIZN7testing9TestSuite3RunEvEUlPKNS2_8TestInfoES6_E_EC2EONS0_15_Iter_comp_iterIS7_EE
FNDA:0,_ZN9__gnu_cxx5__ops14_Iter_comp_valIZN7testing9TestSuite3RunEvEUlPKNS2_8TestInfoES6_E_EclINS_17__normal_iteratorIPPS4_St6vectorISB_SaISB_EEEEKSB_EEbT_RT0_
FNDA:0,_ZN9__gnu_cxx5__ops15__iter_comp_valIZN7testing9TestSuite3RunEvEUlPKNS2_8TestInfoES6_E_EENS0_14_Iter_comp_valIT_EENS0_15_Iter_comp_iterIS9_EE
FNDA:0,_ZN9__gnu_cxx5__ops14_Val_comp_iterIZN7testing9TestSuite3RunEvEUlPKNS2_8TestInfoES6_E_EC2EONS0_15_Iter_comp_iterIS7_EE
FNDA:0,_ZN9__gnu_cxx5__ops14_Val_comp_iterIZN7testing9TestSuite3RunEvEUlPKNS2_8TestInfoES6_E_EclIKPS4_NS_17__normal_iteratorIPSA_St6vectorISA_SaISA_EEEEEEbRT_T0_
FNDA:0,_ZN9__gnu_cxx5__ops14_Val_comp_iterIZN7testing9TestSuite3RunEvEUlPKNS2_8TestInfoES6_E_EclIPS4_NS_17__normal_iteratorIPSA_St6vectorISA_SaISA_EEEEEEbRT_T0_
FNDA:0,_ZN9__gnu_cxx5__ops15__val_comp_iterIZN7testing9TestSuite3RunEvEUlPKNS2_8TestInfoES6_E_EENS0_14_Val_comp_iterIT_EENS0_15_Iter_comp_iterIS9_EE
FNDA:0,_ZN9__gnu_cxx5__ops16_Iter_equals_valIKNSt7__cxx1112basic_stringIcSt11char_traitsIcESaIcEEEEC2ERS8_
FNDA:0,_ZN9__gnu_cxx5__ops16_Iter_equals_valIKNSt7__cxx1112basic_stringIcSt11char_traitsIcESaIcEEEEclINS_17__normal_iteratorIPS8_St6vectorIS7_SaIS7_EEEEEEbT_
FNDA:0,_ZN9__gnu_cxx5__ops17__iter_equals_valIKNSt7__cxx1112basic_stringIcSt11char_traitsIcESaIcEEEEENS0_16_Iter_equals_valIT_EERSA_
FNDA:0,_ZN9__gnu_cxx5__ops10_Iter_predIN7testing8internal17TestPropertyKeyIsEEC2ES4_
FNDA:18,_ZN9__gnu_cxx5__ops10_Iter_predIZN7testing8internal12_GLOBAL__N_113IsGlobPatternERKNSt7__cxx1112basic_stringIcSt11char_traitsIcESaIcEEEEUlcE_EC2ESD_
FNDA:37,_ZN9__gnu_cxx5__ops10_Iter_predIZNK7testing8internal12_GLOBAL__N_114UnitTestFilter11MatchesNameERKNSt7__cxx1112basic_stringIcSt11char_traitsIcESaIcEEEEUlSD_E_EC2ESE_
FNDA:0,_ZN9__gnu_cxx5__ops10_Iter_predIN7testing8internal17TestPropertyKeyIsEEclINS_17__normal_iteratorIPNS2_12TestPropertyESt6vectorIS8_SaIS8_EEEEEEbT_
FNDA:27,_ZN9__gnu_cxx5__ops10_Iter_predIZN7testing8internal12_GLOBAL__N_113IsGlobPatternERKNSt7__cxx1112basic_stringIcSt11char_traitsIcESaIcEEEEUlcE_EclINS_17__normal_iteratorIPKcSA_EEEEbT_
FNDA:50,_ZN9__gnu_cxx5__ops10_Iter_predIZNK7testing8internal12_GLOBAL__N_114UnitTestFilter11MatchesNameERKNSt7__cxx1112basic_stringIcSt11char_traitsIcESaIcEEEEUlSD_E_EclINS_17__normal_iteratorIPSC_St6vectorISB_SaISB_EEEEEEbT_
FNDA:0,_ZN9__gnu_cxx5__ops11__pred_iterIN7testing8internal17TestPropertyKeyIsEEENS0_10_Iter_predIT_EES6_
FNDA:18,_ZN9__gnu_cxx5__ops11__pred_iterIZN7testing8internal12_GLOBAL__N_113IsGlobPatternERKNSt7__cxx1112basic_stringIcSt11char_traitsIcESaIcEEEEUlcE_EENS0_10_Iter_predIT_EESF_
FNDA:37,_ZN9__gnu_cxx5__ops11__pred_iterIZNK7testing8internal12_GLOBAL__N_114UnitTestFilter11MatchesNameERKNSt7__cxx1112basic_stringIcSt11char_traitsIcESaIcEEEEUlSD_E_EENS0_10_Iter_predIT_EESG_
FNF:25
FNH:8
DA:150,7
DA:151,7
DA:152,7
DA:157,0
DA:158,0
DA:164,7
DA:165,7
DA:187,0
DA:188,0
DA:189,0
DA:195,0
DA:196,0
DA:208,0
DA:209,0
DA:231,0
DA:232,0
DA:233,0
DA:239,0
DA:240,0
DA:252,0
DA:253,0
DA:262,0
DA:263,0
DA:264,0
DA:269,0
DA:270,0
DA:276,0
DA:277,0
DA:310,55
DA:311,55
DA:312,55
DA:317,77
DA:318,77
DA:324,55
DA:325,55
LF:35
LH:12
end_of_record
TN:
SF:/usr/include/c++/13/bits/ptr_traits.h
FN:141,142,_ZNSt19__ptr_traits_ptr_toIPNSt8__detail10_Hash_nodeINSt7__cxx1112basic_stringIcSt11char_traitsIcESaIcEEELb1EEES8_Lb0EE10pointer_toERS8_
FN:141,142,_ZNSt19__ptr_traits_ptr_toIPNSt8__detail10_Hash_nodeISt4pairIKNSt7__cxx1112basic_stringIcSt11char_traitsIcESaIcEEEPN7testing9TestSuiteEELb1EEESE_Lb0EE10pointer_toERSE_
FN:141,142,_ZNSt19__ptr_traits_ptr_toIPNSt8__detail10_Hash_nodeISt4pairIKNSt7__cxx1112basic_stringIcSt11char_traitsIcESaIcEEEmELb1EEESB_Lb0EE10pointer_toERSB_
FN:141,142,_ZNSt19__ptr_traits_ptr_toIPPNSt8__detail15_Hash_node_baseES2_Lb0EE10pointer_toERS2_
FN:212,216,_ZSt12__to_addressINSt8__detail10_Hash_nodeINSt7__cxx1112basic_stringIcSt11char_traitsIcESaIcEEELb1EEEEPT_SA_
FN:212,216,_ZSt12__to_addressINSt8__detail10_Hash_nodeISt4pairIKNSt7__cxx1112basic_stringIcSt11char_traitsIcESaIcEEEPN7testing9TestSuiteEELb1EEEEPT_SG_
FN:212,216,_ZSt12__to_addressIPNSt8__detail15_Hash_node_baseEEPT_S4_
FNDA:0,_ZNSt19__ptr_traits_ptr_toIPNSt8__detail10_Hash_nodeINSt7__cxx1112basic_stringIcSt11char_traitsIcESaIcEEELb1EEES8_Lb0EE10pointer_toERS8_
FNDA:7,_ZNSt19__ptr_traits_ptr_toIPNSt8__detail10_Hash_nodeISt4pairIKNSt7__cxx1112basic_stringIcSt11char_traitsIcESaIcEEEPN7testing9TestSuiteEELb1EEESE_Lb0EE10pointer_toERSE_
FNDA:0,_ZNSt19__ptr_traits_ptr_toIPNSt8__detail10_Hash_nodeISt4pairIKNSt7__cxx1112basic_stringIcSt11char_traitsIcESaIcEEEmELb1EEESB_Lb0EE10pointer_toERSB_
FNDA:1,_ZNSt19__ptr_traits_ptr_toIPPNSt8__detail15_Hash_node_baseES2_Lb0EE10pointer_toERS2_
FNDA:0,_ZSt12__to_addressINSt8__detail10_Hash_nodeINSt7__cxx1112basic_stringIcSt11char_traitsIcESaIcEEELb1EEEEPT_SA_
FNDA:7,_ZSt12__to_addressINSt8__detail10_Hash_nodeISt4pairIKNSt7__cxx1112basic_stringIcSt11char_traitsIcESaIcEEEPN7testing9TestSuiteEELb1EEEEPT_SG_
FNDA:1,_ZSt12__to_addressIPNSt8__detail15_Hash_node_baseEEPT_S4_
FNF:7
FNH:4
DA:141,8
DA:142,8
DA:212,8
DA:215,8
LF:4
LH:4
end_of_record
TN:
SF:/usr/include/c++/13/bits/stl_algo.h
FN:1102,1114,_ZSt9__reverseIN9__gnu_cxx17__normal_iteratorIPN7testing8internal13edit_distance8EditTypeESt6vectorIS5_SaIS5_EEEEEvT_SB_St26random_access_iterator_tag
FN:1131,1138,_ZSt7reverseIN9__gnu_cxx17__normal_iteratorIPN7testing8internal13edit_distance8EditTypeESt6vectorIS5_SaIS5_EEEEEvT_SB_
FN:1283,1362,_ZNSt3_V28__rotateIN9__gnu_cxx17__normal_iteratorIPPN7testing8TestInfoESt6vectorIS5_SaIS5_EEEEEET_SB_SB_SB_St26random_access_iterator_tag
FN:1390,1401,_ZNSt3_V26rotateIN9__gnu_cxx17__normal_iteratorIPPN7testing8TestInfoESt6vectorIS5_SaIS5_EEEEEET_SB_SB_SB_
FN:1472,1495,_ZSt11__partitionIN9__gnu_cxx17__normal_iteratorIPNSt7__cxx1112basic_stringIcSt11char_traitsIcESaIcEEESt6vectorIS7_SaIS7_EEEEPFbRKS7_EET_SH_SH_T0_St26bidirectional_iterator_tag
FN:1792,1806,_ZSt25__unguarded_linear_insertIN9__gnu_cxx17__normal_iteratorIPPN7testing8TestInfoESt6vectorIS4_SaIS4_EEEENS0_5__ops14_Val_comp_iterIZNS2_9TestSuite3RunEvEUlPKS3_SE_E_EEEvT_T0_
FN:1812,1830,_ZSt16__insertion_sortIN9__gnu_cxx17__normal_iteratorIPPN7testing8TestInfoESt6vectorIS4_SaIS4_EEEENS0_5__ops15_Iter_comp_iterIZNS2_9TestSuite3RunEvEUlPKS3_SE_E_EEEvT_SH_T0_
FN:2022,2045,_ZSt13__upper_boundIN9__gnu_cxx17__normal_iteratorIPPN7testing8TestInfoESt6vectorIS4_SaIS4_EEEES4_NS0_5__ops14_Val_comp_iterIZNS2_9TestSuite3RunEvEUlPKS3_SE_E_EEET_SH_SH_RKT0_T1_
FN:2294,2314,_ZSt21__move_merge_adaptiveIPPN7testing8TestInfoEN9__gnu_cxx17__normal_iteratorIS3_St6vectorIS2_SaIS2_EEEES9_NS4_5__ops15_Iter_comp_iterIZNS0_9TestSuite3RunEvEUlPKS1_SE_E_EEEvT_SH_T0_SI_T1_T2_
FN:2320,2357,_ZSt30__move_merge_adaptive_backwardIN9__gnu_cxx17__normal_iteratorIPPN7testing8TestInfoESt6vectorIS4_SaIS4_EEEES5_S9_NS0_5__ops15_Iter_comp_iterIZNS2_9TestSuite3RunEvEUlPKS3_SE_E_EEEvT_SH_T0_SI_T1_T2_
FN:2363,2395,_ZSt17__rotate_adaptiveIN9__gnu_cxx17__normal_iteratorIPPN7testing8TestInfoESt6vectorIS4_SaIS4_EEEES5_lET_SA_SA_SA_T1_SB_T0_SB_
FN:2401,2419,_ZSt16__merge_adaptiveIN9__gnu_cxx17__normal_iteratorIPPN7testing8TestInfoESt6vectorIS4_SaIS4_EEEElS5_NS0_5__ops15_Iter_comp_iterIZNS2_9TestSuite3RunEvEUlPKS3_SE_E_EEEvT_SH_SH_T0_SI_T1_T2_
FN:2424,2471,_ZSt23__merge_adaptive_resizeIN9__gnu_cxx17__normal_iteratorIPPN7testing8TestInfoESt6vectorIS4_SaIS4_EEEElS5_NS0_5__ops15_Iter_comp_iterIZNS2_9TestSuite3RunEvEUlPKS3_SE_E_EEEvT_SH_SH_T0_SI_T1_SI_T2_
FN:2477,2522,_ZSt22__merge_without_bufferIN9__gnu_cxx17__normal_iteratorIPPN7testing8TestInfoESt6vectorIS4_SaIS4_EEEElNS0_5__ops15_Iter_comp_iterIZNS2_9TestSuite3RunEvEUlPKS3_SE_E_EEEvT_SH_SH_T0_SI_T1_
FN:2649,2670,_ZSt12__move_mergeIN9__gnu_cxx17__normal_iteratorIPPN7testing8TestInfoESt6vectorIS4_SaIS4_EEEES5_NS0_5__ops15_Iter_comp_iterIZNS2_9TestSuite3RunEvEUlPKS3_SE_E_EEET0_T_SI_SI_SI_SH_T1_
FN:2649,2670,_ZSt12__move_mergeIPPN7testing8TestInfoEN9__gnu_cxx17__normal_iteratorIS3_St6vectorIS2_SaIS2_EEEENS4_5__ops15_Iter_comp_iterIZNS0_9TestSuite3RunEvEUlPKS1_SE_E_EEET0_T_SI_SI_SI_SH_T1_
FN:2675,2694,_ZSt17__merge_sort_loopIN9__gnu_cxx17__normal_iteratorIPPN7testing8TestInfoESt6vectorIS4_SaIS4_EEEES5_lNS0_5__ops15_Iter_comp_iterIZNS2_9TestSuite3RunEvEUlPKS3_SE_E_EEEvT_SH_T0_T1_T2_
FN:2675,2694,_ZSt17__merge_sort_loopIPPN7testing8TestInfoEN9__gnu_cxx17__normal_iteratorIS3_St6vectorIS2_SaIS2_EEEElNS4_5__ops15_Iter_comp_iterIZNS0_9TestSuite3RunEvEUlPKS1_SE_E_EEEvT_SH_T0_T1_T2_
FN:2700,2710,_ZSt22__chunk_insertion_sortIN9__gnu_cxx17__normal_iteratorIPPN7testing8TestInfoESt6vectorIS4_SaIS4_EEEElNS0_5__ops15_Iter_comp_iterIZNS2_9TestSuite3RunEvEUlPKS3_SE_E_EEEvT_SH_T0_T1_
FN:2716,2738,_ZSt24__merge_sort_with_bufferIN9__gnu_cxx17__normal_iteratorIPPN7testing8TestInfoESt6vectorIS4_SaIS4_EEEES5_NS0_5__ops15_Iter_comp_iterIZNS2_9TestSuite3RunEvEUlPKS3_SE_E_EEEvT_SH_T0_T1_
FN:2742,2753,_ZSt22__stable_sort_adaptiveIN9__gnu_cxx17__normal_iteratorIPPN7testing8TestInfoESt6vectorIS4_SaIS4_EEEES5_NS0_5__ops15_Iter_comp_iterIZNS2_9TestSuite3RunEvEUlPKS3_SE_E_EEEvT_SH_SH_T0_T1_
FN:2758,2780,_ZSt29__stable_sort_adaptive_resizeIN9__gnu_cxx17__normal_iteratorIPPN7testing8TestInfoESt6vectorIS4_SaIS4_EEEES5_lNS0_5__ops15_Iter_comp_iterIZNS2_9TestSuite3RunEvEUlPKS3_SE_E_EEEvT_SH_T0_T1_T2_
FN:2785,2800,_ZSt21__inplace_stable_sortIN9__gnu_cxx17__normal_iteratorIPPN7testing8TestInfoESt6vectorIS4_SaIS4_EEEENS0_5__ops15_Iter_comp_iterIZNS2_9TestSuite3RunEvEUlPKS3_SE_E_EEEvT_SH_T0_
FN:3827,3835,_ZSt8for_eachIN9__gnu_cxx17__normal_iteratorIPKPN7testing11EnvironmentESt6vectorIS4_SaIS4_EEEEPFvS4_EET0_T_SE_SD_
FN:3827,3835,_ZSt8for_eachIN9__gnu_cxx17__normal_iteratorIPKPN7testing17TestEventListenerESt6vectorIS4_SaIS4_EEEEPFvS4_EET0_T_SE_SD_
FN:3827,3835,_ZSt8for_eachIN9__gnu_cxx17__normal_iteratorIPKPN7testing8TestInfoESt6vectorIS4_SaIS4_EEEEPFvS4_EET0_T_SE_SD_
FN:3827,3835,_ZSt8for_eachIN9__gnu_cxx17__normal_iteratorIPKPN7testing9TestSuiteESt6vectorIS4_SaIS4_EEEEPFvS4_EET0_T_SE_SD_
FN:3827,3835,_ZSt8for_eachISt16reverse_iteratorIN9__gnu_cxx17__normal_iteratorIPPN7testing11EnvironmentESt6vectorIS5_SaIS5_EEEEEPFvS5_EET0_T_SF_SE_
FN:3889,3899,_ZSt4findIN9__gnu_cxx17__normal_iteratorIPKNSt7__cxx1112basic_stringIcSt11char_traitsIcESaIcEEESt6vectorIS7_SaIS7_EEEES7_ET_SE_SE_RKT0_
FN:3914,3925,_ZSt7find_ifIN9__gnu_cxx17__normal_iteratorIPKNSt7__cxx1112basic_stringIcSt11char_traitsIcESaIcEEESt6vectorIS7_SaIS7_EEEEZNK7testing8internal12_GLOBAL__N_114UnitTestFilter11MatchesNameERS8_EUlSI_E_ET_SK_SK_T0_
FN:3914,3925,_ZSt7find_ifIN9__gnu_cxx17__normal_iteratorIPKcNSt7__cxx1112basic_stringIcSt11char_traitsIcESaIcEEEEEZN7testing8internal12_GLOBAL__N_113IsGlobPatternERKS9_EUlcE_ET_SH_SH_T0_
FN:3914,3925,_ZSt7find_ifIN9__gnu_cxx17__normal_iteratorIPN7testing12TestPropertyESt6vectorIS3_SaIS3_EEEENS2_8internal17TestPropertyKeyIsEET_SB_SB_T0_
FN:4662,4674,_ZSt9partitionIN9__gnu_cxx17__normal_iteratorIPNSt7__cxx1112basic_stringIcSt11char_traitsIcESaIcEEESt6vectorIS7_SaIS7_EEEEPFbRKS7_EET_SH_SH_T0_
FN:476,477,_ZSt7none_ofIN9__gnu_cxx17__normal_iteratorIPKNSt7__cxx1112basic_stringIcSt11char_traitsIcESaIcEEESt6vectorIS7_SaIS7_EEEEZNK7testing8internal12_GLOBAL__N_114UnitTestFilter11MatchesNameERS8_EUlSI_E_EbT_SK_T0_
FN:476,477,_ZSt7none_ofIN9__gnu_cxx17__normal_iteratorIPKcNSt7__cxx1112basic_stringIcSt11char_traitsIcESaIcEEEEEZN7testing8internal12_GLOBAL__N_113IsGlobPatternERKS9_EUlcE_EbT_SH_T0_
FN:495,496,_ZSt6any_ofIN9__gnu_cxx17__normal_iteratorIPKNSt7__cxx1112basic_stringIcSt11char_traitsIcESaIcEEESt6vectorIS7_SaIS7_EEEEZNK7testing8internal12_GLOBAL__N_114UnitTestFilter11MatchesNameERS8_EUlSI_E_EbT_SK_T0_
FN:495,496,_ZSt6any_ofIN9__gnu_cxx17__normal_iteratorIPKcNSt7__cxx1112basic_stringIcSt11char_traitsIcESaIcEEEEEZN7testing8internal12_GLOBAL__N_113IsGlobPatternERKS9_EUlcE_EbT_SH_T0_
FN:5023,5052,_ZSt13__stable_sortIN9__gnu_cxx17__normal_iteratorIPPN7testing8TestInfoESt6vectorIS4_SaIS4_EEEENS0_5__ops15_Iter_comp_iterIZNS2_9TestSuite3RunEvEUlPKS3_SE_E_EEEvT_SH_T0_
FN:5107,5121,_ZSt11stable_sortIN9__gnu_cxx17__normal_iteratorIPPN7testing8TestInfoESt6vectorIS4_SaIS4_EEEEZNS2_9TestSuite3RunEvEUlPKS3_SC_E_EvT_SE_T0_
FNDA:0,_ZSt9__reverseIN9__gnu_cxx17__normal_iteratorIPN7testing8internal13edit_distance8EditTypeESt6vectorIS5_SaIS5_EEEEEvT_SB_St26random_access_iterator_tag
FNDA:0,_ZSt7reverseIN9__gnu_cxx17__normal_iteratorIPN7testing8internal13edit_distance8EditTypeESt6vectorIS5_SaIS5_EEEEEvT_SB_
FNDA:0,_ZNSt3_V28__rotateIN9__gnu_cxx17__normal_iteratorIPPN7testing8TestInfoESt6vectorIS5_SaIS5_EEEEEET_SB_SB_SB_St26random_access_iterator_tag
FNDA:0,_ZNSt3_V26rotateIN9__gnu_cxx17__normal_iteratorIPPN7testing8TestInfoESt6vectorIS5_SaIS5_EEEEEET_SB_SB_SB_
FNDA:10,_ZSt11__partitionIN9__gnu_cxx17__normal_iteratorIPNSt7__cxx1112basic_stringIcSt11char_traitsIcESaIcEEESt6vectorIS7_SaIS7_EEEEPFbRKS7_EET_SH_SH_T0_St26bidirectional_iterator_tag
FNDA:0,_ZSt25__unguarded_linear_insertIN9__gnu_cxx17__normal_iteratorIPPN7testing8TestInfoESt6vectorIS4_SaIS4_EEEENS0_5__ops14_Val_comp_iterIZNS2_9TestSuite3RunEvEUlPKS3_SE_E_EEEvT_T0_
FNDA:14,_ZSt16__insertion_sortIN9__gnu_cxx17__normal_iteratorIPPN7testing8TestInfoESt6vectorIS4_SaIS4_EEEENS0_5__ops15_Iter_comp_iterIZNS2_9TestSuite3RunEvEUlPKS3_SE_E_EEEvT_SH_T0_
FNDA:0,_ZSt13__upper_boundIN9__gnu_cxx17__normal_iteratorIPPN7testing8TestInfoESt6vectorIS4_SaIS4_EEEES4_NS0_5__ops14_Val_comp_iterIZNS2_9TestSuite3RunEvEUlPKS3_SE_E_EEET_SH_SH_RKT0_T1_
FNDA:0,_ZSt21__move_merge_adaptiveIPPN7testing8TestInfoEN9__gnu_cxx17__normal_iteratorIS3_St6vectorIS2_SaIS2_EEEES9_NS4_5__ops15_Iter_comp_iterIZNS0_9TestSuite3RunEvEUlPKS1_SE_E_EEEvT_SH_T0_SI_T1_T2_
FNDA:7,_ZSt30__move_merge_adaptive_backwardIN9__gnu_cxx17__normal_iteratorIPPN7testing8TestInfoESt6vectorIS4_SaIS4_EEEES5_S9_NS0_5__ops15_Iter_comp_iterIZNS2_9TestSuite3RunEvEUlPKS3_SE_E_EEEvT_SH_T0_SI_T1_T2_
FNDA:0,_ZSt17__rotate_adaptiveIN9__gnu_cxx17__normal_iteratorIPPN7testing8TestInfoESt6vectorIS4_SaIS4_EEEES5_lET_SA_SA_SA_T1_SB_T0_SB_
FNDA:7,_ZSt16__merge_adaptiveIN9__gnu_cxx17__normal_iteratorIPPN7testing8TestInfoESt6vectorIS4_SaIS4_EEEElS5_NS0_5__ops15_Iter_comp_iterIZNS2_9TestSuite3RunEvEUlPKS3_SE_E_EEEvT_SH_SH_T0_SI_T1_T2_
FNDA:0,_ZSt23__merge_adaptive_resizeIN9__gnu_cxx17__normal_iteratorIPPN7testing8TestInfoESt6vectorIS4_SaIS4_EEEElS5_NS0_5__ops15_Iter_comp_iterIZNS2_9TestSuite3RunEvEUlPKS3_SE_E_EEEvT_SH_SH_T0_SI_T1_SI_T2_
FNDA:0,_ZSt22__merge_without_bufferIN9__gnu_cxx17__normal_iteratorIPPN7testing8TestInfoESt6vectorIS4_SaIS4_EEEElNS0_5__ops15_Iter_comp_iterIZNS2_9TestSuite3RunEvEUlPKS3_SE_E_EEEvT_SH_SH_T0_SI_T1_
FNDA:0,_ZSt12__move_mergeIN9__gnu_cxx17__normal_iteratorIPPN7testing8TestInfoESt6vectorIS4_SaIS4_EEEES5_NS0_5__ops15_Iter_comp_iterIZNS2_9TestSuite3RunEvEUlPKS3_SE_E_EEET0_T_SI_SI_SI_SH_T1_
FNDA:0,_ZSt12__move_mergeIPPN7testing8TestInfoEN9__gnu_cxx17__normal_iteratorIS3_St6vectorIS2_SaIS2_EEEENS4_5__ops15_Iter_comp_iterIZNS0_9TestSuite3RunEvEUlPKS1_SE_E_EEET0_T_SI_SI_SI_SH_T1_
FNDA:0,_ZSt17__merge_sort_loopIN9__gnu_cxx17__normal_iteratorIPPN7testing8TestInfoESt6vectorIS4_SaIS4_EEEES5_lNS0_5__ops15_Iter_comp_iterIZNS2_9TestSuite3RunEvEUlPKS3_SE_E_EEEvT_SH_T0_T1_T2_
FNDA:0,_ZSt17__merge_sort_loopIPPN7testing8TestInfoEN9__gnu_cxx17__normal_iteratorIS3_St6vectorIS2_SaIS2_EEEElNS4_5__ops15_Iter_comp_iterIZNS0_9TestSuite3RunEvEUlPKS1_SE_E_EEEvT_SH_T0_T1_T2_
FNDA:14,_ZSt22__chunk_insertion_sortIN9__gnu_cxx17__normal_iteratorIPPN7testing8TestInfoESt6vectorIS4_SaIS4_EEEElNS0_5__ops15_Iter_comp_iterIZNS2_9TestSuite3RunEvEUlPKS3_SE_E_EEEvT_SH_T0_T1_
FNDA:14,_ZSt24__merge_sort_with_bufferIN9__gnu_cxx17__normal_iteratorIPPN7testing8TestInfoESt6vectorIS4_SaIS4_EEEES5_NS0_5__ops15_Iter_comp_iterIZNS2_9TestSuite3RunEvEUlPKS3_SE_E_EEEvT_SH_T0_T1_
FNDA:7,_ZSt22__stable_sort_adaptiveIN9__gnu_cxx17__normal_iteratorIPPN7testing8TestInfoESt6vectorIS4_SaIS4_EEEES5_NS0_5__ops15_Iter_comp_iterIZNS2_9TestSuite3RunEvEUlPKS3_SE_E_EEEvT_SH_SH_T0_T1_
FNDA:0,_ZSt29__stable_sort_adaptive_resizeIN9__gnu_cxx17__normal_iteratorIPPN7testing8TestInfoESt6vectorIS4_SaIS4_EEEES5_lNS0_5__ops15_Iter_comp_iterIZNS2_9TestSuite3RunEvEUlPKS3_SE_E_EEEvT_SH_T0_T1_T2_
FNDA:0,_ZSt21__inplace_stable_sortIN9__gnu_cxx17__normal_iteratorIPPN7testing8TestInfoESt6vectorIS4_SaIS4_EEEENS0_5__ops15_Iter_comp_iterIZNS2_9TestSuite3RunEvEUlPKS3_SE_E_EEEvT_SH_T0_
FNDA:3,_ZSt8for_eachIN9__gnu_cxx17__normal_iteratorIPKPN7testing11EnvironmentESt6vectorIS4_SaIS4_EEEEPFvS4_EET0_T_SE_SD_
FNDA:1,_ZSt8for_eachIN9__gnu_cxx17__normal_iteratorIPKPN7testing17TestEventListenerESt6vectorIS4_SaIS4_EEEEPFvS4_EET0_T_SE_SD_
FNDA:14,_ZSt8for_eachIN9__gnu_cxx17__normal_iteratorIPKPN7testing8TestInfoESt6vectorIS4_SaIS4_EEEEPFvS4_EET0_T_SE_SD_
FNDA:2,_ZSt8for_eachIN9__gnu_cxx17__normal_iteratorIPKPN7testing9TestSuiteESt6vectorIS4_SaIS4_EEEEPFvS4_EET0_T_SE_SD_
FNDA:1,_ZSt8for_eachISt16reverse_iteratorIN9__gnu_cxx17__normal_iteratorIPPN7testing11EnvironmentESt6vectorIS5_SaIS5_EEEEEPFvS5_EET0_T_SF_SE_
FNDA:0,_ZSt4findIN9__gnu_cxx17__normal_iteratorIPKNSt7__cxx1112basic_stringIcSt11char_traitsIcESaIcEEESt6vectorIS7_SaIS7_EEEES7_ET_SE_SE_RKT0_
FNDA:37,_ZSt7find_ifIN9__gnu_cxx17__normal_iteratorIPKNSt7__cxx1112basic_stringIcSt11char_traitsIcESaIcEEESt6vectorIS7_SaIS7_EEEEZNK7testing8internal12_GLOBAL__N_114UnitTestFilter11MatchesNameERS8_EUlSI_E_ET_SK_SK_T0_
FNDA:18,_ZSt7find_ifIN9__gnu_cxx17__normal_iteratorIPKcNSt7__cxx1112basic_stringIcSt11char_traitsIcESaIcEEEEEZN7testing8internal12_GLOBAL__N_113IsGlobPatternERKS9_EUlcE_ET_SH_SH_T0_
FNDA:0,_ZSt7find_ifIN9__gnu_cxx17__normal_iteratorIPN7testing12TestPropertyESt6vectorIS3_SaIS3_EEEENS2_8internal17TestPropertyKeyIsEET_SB_SB_T0_
FNDA:10,_ZSt9partitionIN9__gnu_cxx17__normal_iteratorIPNSt7__cxx1112basic_stringIcSt11char_traitsIcESaIcEEESt6vectorIS7_SaIS7_EEEEPFbRKS7_EET_SH_SH_T0_
FNDA:37,_ZSt7none_ofIN9__gnu_cxx17__normal_iteratorIPKNSt7__cxx1112basic_stringIcSt11char_traitsIcESaIcEEESt6vectorIS7_SaIS7_EEEEZNK7testing8internal12_GLOBAL__N_114UnitTestFilter11MatchesNameERS8_EUlSI_E_EbT_SK_T0_
FNDA:18,_ZSt7none_ofIN9__gnu_cxx17__normal_iteratorIPKcNSt7__cxx1112basic_stringIcSt11char_traitsIcESaIcEEEEEZN7testing8internal12_GLOBAL__N_113IsGlobPatternERKS9_EUlcE_EbT_SH_T0_
FNDA:37,_ZSt6any_ofIN9__gnu_cxx17__normal_iteratorIPKNSt7__cxx1112basic_stringIcSt11char_traitsIcESaIcEEESt6vectorIS7_SaIS7_EEEEZNK7testing8internal12_GLOBAL__N_114UnitTestFilter11MatchesNameERS8_EUlSI_E_EbT_SK_T0_
FNDA:18,_ZSt6any_ofIN9__gnu_cxx17__normal_iteratorIPKcNSt7__cxx1112basic_stringIcSt11char_traitsIcESaIcEEEEEZN7testing8internal12_GLOBAL__N_113IsGlobPatternERKS9_EUlcE_EbT_SH_T0_
FNDA:7,_ZSt13__stable_sortIN9__gnu_cxx17__normal_iteratorIPPN7testing8TestInfoESt6vectorIS4_SaIS4_EEEENS0_5__ops15_Iter_comp_iterIZNS2_9TestSuite3RunEvEUlPKS3_SE_E_EEEvT_SH_T0_
FNDA:7,_ZSt11stable_sortIN9__gnu_cxx17__normal_iteratorIPPN7testing8TestInfoESt6vectorIS4_SaIS4_EEEEZNS2_9TestSuite3RunEvEUlPKS3_SC_E_EvT_SE_T0_
FNF:39
FNH:21
DA:476,55
DA:477,55
DA:495,55
DA:496,55
DA:1102,0
DA:1105,0
DA:1106,0
DA:1107,0
DA:1108,0
DA:1110,0
DA:1111,0
DA:1112,0
DA:1131,0
DA:1137,0
DA:1138,0
DA:1283,0
DA:1292,0
DA:1293,0
DA:1294,0
DA:1295,0
DA:1302,0
DA:1303,0
DA:1305,0
DA:1307,0
DA:1308,0
DA:1311,0
DA:1312,0
DA:1314,0
DA:1316,0
DA:1318,0
DA:1320,0
DA:1321,0
DA:1322,0
DA:1323,0
DA:1325,0
DA:1326,0
DA:1328,0
DA:1329,0
DA:1330,0
DA:1332,0
DA:1333,0
DA:1334,0
DA:1335,0
DA:1336,0
DA:1340,0
DA:1341,0
DA:1343,0
DA:1344,0
DA:1345,0
DA:1346,0
DA:1348,0
DA:1349,0
DA:1350,0
DA:1352,0
DA:1353,0
DA:1354,0
DA:1356,0
DA:1357,0
DA:1358,0
DA:1359,0
DA:1390,0
DA:1399,0
DA:1400,0
DA:1472,10
DA:1475,0
DA:1478,46
DA:1479,10
DA:1480,18
DA:1481,18
DA:1483,0
DA:1484,0
DA:1486,0
DA:1487,0
DA:1488,0
DA:1489,0
DA:1491,0
DA:1492,0
DA:1493,0
DA:1792,0
DA:1796,0
DA:1797,0
DA:1798,0
DA:1799,0
DA:1801,0
DA:1802,0
DA:1803,0
DA:1805,0
DA:1806,0
DA:1812,14
DA:1815,14
DA:1817,7
DA:1819,0
DA:1822,0
DA:1823,0
DA:1824,0
DA:1827,0
DA:2022,0
DA:2028,0
DA:2030,0
DA:2032,0
DA:2033,0
DA:2035,0
DA:2036,0
DA:2039,0
DA:2040,0
DA:2041,0
DA:2044,0
DA:2294,0
DA:2298,0
DA:2300,0
DA:2302,0
DA:2303,0
DA:2307,0
DA:2308,0
DA:2310,0
DA:2312,0
DA:2313,0
DA:2314,0
DA:2320,7
DA:2327,7
DA:2329,0
DA:2330,0
DA:2332,7
DA:2333,7
DA:2335,0
DA:2336,0
DA:2339,0
DA:2341,0
DA:2342,0
DA:2344,0
DA:2345,0
DA:2347,0
DA:2351,0
DA:2352,0
DA:2353,0
DA:2354,0
DA:2363,0
DA:2371,0
DA:2373,0
DA:2375,0
DA:2376,0
DA:2377,0
DA:2380,0
DA:2382,0
DA:2384,0
DA:2386,0
DA:2387,0
DA:2388,0
DA:2391,0
DA:2394,0
DA:2401,7
DA:2407,7
DA:2409,0
DA:2410,0
DA:2415,7
DA:2416,7
DA:2419,7
DA:2424,0
DA:2431,0
DA:2432,0
DA:2436,0
DA:2437,0
DA:2438,0
DA:2439,0
DA:2440,0
DA:2442,0
DA:2445,0
DA:2447,0
DA:2451,0
DA:2454,0
DA:2456,0
DA:2460,0
DA:2463,0
DA:2466,0
DA:2471,0
DA:2477,0
DA:2483,0
DA:2484,0
DA:2486,0
DA:2488,0
DA:2489,0
DA:2490,0
DA:2493,0
DA:2494,0
DA:2495,0
DA:2496,0
DA:2497,0
DA:2499,0
DA:2502,0
DA:2504,0
DA:2508,0
DA:2511,0
DA:2513,0
DA:2517,0
DA:2518,0
DA:2520,0
DA:2649,0
DA:2653,0
DA:2655,0
DA:2657,0
DA:2658,0
DA:2662,0
DA:2663,0
DA:2665,0
DA:2667,0
DA:2675,0
DA:2680,0
DA:2682,0
DA:2684,0
DA:2685,0
DA:2686,0
DA:2688,0
DA:2690,0
DA:2692,0
DA:2693,0
DA:2694,0
DA:2700,14
DA:2704,14
DA:2706,0
DA:2707,0
DA:2709,14
DA:2710,14
DA:2716,14
DA:2723,14
DA:2724,14
DA:2726,14
DA:2727,14
DA:2729,14
DA:2731,0
DA:2733,0
DA:2734,0
DA:2736,0
DA:2738,14
DA:2742,7
DA:2747,7
DA:2748,7
DA:2750,7
DA:2753,7
DA:2758,0
DA:2763,0
DA:2764,0
DA:2765,0
DA:2767,0
DA:2769,0
DA:2771,0
DA:2772,0
DA:2773,0
DA:2778,0
DA:2780,0
DA:2785,0
DA:2788,0
DA:2790,0
DA:2791,0
DA:2793,0
DA:2794,0
DA:2795,0
DA:2796,0
DA:3827,21
DA:3832,50
DA:3833,29
DA:3834,21
DA:3889,0
DA:3897,0
DA:3898,0
DA:3914,55
DA:3923,55
DA:3924,55
DA:4662,10
DA:4672,10
DA:4673,10
DA:5023,7
DA:5031,7
DA:5032,0
DA:5038,7
DA:5040,7
DA:5041,14
DA:5042,7
DA:5044,0
DA:5045,0
DA:5047,0
DA:5048,0
DA:5052,7
DA:5107,7
DA:5119,7
DA:5121,7
LF:285
LH:57
end_of_record
TN:
SF:/usr/include/c++/13/bits/stl_algobase.h
FN:1000,1008,_ZSt4fillIN9__gnu_cxx17__normal_iteratorIP9HashEntrySt6vectorIS2_SaIS2_EEEES2_EvT_S8_RKT0_
FN:1018,1018,_ZSt17__size_to_integerm
FN:1117,1130,_ZSt10__fill_n_aIP9HashEntrymS0_ET_S2_T0_RKT1_St26random_access_iterator_tag
FN:1117,1130,_ZSt10__fill_n_aIPN7testing8internal13edit_distance8EditTypeEmS3_ET_S5_T0_RKT1_St26random_access_iterator_tag
FN:1117,1130,_ZSt10__fill_n_aIPdmdET_S1_T0_RKT1_St26random_access_iterator_tag
FN:1152,1159,_ZSt6fill_nIP9HashEntrymS0_ET_S2_T0_RKT1_
FN:1152,1159,_ZSt6fill_nIPN7testing8internal13edit_distance8EditTypeEmS3_ET_S5_T0_RKT1_
FN:1152,1159,_ZSt6fill_nIPdmdET_S1_T0_RKT1_
FN:1459,1482,_ZSt13__lower_boundIN9__gnu_cxx17__normal_iteratorIPPN7testing8TestInfoESt6vectorIS4_SaIS4_EEEES4_NS0_5__ops14_Iter_comp_valIZNS2_9TestSuite3RunEvEUlPKS3_SE_E_EEET_SH_SH_RKT0_T1_
FN:155,187,_ZSt9iter_swapIN9__gnu_cxx17__normal_iteratorIPN7testing8internal13edit_distance8EditTypeESt6vectorIS5_SaIS5_EEEESA_EvT_T0_
FN:155,187,_ZSt9iter_swapIN9__gnu_cxx17__normal_iteratorIPNSt7__cxx1112basic_stringIcSt11char_traitsIcESaIcEEESt6vectorIS7_SaIS7_EEEESC_EvT_T0_
FN:155,187,_ZSt9iter_swapIN9__gnu_cxx17__normal_iteratorIPPN7testing8TestInfoESt6vectorIS4_SaIS4_EEEES9_EvT_T0_
FN:204,217,_ZSt11swap_rangesIN9__gnu_cxx17__normal_iteratorIPPN7testing8TestInfoESt6vectorIS4_SaIS4_EEEES9_ET0_T_SB_SA_
FN:2064,2110,_ZSt9__find_ifIN9__gnu_cxx17__normal_iteratorIPKNSt7__cxx1112basic_stringIcSt11char_traitsIcESaIcEEESt6vectorIS7_SaIS7_EEEENS0_5__ops10_Iter_predIZNK7testing8internal12_GLOBAL__N_114UnitTestFilter11MatchesNameERS8_EUlSK_E_EEET_SN_SN_T0_St26random_access_iterator_tag
FN:2064,2110,_ZSt9__find_ifIN9__gnu_cxx17__normal_iteratorIPKNSt7__cxx1112basic_stringIcSt11char_traitsIcESaIcEEESt6vectorIS7_SaIS7_EEEENS0_5__ops16_Iter_equals_valIS8_EEET_SH_SH_T0_St26random_access_iterator_tag
FN:2064,2110,_ZSt9__find_ifIN9__gnu_cxx17__normal_iteratorIPKcNSt7__cxx1112basic_stringIcSt11char_traitsIcESaIcEEEEENS0_5__ops10_Iter_predIZN7testing8internal12_GLOBAL__N_113IsGlobPatternERKS9_EUlcE_EEET_SK_SK_T0_St26random_access_iterator_tag
FN:2064,2110,_ZSt9__find_ifIN9__gnu_cxx17__normal_iteratorIPN7testing12TestPropertyESt6vectorIS3_SaIS3_EEEENS0_5__ops10_Iter_predINS2_8internal17TestPropertyKeyIsEEEET_SE_SE_T0_St26random_access_iterator_tag
FN:2115,2119,_ZSt9__find_ifIN9__gnu_cxx17__normal_iteratorIPKNSt7__cxx1112basic_stringIcSt11char_traitsIcESaIcEEESt6vectorIS7_SaIS7_EEEENS0_5__ops10_Iter_predIZNK7testing8internal12_GLOBAL__N_114UnitTestFilter11MatchesNameERS8_EUlSK_E_EEET_SN_SN_T0_
FN:2115,2119,_ZSt9__find_ifIN9__gnu_cxx17__normal_iteratorIPKNSt7__cxx1112basic_stringIcSt11char_traitsIcESaIcEEESt6vectorIS7_SaIS7_EEEENS0_5__ops16_Iter_equals_valIS8_EEET_SH_SH_T0_
FN:2115,2119,_ZSt9__find_ifIN9__gnu_cxx17__normal_iteratorIPKcNSt7__cxx1112basic_stringIcSt11char_traitsIcESaIcEEEEENS0_5__ops10_Iter_predIZN7testing8internal12_GLOBAL__N_113IsGlobPatternERKS9_EUlcE_EEET_SK_SK_T0_
FN:2115,2119,_ZSt9__find_ifIN9__gnu_cxx17__normal_iteratorIPN7testing12TestPropertyESt6vectorIS3_SaIS3_EEEENS0_5__ops10_Iter_predINS2_8internal17TestPropertyKeyIsEEEET_SE_SE_T0_
FN:233,241,_ZSt3minIdERKT_S2_S2_
FN:233,241,_ZSt3minIlERKT_S2_S2_
FN:233,241,_ZSt3minImERKT_S2_S2_
FN:257,265,_ZSt3maxImERKT_S2_S2_
FN:316,318,_ZSt12__niter_baseIP9HashEntryET_S2_
FN:316,318,_ZSt12__niter_baseIPN7testing12TestPropertyEET_S3_
FN:316,318,_ZSt12__niter_baseIPN7testing14TestPartResultEET_S3_
FN:316,318,_ZSt12__niter_baseIPN7testing8internal13edit_distance8EditTypeEET_S5_
FN:316,318,_ZSt12__niter_baseIPN7testing8internal9TraceInfoEET_S4_
FN:316,318,_ZSt12__niter_baseIPNSt7__cxx1112basic_stringIcSt11char_traitsIcESaIcEEEET_S7_
FN:316,318,_ZSt12__niter_baseIPPN7testing11EnvironmentEET_S4_
FN:316,318,_ZSt12__niter_baseIPPN7testing17TestEventListenerEET_S4_
FN:316,318,_ZSt12__niter_baseIPPN7testing8TestInfoEET_S4_
FN:316,318,_ZSt12__niter_baseIPPN7testing9TestSuiteEET_S4_
FN:316,318,_ZSt12__niter_baseIPPP8TreeNodeET_S4_
FN:316,318,_ZSt12__niter_baseIPPcET_S2_
FN:316,318,_ZSt12__niter_baseIPdET_S1_
FN:316,318,_ZSt12__niter_baseIPiET_S1_
FN:316,318,_ZSt12__niter_baseIPmET_S1_
FN:316,318,_ZSt12__niter_baseISt15insert_iteratorISt13unordered_setINSt7__cxx1112basic_stringIcSt11char_traitsIcESaIcEEESt4hashIS7_ESt8equal_toIS7_ESaIS7_EEEET_SF_
FN:316,318,_ZSt12__niter_baseISt15insert_iteratorISt6vectorINSt7__cxx1112basic_stringIcSt11char_traitsIcESaIcEEESaIS7_EEEET_SB_
FN:331,332,_ZSt12__niter_wrapIN9__gnu_cxx17__normal_iteratorIPPN7testing17TestEventListenerESt6vectorIS4_SaIS4_EEEES5_ET_SA_T0_
FN:331,332,_ZSt12__niter_wrapIN9__gnu_cxx17__normal_iteratorIPPN7testing8TestInfoESt6vectorIS4_SaIS4_EEEES5_ET_SA_T0_
FN:338,339,_ZSt12__niter_wrapIPN7testing8internal13edit_distance8EditTypeEET_RKS5_S5_
FN:338,339,_ZSt12__niter_wrapIPNSt7__cxx1112basic_stringIcSt11char_traitsIcESaIcEEEET_RKS7_S7_
FN:338,339,_ZSt12__niter_wrapIPPN7testing8TestInfoEET_RKS4_S4_
FN:338,339,_ZSt12__niter_wrapIPPN7testing9TestSuiteEET_RKS4_S4_
FN:338,339,_ZSt12__niter_wrapIPPP8TreeNodeET_RKS4_S4_
FN:338,339,_ZSt12__niter_wrapIPdET_RKS1_S1_
FN:338,339,_ZSt12__niter_wrapISt15insert_iteratorISt13unordered_setINSt7__cxx1112basic_stringIcSt11char_traitsIcESaIcEEESt4hashIS7_ESt8equal_toIS7_ESaIS7_EEEET_RKSF_SF_
FN:338,339,_ZSt12__niter_wrapISt15insert_iteratorISt6vectorINSt7__cxx1112basic_stringIcSt11char_traitsIcESaIcEEESaIS7_EEEET_RKSB_SB_
FN:397,398,_ZNSt11__copy_moveILb0ELb0ESt26random_access_iterator_tagE12__assign_oneIN7testing8internal13edit_distance8EditTypeEKS6_EEvPT_PT0_
FN:397,398,_ZNSt11__copy_moveILb0ELb0ESt26random_access_iterator_tagE12__assign_oneIPP8TreeNodeS5_EEvPT_PT0_
FN:397,398,_ZNSt11__copy_moveILb0ELb0ESt26random_access_iterator_tagE12__assign_oneIdKdEEvPT_PT0_
FN:408,418,_ZNSt11__copy_moveILb1ELb0ESt26random_access_iterator_tagE8__copy_mIPNSt7__cxx1112basic_stringIcSt11char_traitsIcESaIcEEESt15insert_iteratorISt13unordered_setIS8_St4hashIS8_ESt8equal_toIS8_ESaIS8_EEEEET0_T_SK_SJ_
FN:408,418,_ZNSt11__copy_moveILb1ELb0ESt26random_access_iterator_tagE8__copy_mIPNSt7__cxx1112basic_stringIcSt11char_traitsIcESaIcEEESt15insert_iteratorISt6vectorIS8_SaIS8_EEEEET0_T_SG_SF_
FN:422,423,_ZNSt11__copy_moveILb1ELb0ESt26random_access_iterator_tagE12__assign_oneIPN7testing17TestEventListenerES5_EEvPT_PT0_
FN:422,423,_ZNSt11__copy_moveILb1ELb0ESt26random_access_iterator_tagE12__assign_oneIPN7testing8TestInfoES5_EEvPT_PT0_
FN:422,423,_ZNSt11__copy_moveILb1ELb0ESt26random_access_iterator_tagE12__assign_oneIPN7testing9TestSuiteES5_EEvPT_PT0_
FN:433,442,_ZNSt11__copy_moveILb0ELb1ESt26random_access_iterator_tagE8__copy_mIKN7testing8internal13edit_distance8EditTypeES6_EEPT0_PT_SB_S9_
FN:433,442,_ZNSt11__copy_moveILb0ELb1ESt26random_access_iterator_tagE8__copy_mIKddEEPT0_PT_S7_S5_
FN:433,442,_ZNSt11__copy_moveILb0ELb1ESt26random_access_iterator_tagE8__copy_mIPP8TreeNodeS5_EEPT0_PT_S9_S7_
FN:433,442,_ZNSt11__copy_moveILb1ELb1ESt26random_access_iterator_tagE8__copy_mIPN7testing17TestEventListenerES5_EEPT0_PT_S9_S7_
FN:433,442,_ZNSt11__copy_moveILb1ELb1ESt26random_access_iterator_tagE8__copy_mIPN7testing8TestInfoES5_EEPT0_PT_S9_S7_
FN:497,507,_ZSt14__copy_move_a2ILb0EPKN7testing8internal13edit_distance8EditTypeEPS3_ET1_T0_S8_S7_
FN:497,507,_ZSt14__copy_move_a2ILb0EPKdPdET1_T0_S4_S3_
FN:497,507,_ZSt14__copy_move_a2ILb0EPPP8TreeNodeS3_ET1_T0_S5_S4_
FN:497,507,_ZSt14__copy_move_a2ILb1EPNSt7__cxx1112basic_stringIcSt11char_traitsIcESaIcEEESt15insert_iteratorISt13unordered_setIS5_St4hashIS5_ESt8equal_toIS5_ESaIS5_EEEET1_T0_SH_SG_
FN:497,507,_ZSt14__copy_move_a2ILb1EPNSt7__cxx1112basic_stringIcSt11char_traitsIcESaIcEEESt15insert_iteratorISt6vectorIS5_SaIS5_EEEET1_T0_SD_SC_
FN:497,507,_ZSt14__copy_move_a2ILb1EPPN7testing17TestEventListenerES3_ET1_T0_S5_S4_
FN:497,507,_ZSt14__copy_move_a2ILb1EPPN7testing8TestInfoES3_ET1_T0_S5_S4_
FN:532,533,_ZSt14__copy_move_a1ILb0EPKN7testing8internal13edit_distance8EditTypeEPS3_ET1_T0_S8_S7_
FN:532,533,_ZSt14__copy_move_a1ILb0EPKdPdET1_T0_S4_S3_
FN:532,533,_ZSt14__copy_move_a1ILb0EPPP8TreeNodeS3_ET1_T0_S5_S4_
FN:532,533,_ZSt14__copy_move_a1ILb1EPNSt7__cxx1112basic_stringIcSt11char_traitsIcESaIcEEESt15insert_iteratorISt13unordered_setIS5_St4hashIS5_ESt8equal_toIS5_ESaIS5_EEEET1_T0_SH_SG_
FN:532,533,_ZSt14__copy_move_a1ILb1EPNSt7__cxx1112basic_stringIcSt11char_traitsIcESaIcEEESt15insert_iteratorISt6vectorIS5_SaIS5_EEEET1_T0_SD_SC_
FN:532,533,_ZSt14__copy_move_a1ILb1EPPN7testing17TestEventListenerES3_ET1_T0_S5_S4_
FN:532,533,_ZSt14__copy_move_a1ILb1EPPN7testing8TestInfoES3_ET1_T0_S5_S4_
FN:538,544,_ZSt13__copy_move_aILb0EN9__gnu_cxx17__normal_iteratorIPKN7testing8internal13edit_distance8EditTypeESt6vectorIS5_SaIS5_EEEEPS5_ET1_T0_SE_SD_
FN:538,544,_ZSt13__copy_move_aILb0EN9__gnu_cxx17__normal_iteratorIPKdSt6vectorIdSaIdEEEEPdET1_T0_SA_S9_
FN:538,544,_ZSt13__copy_move_aILb0EPPP8TreeNodeS3_ET1_T0_S5_S4_
FN:538,544,_ZSt13__copy_move_aILb1EN9__gnu_cxx17__normal_iteratorIPNSt7__cxx1112basic_stringIcSt11char_traitsIcESaIcEEESt6vectorIS7_SaIS7_EEEESt15insert_iteratorISB_EET1_T0_SG_SF_
FN:538,544,_ZSt13__copy_move_aILb1EN9__gnu_cxx17__normal_iteratorIPNSt7__cxx1112basic_stringIcSt11char_traitsIcESaIcEEESt6vectorIS7_SaIS7_EEEESt15insert_iteratorISt13unordered_setIS7_St4hashIS7_ESt8equal_toIS7_ESA_EEET1_T0_SM_SL_
FN:538,544,_ZSt13__copy_move_aILb1EN9__gnu_cxx17__normal_iteratorIPPN7testing17TestEventListenerESt6vectorIS4_SaIS4_EEEES9_ET1_T0_SB_SA_
FN:538,544,_ZSt13__copy_move_aILb1EN9__gnu_cxx17__normal_iteratorIPPN7testing8TestInfoESt6vectorIS4_SaIS4_EEEES5_ET1_T0_SB_SA_
FN:538,544,_ZSt13__copy_move_aILb1EN9__gnu_cxx17__normal_iteratorIPPN7testing8TestInfoESt6vectorIS4_SaIS4_EEEES9_ET1_T0_SB_SA_
FN:538,544,_ZSt13__copy_move_aILb1EPPN7testing8TestInfoEN9__gnu_cxx17__normal_iteratorIS3_St6vectorIS2_SaIS2_EEEEET1_T0_SB_SA_
FN:624,634,_ZSt4copyIN9__gnu_cxx17__normal_iteratorIPKN7testing8internal13edit_distance8EditTypeESt6vectorIS5_SaIS5_EEEEPS5_ET0_T_SE_SD_
FN:624,634,_ZSt4copyIN9__gnu_cxx17__normal_iteratorIPKdSt6vectorIdSaIdEEEEPdET0_T_SA_S9_
FN:624,634,_ZSt4copyIPPP8TreeNodeS3_ET0_T_S5_S4_
FN:657,667,_ZSt4moveIN9__gnu_cxx17__normal_iteratorIPNSt7__cxx1112basic_stringIcSt11char_traitsIcESaIcEEESt6vectorIS7_SaIS7_EEEESt15insert_iteratorISB_EET0_T_SG_SF_
FN:657,667,_ZSt4moveIN9__gnu_cxx17__normal_iteratorIPNSt7__cxx1112basic_stringIcSt11char_traitsIcESaIcEEESt6vectorIS7_SaIS7_EEEESt15insert_iteratorISt13unordered_setIS7_St4hashIS7_ESt8equal_toIS7_ESA_EEET0_T_SM_SL_
FN:657,667,_ZSt4moveIN9__gnu_cxx17__normal_iteratorIPPN7testing17TestEventListenerESt6vectorIS4_SaIS4_EEEES9_ET0_T_SB_SA_
FN:657,667,_ZSt4moveIN9__gnu_cxx17__normal_iteratorIPPN7testing8TestInfoESt6vectorIS4_SaIS4_EEEES5_ET0_T_SB_SA_
FN:657,667,_ZSt4moveIN9__gnu_cxx17__normal_iteratorIPPN7testing8TestInfoESt6vectorIS4_SaIS4_EEEES9_ET0_T_SB_SA_
FN:657,667,_ZSt4moveIPPN7testing8TestInfoEN9__gnu_cxx17__normal_iteratorIS3_St6vectorIS2_SaIS2_EEEEET0_T_SB_SA_
FN:727,734,_ZNSt20__copy_move_backwardILb1ELb0ESt26random_access_iterator_tagE13__copy_move_bIPNSt7__cxx1112basic_stringIcSt11char_traitsIcESaIcEEES9_EET0_T_SB_SA_
FN:744,753,_ZNSt20__copy_move_backwardILb0ELb1ESt26random_access_iterator_tagE13__copy_move_bIPP8TreeNodeS5_EEPT0_PT_S9_S7_
FN:744,753,_ZNSt20__copy_move_backwardILb1ELb1ESt26random_access_iterator_tagE13__copy_move_bIPN7testing8TestInfoES5_EEPT0_PT_S9_S7_
FN:744,753,_ZNSt20__copy_move_backwardILb1ELb1ESt26random_access_iterator_tagE13__copy_move_bIPN7testing9TestSuiteES5_EEPT0_PT_S9_S7_
FN:759,772,_ZSt23__copy_move_backward_a2ILb0EPPP8TreeNodeS3_ET1_T0_S5_S4_
FN:759,772,_ZSt23__copy_move_backward_a2ILb1EPNSt7__cxx1112basic_stringIcSt11char_traitsIcESaIcEEES6_ET1_T0_S8_S7_
FN:759,772,_ZSt23__copy_move_backward_a2ILb1EPPN7testing8TestInfoES3_ET1_T0_S5_S4_
FN:759,772,_ZSt23__copy_move_backward_a2ILb1EPPN7testing9TestSuiteES3_ET1_T0_S5_S4_
FN:777,778,_ZSt23__copy_move_backward_a1ILb0EPPP8TreeNodeS3_ET1_T0_S5_S4_
FN:777,778,_ZSt23__copy_move_backward_a1ILb1EPNSt7__cxx1112basic_stringIcSt11char_traitsIcESaIcEEES6_ET1_T0_S8_S7_
FN:777,778,_ZSt23__copy_move_backward_a1ILb1EPPN7testing8TestInfoES3_ET1_T0_S5_S4_
FN:777,778,_ZSt23__copy_move_backward_a1ILb1EPPN7testing9TestSuiteES3_ET1_T0_S5_S4_
FN:805,811,_ZSt22__copy_move_backward_aILb0EPPP8TreeNodeS3_ET1_T0_S5_S4_
FN:805,811,_ZSt22__copy_move_backward_aILb1EN9__gnu_cxx17__normal_iteratorIPPN7testing8TestInfoESt6vectorIS4_SaIS4_EEEES9_ET1_T0_SB_SA_
FN:805,811,_ZSt22__copy_move_backward_aILb1EPNSt7__cxx1112basic_stringIcSt11char_traitsIcESaIcEEES6_ET1_T0_S8_S7_
FN:805,811,_ZSt22__copy_move_backward_aILb1EPPN7testing8TestInfoEN9__gnu_cxx17__normal_iteratorIS3_St6vectorIS2_SaIS2_EEEEET1_T0_SB_SA_
FN:805,811,_ZSt22__copy_move_backward_aILb1EPPN7testing9TestSuiteES3_ET1_T0_S5_S4_
FN:857,868,_ZSt13copy_backwardIPPP8TreeNodeS3_ET0_T_S5_S4_
FN:892,904,_ZSt13move_backwardIN9__gnu_cxx17__normal_iteratorIPPN7testing8TestInfoESt6vectorIS4_SaIS4_EEEES9_ET0_T_SB_SA_
FN:892,904,_ZSt13move_backwardIPNSt7__cxx1112basic_stringIcSt11char_traitsIcESaIcEEES6_ET0_T_S8_S7_
FN:892,904,_ZSt13move_backwardIPPN7testing8TestInfoEN9__gnu_cxx17__normal_iteratorIS3_St6vectorIS2_SaIS2_EEEEET0_T_SB_SA_
FN:892,904,_ZSt13move_backwardIPPN7testing9TestSuiteES3_ET0_T_S5_S4_
FN:915,920,_ZSt9__fill_a1IP9HashEntryS0_EN9__gnu_cxx11__enable_ifIXntsrSt11__is_scalarIT0_E7__valueEvE6__typeET_S9_RKS5_
FN:915,920,_ZSt9__fill_a1IPN7testing8internal13edit_distance8EditTypeES3_EN9__gnu_cxx11__enable_ifIXntsrSt11__is_scalarIT0_E7__valueEvE6__typeET_SC_RKS8_
FN:926,932,_ZSt9__fill_a1IPddEN9__gnu_cxx11__enable_ifIXsrSt11__is_scalarIT0_E7__valueEvE6__typeET_S8_RKS4_
FN:957,960,_ZSt9__fill_a1IP9HashEntrySt6vectorIS0_SaIS0_EES0_EvN9__gnu_cxx17__normal_iteratorIT_T0_EES9_RKT1_
FN:976,977,_ZSt8__fill_aIN9__gnu_cxx17__normal_iteratorIP9HashEntrySt6vectorIS2_SaIS2_EEEES2_EvT_S8_RKT0_
FN:976,977,_ZSt8__fill_aIP9HashEntryS0_EvT_S2_RKT0_
FN:976,977,_ZSt8__fill_aIPN7testing8internal13edit_distance8EditTypeES3_EvT_S5_RKT0_
FN:976,977,_ZSt8__fill_aIPddEvT_S1_RKT0_
FNDA:0,_ZSt4fillIN9__gnu_cxx17__normal_iteratorIP9HashEntrySt6vectorIS2_SaIS2_EEEES2_EvT_S8_RKT0_
FNDA:1,_ZSt17__size_to_integerm
FNDA:1,_ZSt10__fill_n_aIP9HashEntrymS0_ET_S2_T0_RKT1_St26random_access_iterator_tag
FNDA:0,_ZSt10__fill_n_aIPN7testing8internal13edit_distance8EditTypeEmS3_ET_S5_T0_RKT1_St26random_access_iterator_tag
FNDA:0,_ZSt10__fill_n_aIPdmdET_S1_T0_RKT1_St26random_access_iterator_tag
FNDA:1,_ZSt6fill_nIP9HashEntrymS0_ET_S2_T0_RKT1_
FNDA:0,_ZSt6fill_nIPN7testing8internal13edit_distance8EditTypeEmS3_ET_S5_T0_RKT1_
FNDA:0,_ZSt6fill_nIPdmdET_S1_T0_RKT1_
FNDA:0,_ZSt13__lower_boundIN9__gnu_cxx17__normal_iteratorIPPN7testing8TestInfoESt6vectorIS4_SaIS4_EEEES4_NS0_5__ops14_Iter_comp_valIZNS2_9TestSuite3RunEvEUlPKS3_SE_E_EEET_SH_SH_RKT0_T1_
FNDA:0,_ZSt9iter_swapIN9__gnu_cxx17__normal_iteratorIPN7testing8internal13edit_distance8EditTypeESt6vectorIS5_SaIS5_EEEESA_EvT_T0_
FNDA:0,_ZSt9iter_swapIN9__gnu_cxx17__normal_iteratorIPNSt7__cxx1112basic_stringIcSt11char_traitsIcESaIcEEESt6vectorIS7_SaIS7_EEEESC_EvT_T0_
FNDA:0,_ZSt9iter_swapIN9__gnu_cxx17__normal_iteratorIPPN7testing8TestInfoESt6vectorIS4_SaIS4_EEEES9_EvT_T0_
FNDA:0,_ZSt11swap_rangesIN9__gnu_cxx17__normal_iteratorIPPN7testing8TestInfoESt6vectorIS4_SaIS4_EEEES9_ET0_T_SB_SA_
FNDA:37,_ZSt9__find_ifIN9__gnu_cxx17__normal_iteratorIPKNSt7__cxx1112basic_stringIcSt11char_traitsIcESaIcEEESt6vectorIS7_SaIS7_EEEENS0_5__ops10_Iter_predIZNK7testing8internal12_GLOBAL__N_114UnitTestFilter11MatchesNameERS8_EUlSK_E_EEET_SN_SN_T0_St26random_access_iterator_tag
FNDA:0,_ZSt9__find_ifIN9__gnu_cxx17__normal_iteratorIPKNSt7__cxx1112basic_stringIcSt11char_traitsIcESaIcEEESt6vectorIS7_SaIS7_EEEENS0_5__ops16_Iter_equals_valIS8_EEET_SH_SH_T0_St26random_access_iterator_tag
FNDA:18,_ZSt9__find_ifIN9__gnu_cxx17__normal_iteratorIPKcNSt7__cxx1112basic_stringIcSt11char_traitsIcESaIcEEEEENS0_5__ops10_Iter_predIZN7testing8internal12_GLOBAL__N_113IsGlobPatternERKS9_EUlcE_EEET_SK_SK_T0_St26random_access_iterator_tag
FNDA:0,_ZSt9__find_ifIN9__gnu_cxx17__normal_iteratorIPN7testing12TestPropertyESt6vectorIS3_SaIS3_EEEENS0_5__ops10_Iter_predINS2_8internal17TestPropertyKeyIsEEEET_SE_SE_T0_St26random_access_iterator_tag
FNDA:37,_ZSt9__find_ifIN9__gnu_cxx17__normal_iteratorIPKNSt7__cxx1112basic_stringIcSt11char_traitsIcESaIcEEESt6vectorIS7_SaIS7_EEEENS0_5__ops10_Iter_predIZNK7testing8internal12_GLOBAL__N_114UnitTestFilter11MatchesNameERS8_EUlSK_E_EEET_SN_SN_T0_
FNDA:0,_ZSt9__find_ifIN9__gnu_cxx17__normal_iteratorIPKNSt7__cxx1112basic_stringIcSt11char_traitsIcESaIcEEESt6vectorIS7_SaIS7_EEEENS0_5__ops16_Iter_equals_valIS8_EEET_SH_SH_T0_
FNDA:18,_ZSt9__find_ifIN9__gnu_cxx17__normal_iteratorIPKcNSt7__cxx1112basic_stringIcSt11char_traitsIcESaIcEEEEENS0_5__ops10_Iter_predIZN7testing8internal12_GLOBAL__N_113IsGlobPatternERKS9_EUlcE_EEET_SK_SK_T0_
FNDA:0,_ZSt9__find_ifIN9__gnu_cxx17__normal_iteratorIPN7testing12TestPropertyESt6vectorIS3_SaIS3_EEEENS0_5__ops10_Iter_predINS2_8internal17TestPropertyKeyIsEEEET_SE_SE_T0_
FNDA:0,_ZSt3minIdERKT_S2_S2_
FNDA:0,_ZSt3minIlERKT_S2_S2_
FNDA:118,_ZSt3minImERKT_S2_S2_
FNDA:62,_ZSt3maxImERKT_S2_S2_
FNDA:6,_ZSt12__niter_baseIP9HashEntryET_S2_
FNDA:0,_ZSt12__niter_baseIPN7testing12TestPropertyEET_S3_
FNDA:12,_ZSt12__niter_baseIPN7testing14TestPartResultEET_S3_
FNDA:0,_ZSt12__niter_baseIPN7testing8internal13edit_distance8EditTypeEET_S5_
FNDA:0,_ZSt12__niter_baseIPN7testing8internal9TraceInfoEET_S4_
FNDA:180,_ZSt12__niter_baseIPNSt7__cxx1112basic_stringIcSt11char_traitsIcESaIcEEEET_S7_
FNDA:0,_ZSt12__niter_baseIPPN7testing11EnvironmentEET_S4_
FNDA:6,_ZSt12__niter_baseIPPN7testing17TestEventListenerEET_S4_
FNDA:49,_ZSt12__niter_baseIPPN7testing8TestInfoEET_S4_
FNDA:24,_ZSt12__niter_baseIPPN7testing9TestSuiteEET_S4_
FNDA:0,_ZSt12__niter_baseIPPP8TreeNodeET_S4_
FNDA:0,_ZSt12__niter_baseIPPcET_S2_
FNDA:0,_ZSt12__niter_baseIPdET_S1_
FNDA:66,_ZSt12__niter_baseIPiET_S1_
FNDA:0,_ZSt12__niter_baseIPmET_S1_
FNDA:10,_ZSt12__niter_baseISt15insert_iteratorISt13unordered_setINSt7__cxx1112basic_stringIcSt11char_traitsIcESaIcEEESt4hashIS7_ESt8equal_toIS7_ESaIS7_EEEET_SF_
FNDA:10,_ZSt12__niter_baseISt15insert_iteratorISt6vectorINSt7__cxx1112basic_stringIcSt11char_traitsIcESaIcEEESaIS7_EEEET_SB_
FNDA:0,_ZSt12__niter_wrapIN9__gnu_cxx17__normal_iteratorIPPN7testing17TestEventListenerESt6vectorIS4_SaIS4_EEEES5_ET_SA_T0_
FNDA:0,_ZSt12__niter_wrapIN9__gnu_cxx17__normal_iteratorIPPN7testing8TestInfoESt6vectorIS4_SaIS4_EEEES5_ET_SA_T0_
FNDA:0,_ZSt12__niter_wrapIPN7testing8internal13edit_distance8EditTypeEET_RKS5_S5_
FNDA:0,_ZSt12__niter_wrapIPNSt7__cxx1112basic_stringIcSt11char_traitsIcESaIcEEEET_RKS7_S7_
FNDA:7,_ZSt12__niter_wrapIPPN7testing8TestInfoEET_RKS4_S4_
FNDA:0,_ZSt12__niter_wrapIPPN7testing9TestSuiteEET_RKS4_S4_
FNDA:0,_ZSt12__niter_wrapIPPP8TreeNodeET_RKS4_S4_
FNDA:0,_ZSt12__niter_wrapIPdET_RKS1_S1_
FNDA:10,_ZSt12__niter_wrapISt15insert_iteratorISt13unordered_setINSt7__cxx1112basic_stringIcSt11char_traitsIcESaIcEEESt4hashIS7_ESt8equal_toIS7_ESaIS7_EEEET_RKSF_SF_
FNDA:10,_ZSt12__niter_wrapISt15insert_iteratorISt6vectorINSt7__cxx1112basic_stringIcSt11char_traitsIcESaIcEEESaIS7_EEEET_RKSB_SB_
FNDA:0,_ZNSt11__copy_moveILb0ELb0ESt26random_access_iterator_tagE12__assign_oneIN7testing8internal13edit_distance8EditTypeEKS6_EEvPT_PT0_
FNDA:0,_ZNSt11__copy_moveILb0ELb0ESt26random_access_iterator_tagE12__assign_oneIPP8TreeNodeS5_EEvPT_PT0_
FNDA:0,_ZNSt11__copy_moveILb0ELb0ESt26random_access_iterator_tagE12__assign_oneIdKdEEvPT_PT0_
FNDA:10,_ZNSt11__copy_moveILb1ELb0ESt26random_access_iterator_tagE8__copy_mIPNSt7__cxx1112basic_stringIcSt11char_traitsIcESaIcEEESt15insert_iteratorISt13unordered_setIS8_St4hashIS8_ESt8equal_toIS8_ESaIS8_EEEEET0_T_SK_SJ_
FNDA:10,_ZNSt11__copy_moveILb1ELb0ESt26random_access_iterator_tagE8__copy_mIPNSt7__cxx1112basic_stringIcSt11char_traitsIcESaIcEEESt15insert_iteratorISt6vectorIS8_SaIS8_EEEEET0_T_SG_SF_
FNDA:0,_ZNSt11__copy_moveILb1ELb0ESt26random_access_iterator_tagE12__assign_oneIPN7testing17TestEventListenerES5_EEvPT_PT0_
FNDA:0,_ZNSt11__copy_moveILb1ELb0ESt26random_access_iterator_tagE12__assign_oneIPN7testing8TestInfoES5_EEvPT_PT0_
FNDA:0,_ZNSt11__copy_moveILb1ELb0ESt26random_access_iterator_tagE12__assign_oneIPN7testing9TestSuiteES5_EEvPT_PT0_
FNDA:0,_ZNSt11__copy_moveILb0ELb1ESt26random_access_iterator_tagE8__copy_mIKN7testing8internal13edit_distance8EditTypeES6_EEPT0_PT_SB_S9_
FNDA:0,_ZNSt11__copy_moveILb0ELb1ESt26random_access_iterator_tagE8__copy_mIKddEEPT0_PT_S7_S5_
FNDA:0,_ZNSt11__copy_moveILb0ELb1ESt26random_access_iterator_tagE8__copy_mIPP8TreeNodeS5_EEPT0_PT_S9_S7_
FNDA:0,_ZNSt11__copy_moveILb1ELb1ESt26random_access_iterator_tagE8__copy_mIPN7testing17TestEventListenerES5_EEPT0_PT_S9_S7_
FNDA:7,_ZNSt11__copy_moveILb1ELb1ESt26random_access_iterator_tagE8__copy_mIPN7testing8TestInfoES5_EEPT0_PT_S9_S7_
FNDA:0,_ZSt14__copy_move_a2ILb0EPKN7testing8internal13edit_distance8EditTypeEPS3_ET1_T0_S8_S7_
FNDA:0,_ZSt14__copy_move_a2ILb0EPKdPdET1_T0_S4_S3_
FNDA:0,_ZSt14__copy_move_a2ILb0EPPP8TreeNodeS3_ET1_T0_S5_S4_
FNDA:10,_ZSt14__copy_move_a2ILb1EPNSt7__cxx1112basic_stringIcSt11char_traitsIcESaIcEEESt15insert_iteratorISt13unordered_setIS5_St4hashIS5_ESt8equal_toIS5_ESaIS5_EEEET1_T0_SH_SG_
FNDA:10,_ZSt14__copy_move_a2ILb1EPNSt7__cxx1112basic_stringIcSt11char_traitsIcESaIcEEESt15insert_iteratorISt6vectorIS5_SaIS5_EEEET1_T0_SD_SC_
FNDA:0,_ZSt14__copy_move_a2ILb1EPPN7testing17TestEventListenerES3_ET1_T0_S5_S4_
FNDA:7,_ZSt14__copy_move_a2ILb1EPPN7testing8TestInfoES3_ET1_T0_S5_S4_
FNDA:0,_ZSt14__copy_move_a1ILb0EPKN7testing8internal13edit_distance8EditTypeEPS3_ET1_T0_S8_S7_
FNDA:0,_ZSt14__copy_move_a1ILb0EPKdPdET1_T0_S4_S3_
FNDA:0,_ZSt14__copy_move_a1ILb0EPPP8TreeNodeS3_ET1_T0_S5_S4_
FNDA:10,_ZSt14__copy_move_a1ILb1EPNSt7__cxx1112basic_stringIcSt11char_traitsIcESaIcEEESt15insert_iteratorISt13unordered_setIS5_St4hashIS5_ESt8equal_toIS5_ESaIS5_EEEET1_T0_SH_SG_
FNDA:10,_ZSt14__copy_move_a1ILb1EPNSt7__cxx1112basic_stringIcSt11char_traitsIcESaIcEEESt15insert_iteratorISt6vectorIS5_SaIS5_EEEET1_T0_SD_SC_
FNDA:0,_ZSt14__copy_move_a1ILb1EPPN7testing17TestEventListenerES3_ET1_T0_S5_S4_
FNDA:7,_ZSt14__copy_move_a1ILb1EPPN7testing8TestInfoES3_ET1_T0_S5_S4_
FNDA:0,_ZSt13__copy_move_aILb0EN9__gnu_cxx17__normal_iteratorIPKN7testing8internal13edit_distance8EditTypeESt6vectorIS5_SaIS5_EEEEPS5_ET1_T0_SE_SD_
FNDA:0,_ZSt13__copy_move_aILb0EN9__gnu_cxx17__normal_iteratorIPKdSt6vectorIdSaIdEEEEPdET1_T0_SA_S9_
FNDA:0,_ZSt13__copy_move_aILb0EPPP8TreeNodeS3_ET1_T0_S5_S4_
FNDA:10,_ZSt13__copy_move_aILb1EN9__gnu_cxx17__normal_iteratorIPNSt7__cxx1112basic_stringIcSt11char_traitsIcESaIcEEESt6vectorIS7_SaIS7_EEEESt15insert_iteratorISB_EET1_T0_SG_SF_
FNDA:10,_ZSt13__copy_move_aILb1EN9__gnu_cxx17__normal_iteratorIPNSt7__cxx1112basic_stringIcSt11char_traitsIcESaIcEEESt6vectorIS7_SaIS7_EEEESt15insert_iteratorISt13unordered_setIS7_St4hashIS7_ESt8equal_toIS7_ESA_EEET1_T0_SM_SL_
FNDA:0,_ZSt13__copy_move_aILb1EN9__gnu_cxx17__normal_iteratorIPPN7testing17TestEventListenerESt6vectorIS4_SaIS4_EEEES9_ET1_T0_SB_SA_
FNDA:7,_ZSt13__copy_move_aILb1EN9__gnu_cxx17__normal_iteratorIPPN7testing8TestInfoESt6vectorIS4_SaIS4_EEEES5_ET1_T0_SB_SA_
FNDA:0,_ZSt13__copy_move_aILb1EN9__gnu_cxx17__normal_iteratorIPPN7testing8TestInfoESt6vectorIS4_SaIS4_EEEES9_ET1_T0_SB_SA_
FNDA:0,_ZSt13__copy_move_aILb1EPPN7testing8TestInfoEN9__gnu_cxx17__normal_iteratorIS3_St6vectorIS2_SaIS2_EEEEET1_T0_SB_SA_
FNDA:0,_ZSt4copyIN9__gnu_cxx17__normal_iteratorIPKN7testing8internal13edit_distance8EditTypeESt6vectorIS5_SaIS5_EEEEPS5_ET0_T_SE_SD_
FNDA:0,_ZSt4copyIN9__gnu_cxx17__normal_iteratorIPKdSt6vectorIdSaIdEEEEPdET0_T_SA_S9_
FNDA:0,_ZSt4copyIPPP8TreeNodeS3_ET0_T_S5_S4_
FNDA:10,_ZSt4moveIN9__gnu_cxx17__normal_iteratorIPNSt7__cxx1112basic_stringIcSt11char_traitsIcESaIcEEESt6vectorIS7_SaIS7_EEEESt15insert_iteratorISB_EET0_T_SG_SF_
FNDA:10,_ZSt4moveIN9__gnu_cxx17__normal_iteratorIPNSt7__cxx1112basic_stringIcSt11char_traitsIcESaIcEEESt6vectorIS7_SaIS7_EEEESt15insert_iteratorISt13unordered_setIS7_St4hashIS7_ESt8equal_toIS7_ESA_EEET0_T_SM_SL_
FNDA:0,_ZSt4moveIN9__gnu_cxx17__normal_iteratorIPPN7testing17TestEventListenerESt6vectorIS4_SaIS4_EEEES9_ET0_T_SB_SA_
FNDA:7,_ZSt4moveIN9__gnu_cxx17__normal_iteratorIPPN7testing8TestInfoESt6vectorIS4_SaIS4_EEEES5_ET0_T_SB_SA_
FNDA:0,_ZSt4moveIN9__gnu_cxx17__normal_iteratorIPPN7testing8TestInfoESt6vectorIS4_SaIS4_EEEES9_ET0_T_SB_SA_
FNDA:0,_ZSt4moveIPPN7testing8TestInfoEN9__gnu_cxx17__normal_iteratorIS3_St6vectorIS2_SaIS2_EEEEET0_T_SB_SA_
FNDA:0,_ZNSt20__copy_move_backwardILb1ELb0ESt26random_access_iterator_tagE13__copy_move_bIPNSt7__cxx1112basic_stringIcSt11char_traitsIcESaIcEEES9_EET0_T_SB_SA_
FNDA:0,_ZNSt20__copy_move_backwardILb0ELb1ESt26random_access_iterator_tagE13__copy_move_bIPP8TreeNodeS5_EEPT0_PT_S9_S7_
FNDA:0,_ZNSt20__copy_move_backwardILb1ELb1ESt26random_access_iterator_tagE13__copy_move_bIPN7testing8TestInfoES5_EEPT0_PT_S9_S7_
FNDA:0,_ZNSt20__copy_move_backwardILb1ELb1ESt26random_access_iterator_tagE13__copy_move_bIPN7testing9TestSuiteES5_EEPT0_PT_S9_S7_
FNDA:0,_ZSt23__copy_move_backward_a2ILb0EPPP8TreeNodeS3_ET1_T0_S5_S4_
FNDA:0,_ZSt23__copy_move_backward_a2ILb1EPNSt7__cxx1112basic_stringIcSt11char_traitsIcESaIcEEES6_ET1_T0_S8_S7_
FNDA:0,_ZSt23__copy_move_backward_a2ILb1EPPN7testing8TestInfoES3_ET1_T0_S5_S4_
FNDA:0,_ZSt23__copy_move_backward_a2ILb1EPPN7testing9TestSuiteES3_ET1_T0_S5_S4_
FNDA:0,_ZSt23__copy_move_backward_a1ILb0EPPP8TreeNodeS3_ET1_T0_S5_S4_
FNDA:0,_ZSt23__copy_move_backward_a1ILb1EPNSt7__cxx1112basic_stringIcSt11char_traitsIcESaIcEEES6_ET1_T0_S8_S7_
FNDA:0,_ZSt23__copy_move_backward_a1ILb1EPPN7testing8TestInfoES3_ET1_T0_S5_S4_
FNDA:0,_ZSt23__copy_move_backward_a1ILb1EPPN7testing9TestSuiteES3_ET1_T0_S5_S4_
FNDA:0,_ZSt22__copy_move_backward_aILb0EPPP8TreeNodeS3_ET1_T0_S5_S4_
FNDA:0,_ZSt22__copy_move_backward_aILb1EN9__gnu_cxx17__normal_iteratorIPPN7testing8TestInfoESt6vectorIS4_SaIS4_EEEES9_ET1_T0_SB_SA_
FNDA:0,_ZSt22__copy_move_backward_aILb1EPNSt7__cxx1112basic_stringIcSt11char_traitsIcESaIcEEES6_ET1_T0_S8_S7_
FNDA:0,_ZSt22__copy_move_backward_aILb1EPPN7testing8TestInfoEN9__gnu_cxx17__normal_iteratorIS3_St6vectorIS2_SaIS2_EEEEET1_T0_SB_SA_
FNDA:0,_ZSt22__copy_move_backward_aILb1EPPN7testing9TestSuiteES3_ET1_T0_S5_S4_
FNDA:0,_ZSt13copy_backwardIPPP8TreeNodeS3_ET0_T_S5_S4_
FNDA:0,_ZSt13move_backwardIN9__gnu_cxx17__normal_iteratorIPPN7testing8TestInfoESt6vectorIS4_SaIS4_EEEES9_ET0_T_SB_SA_
FNDA:0,_ZSt13move_backwardIPNSt7__cxx1112basic_stringIcSt11char_traitsIcESaIcEEES6_ET0_T_S8_S7_
FNDA:0,_ZSt13move_backwardIPPN7testing8TestInfoEN9__gnu_cxx17__normal_iteratorIS3_St6vectorIS2_SaIS2_EEEEET0_T_SB_SA_
FNDA:0,_ZSt13move_backwardIPPN7testing9TestSuiteES3_ET0_T_S5_S4_
FNDA:1,_ZSt9__fill_a1IP9HashEntryS0_EN9__gnu_cxx11__enable_ifIXntsrSt11__is_scalarIT0_E7__valueEvE6__typeET_S9_RKS5_
FNDA:0,_ZSt9__fill_a1IPN7testing8internal13edit_distance8EditTypeES3_EN9__gnu_cxx11__enable_ifIXntsrSt11__is_scalarIT0_E7__valueEvE6__typeET_SC_RKS8_
FNDA:0,_ZSt9__fill_a1IPddEN9__gnu_cxx11__enable_ifIXsrSt11__is_scalarIT0_E7__valueEvE6__typeET_S8_RKS4_
FNDA:0,_ZSt9__fill_a1IP9HashEntrySt6vectorIS0_SaIS0_EES0_EvN9__gnu_cxx17__normal_iteratorIT_T0_EES9_RKT1_
FNDA:0,_ZSt8__fill_aIN9__gnu_cxx17__normal_iteratorIP9HashEntrySt6vectorIS2_SaIS2_EEEES2_EvT_S8_RKT0_
FNDA:1,_ZSt8__fill_aIP9HashEntryS0_EvT_S2_RKT0_
FNDA:0,_ZSt8__fill_aIPN7testing8internal13edit_distance8EditTypeES3_EvT_S5_RKT0_
FNDA:0,_ZSt8__fill_aIPddEvT_S1_RKT0_
FNF:127
FNH:38
DA:155,0
DA:185,0
DA:187,0
DA:204,0
DA:214,0
DA:215,0
DA:216,0
DA:233,118
DA:238,118
DA:239,0
DA:240,118
DA:257,62
DA:262,62
DA:263,37
DA:264,25
DA:316,363
DA:318,363
DA:331,0
DA:332,0
DA:338,27
DA:339,27
DA:397,0
DA:398,0
DA:408,20
DA:411,38
DA:413,18
DA:414,18
DA:415,18
DA:417,20
DA:422,0
DA:423,0
DA:433,7
DA:435,7
DA:436,7
DA:437,0
DA:438,7
DA:440,0
DA:441,7
DA:497,27
DA:506,27
DA:532,27
DA:533,27
DA:538,27
DA:540,27
DA:543,27
DA:624,0
DA:633,0
DA:657,27
DA:665,27
DA:666,27
DA:727,0
DA:730,0
DA:731,0
DA:732,0
DA:733,0
DA:744,0
DA:746,0
DA:747,0
DA:748,0
DA:749,0
DA:751,0
DA:752,0
DA:759,0
DA:769,0
DA:771,0
DA:777,0
DA:778,0
DA:805,0
DA:807,0
DA:810,0
DA:857,0
DA:867,0
DA:892,0
DA:901,0
DA:903,0
DA:915,1
DA:918,6
DA:919,5
DA:920,1
DA:926,0
DA:929,0
DA:930,0
DA:931,0
DA:932,0
DA:957,0
DA:960,0
DA:976,1
DA:977,1
DA:1000,0
DA:1007,0
DA:1008,0
DA:1018,1
DA:1117,1
DA:1123,1
DA:1124,0
DA:1128,1
DA:1129,1
DA:1152,1
DA:1157,1
DA:1158,2
DA:1459,0
DA:1465,0
DA:1467,0
DA:1469,0
DA:1470,0
DA:1472,0
DA:1474,0
DA:1475,0
DA:1476,0
DA:1479,0
DA:1481,0
DA:2064,55
DA:2068,55
DA:2070,57
DA:2072,17
DA:2073,15
DA:2074,2
DA:2076,2
DA:2077,0
DA:2078,2
DA:2080,2
DA:2081,0
DA:2082,2
DA:2084,2
DA:2085,0
DA:2086,2
DA:2089,40
DA:2091,0
DA:2092,0
DA:2093,0
DA:2094,0
DA:2096,22
DA:2097,22
DA:2098,0
DA:2099,22
DA:2101,32
DA:2102,32
DA:2103,11
DA:2104,21
DA:2106,29
DA:2108,29
DA:2115,55
DA:2117,55
DA:2118,55
LF:144
LH:71
end_of_record
TN:
SF:/usr/include/c++/13/bits/stl_construct.h
FN:109,120,_ZSt10_ConstructI9HashEntryJEEvPT_DpOT0_
FN:109,120,_ZSt10_ConstructI9HashEntryJRKS0_EEvPT_DpOT0_
FN:109,120,_ZSt10_ConstructIN7testing8internal13edit_distance8EditTypeEJEEvPT_DpOT0_
FN:109,120,_ZSt10_ConstructINSt7__cxx1112basic_stringIcSt11char_traitsIcESaIcEEEJRKPKcEEvPT_DpOT0_
FN:109,120,_ZSt10_ConstructINSt7__cxx1112basic_stringIcSt11char_traitsIcESaIcEEEJRKS5_EEvPT_DpOT0_
FN:109,120,_ZSt10_ConstructISt6vectorIN7testing8internal13edit_distance8EditTypeESaIS4_EEJRKS6_EEvPT_DpOT0_
FN:109,120,_ZSt10_ConstructISt6vectorIdSaIdEEJRKS2_EEvPT_DpOT0_
FN:109,120,_ZSt10_ConstructIdJEEvPT_DpOT0_
FN:146,153,_ZSt8_DestroyI9HashEntryEvPT_
FN:146,153,_ZSt8_DestroyIN7testing12TestPropertyEEvPT_
FN:146,153,_ZSt8_DestroyIN7testing14TestPartResultEEvPT_
FN:146,153,_ZSt8_DestroyIN7testing8internal9TraceInfoEEvPT_
FN:146,153,_ZSt8_DestroyINSt7__cxx1112basic_stringIcSt11char_traitsIcESaIcEEEEvPT_
FN:146,153,_ZSt8_DestroyISt6vectorIN7testing8internal13edit_distance8EditTypeESaIS4_EEEvPT_
FN:146,153,_ZSt8_DestroyISt6vectorIdSaIdEEEvPT_
FN:160,164,_ZNSt12_Destroy_auxILb0EE9__destroyIP9HashEntryEEvT_S4_
FN:160,164,_ZNSt12_Destroy_auxILb0EE9__destroyIPN7testing12TestPropertyEEEvT_S5_
FN:160,164,_ZNSt12_Destroy_auxILb0EE9__destroyIPN7testing14TestPartResultEEEvT_S5_
FN:160,164,_ZNSt12_Destroy_auxILb0EE9__destroyIPN7testing8internal9TraceInfoEEEvT_S6_
FN:160,164,_ZNSt12_Destroy_auxILb0EE9__destroyIPNSt7__cxx1112basic_stringIcSt11char_traitsIcESaIcEEEEEvT_S9_
FN:160,164,_ZNSt12_Destroy_auxILb0EE9__destroyIPSt6vectorIN7testing8internal13edit_distance8EditTypeESaIS6_EEEEvT_SA_
FN:160,164,_ZNSt12_Destroy_auxILb0EE9__destroyIPSt6vectorIdSaIdEEEEvT_S6_
FN:172,172,_ZNSt12_Destroy_auxILb1EE9__destroyIPN7testing8internal13edit_distance8EditTypeEEEvT_S7_
FN:172,172,_ZNSt12_Destroy_auxILb1EE9__destroyIPPN7testing11EnvironmentEEEvT_S6_
FN:172,172,_ZNSt12_Destroy_auxILb1EE9__destroyIPPN7testing17TestEventListenerEEEvT_S6_
FN:172,172,_ZNSt12_Destroy_auxILb1EE9__destroyIPPN7testing8TestInfoEEEvT_S6_
FN:172,172,_ZNSt12_Destroy_auxILb1EE9__destroyIPPN7testing8internal30ParameterizedTestSuiteInfoBaseEEEvT_S7_
FN:172,172,_ZNSt12_Destroy_auxILb1EE9__destroyIPPN7testing9TestSuiteEEEvT_S6_
FN:172,172,_ZNSt12_Destroy_auxILb1EE9__destroyIPPcEEvT_S4_
FN:172,172,_ZNSt12_Destroy_auxILb1EE9__destroyIPdEEvT_S3_
FN:172,172,_ZNSt12_Destroy_auxILb1EE9__destroyIPiEEvT_S3_
FN:172,172,_ZNSt12_Destroy_auxILb1EE9__destroyIPmEEvT_S3_
FN:182,197,_ZSt8_DestroyIP9HashEntryEvT_S2_
FN:182,197,_ZSt8_DestroyIPN7testing12TestPropertyEEvT_S3_
FN:182,197,_ZSt8_DestroyIPN7testing14TestPartResultEEvT_S3_
FN:182,197,_ZSt8_DestroyIPN7testing8internal13edit_distance8EditTypeEEvT_S5_
FN:182,197,_ZSt8_DestroyIPN7testing8internal9TraceInfoEEvT_S4_
FN:182,197,_ZSt8_DestroyIPNSt7__cxx1112basic_stringIcSt11char_traitsIcESaIcEEEEvT_S7_
FN:182,197,_ZSt8_DestroyIPPN7testing11EnvironmentEEvT_S4_
FN:182,197,_ZSt8_DestroyIPPN7testing17TestEventListenerEEvT_S4_
FN:182,197,_ZSt8_DestroyIPPN7testing8TestInfoEEvT_S4_
FN:182,197,_ZSt8_DestroyIPPN7testing8internal30ParameterizedTestSuiteInfoBaseEEvT_S5_
FN:182,197,_ZSt8_DestroyIPPN7testing9TestSuiteEEvT_S4_
FN:182,197,_ZSt8_DestroyIPPcEvT_S2_
FN:182,197,_ZSt8_DestroyIPSt6vectorIN7testing8internal13edit_distance8EditTypeESaIS4_EEEvT_S8_
FN:182,197,_ZSt8_DestroyIPSt6vectorIdSaIdEEEvT_S4_
FN:182,197,_ZSt8_DestroyIPdEvT_S1_
FN:182,197,_ZSt8_DestroyIPiEvT_S1_
FN:182,197,_ZSt8_DestroyIPmEvT_S1_
FNDA:10,_ZSt10_ConstructI9HashEntryJEEvPT_DpOT0_
FNDA:0,_ZSt10_ConstructI9HashEntryJRKS0_EEvPT_DpOT0_
FNDA:0,_ZSt10_ConstructIN7testing8internal13edit_distance8EditTypeEJEEvPT_DpOT0_
FNDA:0,_ZSt10_ConstructINSt7__cxx1112basic_stringIcSt11char_traitsIcESaIcEEEJRKPKcEEvPT_DpOT0_
FNDA:1,_ZSt10_ConstructINSt7__cxx1112basic_stringIcSt11char_traitsIcESaIcEEEJRKS5_EEvPT_DpOT0_
FNDA:0,_ZSt10_ConstructISt6vectorIN7testing8internal13edit_distance8EditTypeESaIS4_EEJRKS6_EEvPT_DpOT0_
FNDA:0,_ZSt10_ConstructISt6vectorIdSaIdEEJRKS2_EEvPT_DpOT0_
FNDA:0,_ZSt10_ConstructIdJEEvPT_DpOT0_
FNDA:10,_ZSt8_DestroyI9HashEntryEvPT_
FNDA:0,_ZSt8_DestroyIN7testing12TestPropertyEEvPT_
FNDA:2,_ZSt8_DestroyIN7testing14TestPartResultEEvPT_
FNDA:0,_ZSt8_DestroyIN7testing8internal9TraceInfoEEvPT_
FNDA:44,_ZSt8_DestroyINSt7__cxx1112basic_stringIcSt11char_traitsIcESaIcEEEEvPT_
FNDA:0,_ZSt8_DestroyISt6vectorIN7testing8internal13edit_distance8EditTypeESaIS4_EEEvPT_
FNDA:0,_ZSt8_DestroyISt6vectorIdSaIdEEEvPT_
FNDA:2,_ZNSt12_Destroy_auxILb0EE9__destroyIP9HashEntryEEvT_S4_
FNDA:15,_ZNSt12_Destroy_auxILb0EE9__destroyIPN7testing12TestPropertyEEEvT_S5_
FNDA:15,_ZNSt12_Destroy_auxILb0EE9__destroyIPN7testing14TestPartResultEEEvT_S5_
FNDA:1,_ZNSt12_Destroy_auxILb0EE9__destroyIPN7testing8internal9TraceInfoEEEvT_S6_
FNDA:47,_ZNSt12_Destroy_auxILb0EE9__destroyIPNSt7__cxx1112basic_stringIcSt11char_traitsIcESaIcEEEEEvT_S9_
FNDA:0,_ZNSt12_Destroy_auxILb0EE9__destroyIPSt6vectorIN7testing8internal13edit_distance8EditTypeESaIS6_EEEEvT_SA_
FNDA:0,_ZNSt12_Destroy_auxILb0EE9__destroyIPSt6vectorIdSaIdEEEEvT_S6_
FNDA:0,_ZNSt12_Destroy_auxILb1EE9__destroyIPN7testing8internal13edit_distance8EditTypeEEEvT_S7_
FNDA:1,_ZNSt12_Destroy_auxILb1EE9__destroyIPPN7testing11EnvironmentEEEvT_S6_
FNDA:1,_ZNSt12_Destroy_auxILb1EE9__destroyIPPN7testing17TestEventListenerEEEvT_S6_
FNDA:14,_ZNSt12_Destroy_auxILb1EE9__destroyIPPN7testing8TestInfoEEEvT_S6_
FNDA:1,_ZNSt12_Destroy_auxILb1EE9__destroyIPPN7testing8internal30ParameterizedTestSuiteInfoBaseEEEvT_S7_
FNDA:1,_ZNSt12_Destroy_auxILb1EE9__destroyIPPN7testing9TestSuiteEEEvT_S6_
FNDA:0,_ZNSt12_Destroy_auxILb1EE9__destroyIPPcEEvT_S4_
FNDA:0,_ZNSt12_Destroy_auxILb1EE9__destroyIPdEEvT_S3_
FNDA:8,_ZNSt12_Destroy_auxILb1EE9__destroyIPiEEvT_S3_
FNDA:0,_ZNSt12_Destroy_auxILb1EE9__destroyIPmEEvT_S3_
FNDA:2,_ZSt8_DestroyIP9HashEntryEvT_S2_
FNDA:15,_ZSt8_DestroyIPN7testing12TestPropertyEEvT_S3_
FNDA:15,_ZSt8_DestroyIPN7testing14TestPartResultEEvT_S3_
FNDA:0,_ZSt8_DestroyIPN7testing8internal13edit_distance8EditTypeEEvT_S5_
FNDA:1,_ZSt8_DestroyIPN7testing8internal9TraceInfoEEvT_S4_
FNDA:47,_ZSt8_DestroyIPNSt7__cxx1112basic_stringIcSt11char_traitsIcESaIcEEEEvT_S7_
FNDA:1,_ZSt8_DestroyIPPN7testing11EnvironmentEEvT_S4_
FNDA:1,_ZSt8_DestroyIPPN7testing17TestEventListenerEEvT_S4_
FNDA:14,_ZSt8_DestroyIPPN7testing8TestInfoEEvT_S4_
FNDA:1,_ZSt8_DestroyIPPN7testing8internal30ParameterizedTestSuiteInfoBaseEEvT_S5_
FNDA:1,_ZSt8_DestroyIPPN7testing9TestSuiteEEvT_S4_
FNDA:0,_ZSt8_DestroyIPPcEvT_S2_
FNDA:0,_ZSt8_DestroyIPSt6vectorIN7testing8internal13edit_distance8EditTypeESaIS4_EEEvT_S8_
FNDA:0,_ZSt8_DestroyIPSt6vectorIdSaIdEEEvT_S4_
FNDA:0,_ZSt8_DestroyIPdEvT_S1_
FNDA:8,_ZSt8_DestroyIPiEvT_S1_
FNDA:0,_ZSt8_DestroyIPmEvT_S1_
FNF:49
FNH:27
DA:109,11
DA:119,11
DA:120,11
DA:146,56
DA:151,56
DA:153,56
DA:160,80
DA:162,136
DA:163,56
DA:164,80
DA:172,26
DA:182,106
DA:196,106
DA:197,106
LF:14
LH:14
end_of_record
TN:
SF:/usr/include/c++/13/bits/stl_deque.h
FN:1027,1028,_ZNSt5dequeIP8TreeNodeSaIS1_EED2Ev
FN:1151,1152,_ZNSt5dequeIP8TreeNodeSaIS1_EE5beginEv
FN:1170,1171,_ZNSt5dequeIP8TreeNodeSaIS1_EE3endEv
FN:1268,1269,_ZNKSt5dequeIP8TreeNodeSaIS1_EE4sizeEv
FN:1274,1275,_ZNKSt5dequeIP8TreeNodeSaIS1_EE8max_sizeEv
FN:131,132,_ZNSt15_Deque_iteratorIP8TreeNodeRS1_PS1_E14_S_buffer_sizeEv
FN:1347,1348,_ZNKSt5dequeIP8TreeNodeSaIS1_EE5emptyEv
FN:1444,1448,_ZNSt5dequeIP8TreeNodeSaIS1_EE5frontEv
FN:151,152,_ZNSt15_Deque_iteratorIP8TreeNodeRS1_PS1_EC2Ev
FN:1538,1549,_ZNSt5dequeIP8TreeNodeSaIS1_EE9push_backERKS1_
FN:1574,1586,_ZNSt5dequeIP8TreeNodeSaIS1_EE9pop_frontEv
FN:168,170,_ZNSt15_Deque_iteratorIP8TreeNodeRS1_PS1_EC2ERKS4_
FN:181,182,_ZNKSt15_Deque_iteratorIP8TreeNodeRS1_PS1_EdeEv
FN:1876,1881,_ZNSt5dequeIP8TreeNodeSaIS1_EE11_S_max_sizeERKS2_
FN:2087,2092,_ZNSt5dequeIP8TreeNodeSaIS1_EE15_M_destroy_dataESt15_Deque_iteratorIS1_RS1_PS1_ES7_RKS2_
FN:2168,2173,_ZNSt5dequeIP8TreeNodeSaIS1_EE22_M_reserve_map_at_backEm
FN:263,268,_ZNSt15_Deque_iteratorIP8TreeNodeRS1_PS1_E11_M_set_nodeEPS3_
FN:272,273,_ZSteqRKSt15_Deque_iteratorIP8TreeNodeRS1_PS1_ES6_
FN:370,376,_ZStmiRKSt15_Deque_iteratorIP8TreeNodeRS1_PS1_ES6_
FN:458,460,_ZNSt11_Deque_baseIP8TreeNodeSaIS1_EEC2Ev
FN:516,518,_ZNSt11_Deque_baseIP8TreeNodeSaIS1_EE16_Deque_impl_dataC2Ev
FN:545,548,_ZNSt11_Deque_baseIP8TreeNodeSaIS1_EE11_Deque_implC2Ev
FN:568,569,_ZNSt11_Deque_baseIP8TreeNodeSaIS1_EE19_M_get_Tp_allocatorEv
FN:572,573,_ZNKSt11_Deque_baseIP8TreeNodeSaIS1_EE19_M_get_Tp_allocatorEv
FN:576,577,_ZNKSt11_Deque_baseIP8TreeNodeSaIS1_EE20_M_get_map_allocatorEv
FN:580,584,_ZNSt11_Deque_baseIP8TreeNodeSaIS1_EE16_M_allocate_nodeEv
FN:587,591,_ZNSt11_Deque_baseIP8TreeNodeSaIS1_EE18_M_deallocate_nodeEPS1_
FN:594,598,_ZNSt11_Deque_baseIP8TreeNodeSaIS1_EE15_M_allocate_mapEm
FN:601,605,_ZNSt11_Deque_baseIP8TreeNodeSaIS1_EE17_M_deallocate_mapEPPS1_m
FN:617,626,_ZNSt11_Deque_baseIP8TreeNodeSaIS1_EED2Ev
FN:638,673,_ZNSt11_Deque_baseIP8TreeNodeSaIS1_EE17_M_initialize_mapEm
FN:677,691,_ZNSt11_Deque_baseIP8TreeNodeSaIS1_EE15_M_create_nodesEPPS1_S5_
FN:695,701,_ZNSt11_Deque_baseIP8TreeNodeSaIS1_EE16_M_destroy_nodesEPPS1_S5_
FN:855,855,_ZNSt5dequeIP8TreeNodeSaIS1_EEC2Ev
FN:96,98,_ZSt16__deque_buf_sizem
FNDA:10,_ZNSt5dequeIP8TreeNodeSaIS1_EED2Ev
FNDA:28,_ZNSt5dequeIP8TreeNodeSaIS1_EE5beginEv
FNDA:10,_ZNSt5dequeIP8TreeNodeSaIS1_EE3endEv
FNDA:0,_ZNKSt5dequeIP8TreeNodeSaIS1_EE4sizeEv
FNDA:0,_ZNKSt5dequeIP8TreeNodeSaIS1_EE8max_sizeEv
FNDA:20,_ZNSt15_Deque_iteratorIP8TreeNodeRS1_PS1_E14_S_buffer_sizeEv
FNDA:20,_ZNKSt5dequeIP8TreeNodeSaIS1_EE5emptyEv
FNDA:18,_ZNSt5dequeIP8TreeNodeSaIS1_EE5frontEv
FNDA:20,_ZNSt15_Deque_iteratorIP8TreeNodeRS1_PS1_EC2Ev
FNDA:22,_ZNSt5dequeIP8TreeNodeSaIS1_EE9push_backERKS1_
FNDA:18,_ZNSt5dequeIP8TreeNodeSaIS1_EE9pop_frontEv
FNDA:38,_ZNSt15_Deque_iteratorIP8TreeNodeRS1_PS1_EC2ERKS4_
FNDA:18,_ZNKSt15_Deque_iteratorIP8TreeNodeRS1_PS1_EdeEv
FNDA:0,_ZNSt5dequeIP8TreeNodeSaIS1_EE11_S_max_sizeERKS2_
FNDA:10,_ZNSt5dequeIP8TreeNodeSaIS1_EE15_M_destroy_dataESt15_Deque_iteratorIS1_RS1_PS1_ES7_RKS2_
FNDA:0,_ZNSt5dequeIP8TreeNodeSaIS1_EE22_M_reserve_map_at_backEm
FNDA:20,_ZNSt15_Deque_iteratorIP8TreeNodeRS1_PS1_E11_M_set_nodeEPS3_
FNDA:20,_ZSteqRKSt15_Deque_iteratorIP8TreeNodeRS1_PS1_ES6_
FNDA:0,_ZStmiRKSt15_Deque_iteratorIP8TreeNodeRS1_PS1_ES6_
FNDA:10,_ZNSt11_Deque_baseIP8TreeNodeSaIS1_EEC2Ev
FNDA:10,_ZNSt11_Deque_baseIP8TreeNodeSaIS1_EE16_Deque_impl_dataC2Ev
FNDA:10,_ZNSt11_Deque_baseIP8TreeNodeSaIS1_EE11_Deque_implC2Ev
FNDA:28,_ZNSt11_Deque_baseIP8TreeNodeSaIS1_EE19_M_get_Tp_allocatorEv
FNDA:20,_ZNKSt11_Deque_baseIP8TreeNodeSaIS1_EE19_M_get_Tp_allocatorEv
FNDA:20,_ZNKSt11_Deque_baseIP8TreeNodeSaIS1_EE20_M_get_map_allocatorEv
FNDA:10,_ZNSt11_Deque_baseIP8TreeNodeSaIS1_EE16_M_allocate_nodeEv
FNDA:10,_ZNSt11_Deque_baseIP8TreeNodeSaIS1_EE18_M_deallocate_nodeEPS1_
FNDA:10,_ZNSt11_Deque_baseIP8TreeNodeSaIS1_EE15_M_allocate_mapEm
FNDA:10,_ZNSt11_Deque_baseIP8TreeNodeSaIS1_EE17_M_deallocate_mapEPPS1_m
FNDA:10,_ZNSt11_Deque_baseIP8TreeNodeSaIS1_EED2Ev
FNDA:10,_ZNSt11_Deque_baseIP8TreeNodeSaIS1_EE17_M_initialize_mapEm
FNDA:10,_ZNSt11_Deque_baseIP8TreeNodeSaIS1_EE15_M_create_nodesEPPS1_S5_
FNDA:10,_ZNSt11_Deque_baseIP8TreeNodeSaIS1_EE16_M_destroy_nodesEPPS1_S5_
FNDA:10,_ZNSt5dequeIP8TreeNodeSaIS1_EEC2Ev
FNDA:60,_ZSt16__deque_buf_sizem
FNF:35
FNH:30
DA:96,60
DA:98,60
DA:131,20
DA:132,20
DA:151,20
DA:152,20
DA:168,38
DA:169,38
DA:170,38
DA:181,18
DA:182,18
DA:263,20
DA:265,20
DA:266,20
DA:267,20
DA:268,20
DA:272,20
DA:273,20
DA:370,0
DA:372,0
DA:373,0
DA:374,0
DA:375,0
DA:458,10
DA:459,10
DA:460,10
DA:516,10
DA:517,10
DA:518,10
DA:545,10
DA:547,10
DA:548,10
DA:568,28
DA:569,28
DA:572,20
DA:573,20
DA:576,20
DA:577,40
DA:580,10
DA:583,20
DA:587,10
DA:590,10
DA:591,10
DA:594,10
DA:596,10
DA:597,20
DA:601,10
DA:603,10
DA:605,10
DA:617,10
DA:620,10
DA:622,10
DA:623,10
DA:624,10
DA:626,10
DA:638,10
DA:641,10
DA:644,20
DA:645,10
DA:646,10
DA:653,10
DA:654,10
DA:655,10
DA:658,10
DA:659,0
DA:661,0
DA:662,0
DA:663,0
DA:664,0
DA:667,10
DA:668,10
DA:669,10
DA:670,20
DA:671,10
DA:672,10
DA:673,10
DA:677,10
DA:683,20
DA:684,10
DA:686,0
DA:688,0
DA:689,0
DA:691,10
DA:695,10
DA:699,20
DA:700,10
DA:701,10
DA:855,10
DA:1027,10
DA:1028,10
DA:1151,28
DA:1152,28
DA:1170,10
DA:1171,10
DA:1268,0
DA:1269,0
DA:1274,0
DA:1275,0
DA:1347,20
DA:1348,20
DA:1444,18
DA:1447,18
DA:1538,22
DA:1540,22
DA:1541,22
DA:1543,22
DA:1545,22
DA:1548,0
DA:1549,22
DA:1574,18
DA:1577,18
DA:1578,18
DA:1580,18
DA:1582,18
DA:1585,0
DA:1586,18
DA:1876,0
DA:1878,0
DA:1879,0
DA:1880,0
DA:2087,10
DA:2092,10
DA:2168,0
DA:2170,0
DA:2171,0
DA:2172,0
DA:2173,0
LF:127
LH:99
end_of_record
TN:
SF:/usr/include/c++/13/bits/stl_function.h
FN:1162,1163,_ZNKSt9_IdentityINSt7__cxx1112basic_stringIcSt11char_traitsIcESaIcEEEEclERS5_
FN:1166,1167,_ZNKSt9_IdentityINSt7__cxx1112basic_stringIcSt11char_traitsIcESaIcEEEEclERKS5_
FN:1182,1183,_ZNKSt10_Select1stISt4pairIKNSt7__cxx1112basic_stringIcSt11char_traitsIcESaIcEEEN7testing8internal12CodeLocationEEEclERKSB_
FN:1182,1183,_ZNKSt10_Select1stISt4pairIKNSt7__cxx1112basic_stringIcSt11char_traitsIcESaIcEEEN7testing8internal34TypeParameterizedTestSuiteRegistry30TypeParameterizedTestSuiteInfoEEEclERKSC_
FN:1182,1183,_ZNKSt10_Select1stISt4pairIKNSt7__cxx1112basic_stringIcSt11char_traitsIcESaIcEEEmEEclERKS8_
FN:377,378,_ZNKSt8equal_toINSt7__cxx1112basic_stringIcSt11char_traitsIcESaIcEEEEclERKS5_S8_
FN:407,408,_ZNKSt4lessINSt7__cxx1112basic_stringIcSt11char_traitsIcESaIcEEEEclERKS5_S8_
FN:451,458,_ZNKSt4lessIPKvEclES1_S1_
FN:499,502,_ZNKSt8equal_toIvEclIRKNSt7__cxx1112basic_stringIcSt11char_traitsIcESaIcEEES9_EEDTeqcl7forwardIT_Efp_Ecl7forwardIT0_Efp0_EEOSA_OSB_
FN:499,502,_ZNKSt8equal_toIvEclIRKSt17basic_string_viewIcSt11char_traitsIcEERKNSt7__cxx1112basic_stringIcS4_SaIcEEEEEDTeqcl7forwardIT_Efp_Ecl7forwardIT0_Efp0_EEOSE_OSF_
FN:589,595,_ZNKSt4lessIvEclIRKNSt7__cxx1112basic_stringIcSt11char_traitsIcESaIcEEES9_EEDTltcl7forwardIT_Efp_Ecl7forwardIT0_Efp0_EEOSA_OSB_
FN:607,608,_ZNSt4lessIvE6_S_cmpIRKNSt7__cxx1112basic_stringIcSt11char_traitsIcESaIcEEES9_EEDcOT_OT0_St17integral_constantIbLb0EE
FNDA:0,_ZNKSt9_IdentityINSt7__cxx1112basic_stringIcSt11char_traitsIcESaIcEEEEclERS5_
FNDA:0,_ZNKSt9_IdentityINSt7__cxx1112basic_stringIcSt11char_traitsIcESaIcEEEEclERKS5_
FNDA:0,_ZNKSt10_Select1stISt4pairIKNSt7__cxx1112basic_stringIcSt11char_traitsIcESaIcEEEN7testing8internal12CodeLocationEEEclERKSB_
FNDA:0,_ZNKSt10_Select1stISt4pairIKNSt7__cxx1112basic_stringIcSt11char_traitsIcESaIcEEEN7testing8internal34TypeParameterizedTestSuiteRegistry30TypeParameterizedTestSuiteInfoEEEclERKSC_
FNDA:0,_ZNKSt10_Select1stISt4pairIKNSt7__cxx1112basic_stringIcSt11char_traitsIcESaIcEEEmEEclERKS8_
FNDA:42,_ZNKSt8equal_toINSt7__cxx1112basic_stringIcSt11char_traitsIcESaIcEEEEclERKS5_S8_
FNDA:0,_ZNKSt4lessINSt7__cxx1112basic_stringIcSt11char_traitsIcESaIcEEEEclERKS5_S8_
FNDA:0,_ZNKSt4lessIPKvEclES1_S1_
FNDA:0,_ZNKSt8equal_toIvEclIRKNSt7__cxx1112basic_stringIcSt11char_traitsIcESaIcEEES9_EEDTeqcl7forwardIT_Efp_Ecl7forwardIT0_Efp0_EEOSA_OSB_
FNDA:0,_ZNKSt8equal_toIvEclIRKSt17basic_string_viewIcSt11char_traitsIcEERKNSt7__cxx1112basic_stringIcS4_SaIcEEEEEDTeqcl7forwardIT_Efp_Ecl7forwardIT0_Efp0_EEOSE_OSF_
FNDA:0,_ZNKSt4lessIvEclIRKNSt7__cxx1112basic_stringIcSt11char_traitsIcESaIcEEES9_EEDTltcl7forwardIT_Efp_Ecl7forwardIT0_Efp0_EEOSA_OSB_
FNDA:0,_ZNSt4lessIvE6_S_cmpIRKNSt7__cxx1112basic_stringIcSt11char_traitsIcESaIcEEES9_EEDcOT_OT0_St17integral_constantIbLb0EE
FNF:12
FNH:1
DA:377,42
DA:378,42
DA:407,0
DA:408,0
DA:451,0
DA:454,0
DA:455,0
DA:457,0
DA:499,0
DA:502,0
DA:589,0
DA:593,0
DA:594,0
DA:607,0
DA:608,0
DA:1162,0
DA:1163,0
DA:1166,0
DA:1167,0
DA:1182,0
DA:1183,0
LF:21
LH:2
end_of_record
TN:
SF:/usr/include/c++/13/bits/stl_iterator.h
FN:1026,1027,_ZSt8inserterISt13unordered_setINSt7__cxx1112basic_stringIcSt11char_traitsIcESaIcEEESt4hashIS6_ESt8equal_toIS6_ESaIS6_EEESt15insert_iteratorIT_ERSE_NSE_8iteratorE
FN:1026,1027,_ZSt8inserterISt6vectorINSt7__cxx1112basic_stringIcSt11char_traitsIcESaIcEEESaIS6_EEESt15insert_iteratorIT_ERSA_NSA_8iteratorE
FN:1072,1073,_ZN9__gnu_cxx17__normal_iteratorIPKPN7testing9TestSuiteESt6vectorIS3_SaIS3_EEEC2Ev
FN:1076,1077,_ZN9__gnu_cxx17__normal_iteratorIP9HashEntrySt6vectorIS1_SaIS1_EEEC2ERKS2_
FN:1076,1077,_ZN9__gnu_cxx17__normal_iteratorIPKN7testing14TestPartResultESt6vectorIS2_SaIS2_EEEC2ERKS4_
FN:1076,1077,_ZN9__gnu_cxx17__normal_iteratorIPKN7testing8internal13edit_distance8EditTypeESt6vectorIS4_SaIS4_EEEC2ERKS6_
FN:1076,1077,_ZN9__gnu_cxx17__normal_iteratorIPKN7testing8internal9TraceInfoESt6vectorIS3_SaIS3_EEEC2ERKS5_
FN:1076,1077,_ZN9__gnu_cxx17__normal_iteratorIPKNSt7__cxx1112basic_stringIcSt11char_traitsIcESaIcEEESt6vectorIS6_SaIS6_EEEC2ERKS8_
FN:1076,1077,_ZN9__gnu_cxx17__normal_iteratorIPKPN7testing11EnvironmentESt6vectorIS3_SaIS3_EEEC2ERKS5_
FN:1076,1077,_ZN9__gnu_cxx17__normal_iteratorIPKPN7testing17TestEventListenerESt6vectorIS3_SaIS3_EEEC2ERKS5_
FN:1076,1077,_ZN9__gnu_cxx17__normal_iteratorIPKPN7testing8TestInfoESt6vectorIS3_SaIS3_EEEC2ERKS5_
FN:1076,1077,_ZN9__gnu_cxx17__normal_iteratorIPKPN7testing9TestSuiteESt6vectorIS3_SaIS3_EEEC2ERKS5_
FN:1076,1077,_ZN9__gnu_cxx17__normal_iteratorIPKdSt6vectorIdSaIdEEEC2ERKS2_
FN:1076,1077,_ZN9__gnu_cxx17__normal_iteratorIPN7testing12TestPropertyESt6vectorIS2_SaIS2_EEEC2ERKS3_
FN:1076,1077,_ZN9__gnu_cxx17__normal_iteratorIPN7testing14TestPartResultESt6vectorIS2_SaIS2_EEEC2ERKS3_
FN:1076,1077,_ZN9__gnu_cxx17__normal_iteratorIPN7testing8internal13edit_distance8EditTypeESt6vectorIS4_SaIS4_EEEC2ERKS5_
FN:1076,1077,_ZN9__gnu_cxx17__normal_iteratorIPN7testing8internal9TraceInfoESt6vectorIS3_SaIS3_EEEC2ERKS4_
FN:1076,1077,_ZN9__gnu_cxx17__normal_iteratorIPNSt7__cxx1112basic_stringIcSt11char_traitsIcESaIcEEESt6vectorIS6_SaIS6_EEEC2ERKS7_
FN:1076,1077,_ZN9__gnu_cxx17__normal_iteratorIPPN7testing11EnvironmentESt6vectorIS3_SaIS3_EEEC2ERKS4_
FN:1076,1077,_ZN9__gnu_cxx17__normal_iteratorIPPN7testing17TestEventListenerESt6vectorIS3_SaIS3_EEEC2ERKS4_
FN:1076,1077,_ZN9__gnu_cxx17__normal_iteratorIPPN7testing8TestInfoESt6vectorIS3_SaIS3_EEEC2ERKS4_
FN:1076,1077,_ZN9__gnu_cxx17__normal_iteratorIPPN7testing8internal30ParameterizedTestSuiteInfoBaseESt6vectorIS4_SaIS4_EEEC2ERKS5_
FN:1076,1077,_ZN9__gnu_cxx17__normal_iteratorIPPN7testing9TestSuiteESt6vectorIS3_SaIS3_EEEC2ERKS4_
FN:1076,1077,_ZN9__gnu_cxx17__normal_iteratorIPPcSt6vectorIS1_SaIS1_EEEC2ERKS2_
FN:1076,1077,_ZN9__gnu_cxx17__normal_iteratorIPcNSt7__cxx1112basic_stringIcSt11char_traitsIcESaIcEEEEC2ERKS1_
FN:1076,1077,_ZN9__gnu_cxx17__normal_iteratorIPiSt6vectorIiSaIiEEEC2ERKS1_
FN:1076,1077,_ZN9__gnu_cxx17__normal_iteratorIPmSt6vectorImSaImEEEC2ERKS1_
FN:1083,1094,_ZN9__gnu_cxx17__normal_iteratorIPKNSt7__cxx1112basic_stringIcSt11char_traitsIcESaIcEEESt6vectorIS6_SaIS6_EEEC2IPS6_vEERKNS0_IT_SB_EE
FN:1083,1094,_ZN9__gnu_cxx17__normal_iteratorIPKPN7testing17TestEventListenerESt6vectorIS3_SaIS3_EEEC2IPS3_vEERKNS0_IT_S8_EE
FN:1083,1094,_ZN9__gnu_cxx17__normal_iteratorIPKPN7testing9TestSuiteESt6vectorIS3_SaIS3_EEEC2IPS3_vEERKNS0_IT_S8_EE
FN:1083,1094,_ZN9__gnu_cxx17__normal_iteratorIPKcNSt7__cxx1112basic_stringIcSt11char_traitsIcESaIcEEEEC2IPcvEERKNS0_IT_S8_EE
FN:1099,1100,_ZNK9__gnu_cxx17__normal_iteratorIP9HashEntrySt6vectorIS1_SaIS1_EEEdeEv
FN:1099,1100,_ZNK9__gnu_cxx17__normal_iteratorIPKN7testing14TestPartResultESt6vectorIS2_SaIS2_EEEdeEv
FN:1099,1100,_ZNK9__gnu_cxx17__normal_iteratorIPKN7testing8internal13edit_distance8EditTypeESt6vectorIS4_SaIS4_EEEdeEv
FN:1099,1100,_ZNK9__gnu_cxx17__normal_iteratorIPKNSt7__cxx1112basic_stringIcSt11char_traitsIcESaIcEEESt6vectorIS6_SaIS6_EEEdeEv
FN:1099,1100,_ZNK9__gnu_cxx17__normal_iteratorIPKPN7testing11EnvironmentESt6vectorIS3_SaIS3_EEEdeEv
FN:1099,1100,_ZNK9__gnu_cxx17__normal_iteratorIPKPN7testing17TestEventListenerESt6vectorIS3_SaIS3_EEEdeEv
FN:1099,1100,_ZNK9__gnu_cxx17__normal_iteratorIPKPN7testing8TestInfoESt6vectorIS3_SaIS3_EEEdeEv
FN:1099,1100,_ZNK9__gnu_cxx17__normal_iteratorIPKPN7testing9TestSuiteESt6vectorIS3_SaIS3_EEEdeEv
FN:1099,1100,_ZNK9__gnu_cxx17__normal_iteratorIPKcNSt7__cxx1112basic_stringIcSt11char_traitsIcESaIcEEEEdeEv
FN:1099,1100,_ZNK9__gnu_cxx17__normal_iteratorIPN7testing12TestPropertyESt6vectorIS2_SaIS2_EEEdeEv
FN:1099,1100,_ZNK9__gnu_cxx17__normal_iteratorIPN7testing8internal13edit_distance8EditTypeESt6vectorIS4_SaIS4_EEEdeEv
FN:1099,1100,_ZNK9__gnu_cxx17__normal_iteratorIPNSt7__cxx1112basic_stringIcSt11char_traitsIcESaIcEEESt6vectorIS6_SaIS6_EEEdeEv
FN:1099,1100,_ZNK9__gnu_cxx17__normal_iteratorIPPN7testing11EnvironmentESt6vectorIS3_SaIS3_EEEdeEv
FN:1099,1100,_ZNK9__gnu_cxx17__normal_iteratorIPPN7testing8TestInfoESt6vectorIS3_SaIS3_EEEdeEv
FN:1099,1100,_ZNK9__gnu_cxx17__normal_iteratorIPPN7testing8internal30ParameterizedTestSuiteInfoBaseESt6vectorIS4_SaIS4_EEEdeEv
FN:1099,1100,_ZNK9__gnu_cxx17__normal_iteratorIPPN7testing9TestSuiteESt6vectorIS3_SaIS3_EEEdeEv
FN:1099,1100,_ZNK9__gnu_cxx17__normal_iteratorIPPcSt6vectorIS1_SaIS1_EEEdeEv
FN:1099,1100,_ZNK9__gnu_cxx17__normal_iteratorIPcNSt7__cxx1112basic_stringIcSt11char_traitsIcESaIcEEEEdeEv
FN:1099,1100,_ZNK9__gnu_cxx17__normal_iteratorIPiSt6vectorIiSaIiEEEdeEv
FN:1099,1100,_ZNK9__gnu_cxx17__normal_iteratorIPmSt6vectorImSaImEEEdeEv
FN:1104,1105,_ZNK9__gnu_cxx17__normal_iteratorIPN7testing12TestPropertyESt6vectorIS2_SaIS2_EEEptEv
FN:1109,1113,_ZN9__gnu_cxx17__normal_iteratorIP9HashEntrySt6vectorIS1_SaIS1_EEEppEv
FN:1109,1113,_ZN9__gnu_cxx17__normal_iteratorIPKN7testing14TestPartResultESt6vectorIS2_SaIS2_EEEppEv
FN:1109,1113,_ZN9__gnu_cxx17__normal_iteratorIPKN7testing8internal13edit_distance8EditTypeESt6vectorIS4_SaIS4_EEEppEv
FN:1109,1113,_ZN9__gnu_cxx17__normal_iteratorIPKNSt7__cxx1112basic_stringIcSt11char_traitsIcESaIcEEESt6vectorIS6_SaIS6_EEEppEv
FN:1109,1113,_ZN9__gnu_cxx17__normal_iteratorIPKPN7testing11EnvironmentESt6vectorIS3_SaIS3_EEEppEv
FN:1109,1113,_ZN9__gnu_cxx17__normal_iteratorIPKPN7testing17TestEventListenerESt6vectorIS3_SaIS3_EEEppEv
FN:1109,1113,_ZN9__gnu_cxx17__normal_iteratorIPKPN7testing8TestInfoESt6vectorIS3_SaIS3_EEEppEv
FN:1109,1113,_ZN9__gnu_cxx17__normal_iteratorIPKPN7testing9TestSuiteESt6vectorIS3_SaIS3_EEEppEv
FN:1109,1113,_ZN9__gnu_cxx17__normal_iteratorIPKcNSt7__cxx1112basic_stringIcSt11char_traitsIcESaIcEEEEppEv
FN:1109,1113,_ZN9__gnu_cxx17__normal_iteratorIPN7testing12TestPropertyESt6vectorIS2_SaIS2_EEEppEv
FN:1109,1113,_ZN9__gnu_cxx17__normal_iteratorIPN7testing8internal13edit_distance8EditTypeESt6vectorIS4_SaIS4_EEEppEv
FN:1109,1113,_ZN9__gnu_cxx17__normal_iteratorIPNSt7__cxx1112basic_stringIcSt11char_traitsIcESaIcEEESt6vectorIS6_SaIS6_EEEppEv
FN:1109,1113,_ZN9__gnu_cxx17__normal_iteratorIPPN7testing8TestInfoESt6vectorIS3_SaIS3_EEEppEv
FN:1109,1113,_ZN9__gnu_cxx17__normal_iteratorIPPN7testing8internal30ParameterizedTestSuiteInfoBaseESt6vectorIS4_SaIS4_EEEppEv
FN:1109,1113,_ZN9__gnu_cxx17__normal_iteratorIPPN7testing9TestSuiteESt6vectorIS3_SaIS3_EEEppEv
FN:1109,1113,_ZN9__gnu_cxx17__normal_iteratorIPcNSt7__cxx1112basic_stringIcSt11char_traitsIcESaIcEEEEppEv
FN:1117,1118,_ZN9__gnu_cxx17__normal_iteratorIPcNSt7__cxx1112basic_stringIcSt11char_traitsIcESaIcEEEEppEi
FN:1123,1127,_ZN9__gnu_cxx17__normal_iteratorIPN7testing8internal13edit_distance8EditTypeESt6vectorIS4_SaIS4_EEEmmEv
FN:1123,1127,_ZN9__gnu_cxx17__normal_iteratorIPNSt7__cxx1112basic_stringIcSt11char_traitsIcESaIcEEESt6vectorIS6_SaIS6_EEEmmEv
FN:1123,1127,_ZN9__gnu_cxx17__normal_iteratorIPPN7testing11EnvironmentESt6vectorIS3_SaIS3_EEEmmEv
FN:1123,1127,_ZN9__gnu_cxx17__normal_iteratorIPPN7testing8TestInfoESt6vectorIS3_SaIS3_EEEmmEv
FN:1123,1127,_ZN9__gnu_cxx17__normal_iteratorIPPN7testing9TestSuiteESt6vectorIS3_SaIS3_EEEmmEv
FN:1123,1127,_ZN9__gnu_cxx17__normal_iteratorIPcNSt7__cxx1112basic_stringIcSt11char_traitsIcESaIcEEEEmmEv
FN:1142,1143,_ZN9__gnu_cxx17__normal_iteratorIPPN7testing8TestInfoESt6vectorIS3_SaIS3_EEEpLEl
FN:1142,1143,_ZN9__gnu_cxx17__normal_iteratorIPcNSt7__cxx1112basic_stringIcSt11char_traitsIcESaIcEEEEpLEl
FN:1147,1148,_ZNK9__gnu_cxx17__normal_iteratorIPKN7testing8internal13edit_distance8EditTypeESt6vectorIS4_SaIS4_EEEplEl
FN:1147,1148,_ZNK9__gnu_cxx17__normal_iteratorIPNSt7__cxx1112basic_stringIcSt11char_traitsIcESaIcEEESt6vectorIS6_SaIS6_EEEplEl
FN:1147,1148,_ZNK9__gnu_cxx17__normal_iteratorIPPN7testing17TestEventListenerESt6vectorIS3_SaIS3_EEEplEl
FN:1147,1148,_ZNK9__gnu_cxx17__normal_iteratorIPPN7testing8TestInfoESt6vectorIS3_SaIS3_EEEplEl
FN:1147,1148,_ZNK9__gnu_cxx17__normal_iteratorIPPN7testing9TestSuiteESt6vectorIS3_SaIS3_EEEplEl
FN:1157,1158,_ZNK9__gnu_cxx17__normal_iteratorIPNSt7__cxx1112basic_stringIcSt11char_traitsIcESaIcEEESt6vectorIS6_SaIS6_EEEmiEl
FN:1157,1158,_ZNK9__gnu_cxx17__normal_iteratorIPPN7testing8TestInfoESt6vectorIS3_SaIS3_EEEmiEl
FN:1157,1158,_ZNK9__gnu_cxx17__normal_iteratorIPPcSt6vectorIS1_SaIS1_EEEmiEl
FN:1157,1158,_ZNK9__gnu_cxx17__normal_iteratorIPiSt6vectorIiSaIiEEEmiEl
FN:1157,1158,_ZNK9__gnu_cxx17__normal_iteratorIPmSt6vectorImSaImEEEmiEl
FN:1162,1163,_ZNK9__gnu_cxx17__normal_iteratorIP9HashEntrySt6vectorIS1_SaIS1_EEE4baseEv
FN:1162,1163,_ZNK9__gnu_cxx17__normal_iteratorIPKN7testing14TestPartResultESt6vectorIS2_SaIS2_EEE4baseEv
FN:1162,1163,_ZNK9__gnu_cxx17__normal_iteratorIPKN7testing8internal13edit_distance8EditTypeESt6vectorIS4_SaIS4_EEE4baseEv
FN:1162,1163,_ZNK9__gnu_cxx17__normal_iteratorIPKN7testing8internal9TraceInfoESt6vectorIS3_SaIS3_EEE4baseEv
FN:1162,1163,_ZNK9__gnu_cxx17__normal_iteratorIPKNSt7__cxx1112basic_stringIcSt11char_traitsIcESaIcEEESt6vectorIS6_SaIS6_EEE4baseEv
FN:1162,1163,_ZNK9__gnu_cxx17__normal_iteratorIPKPN7testing11EnvironmentESt6vectorIS3_SaIS3_EEE4baseEv
FN:1162,1163,_ZNK9__gnu_cxx17__normal_iteratorIPKPN7testing17TestEventListenerESt6vectorIS3_SaIS3_EEE4baseEv
FN:1162,1163,_ZNK9__gnu_cxx17__normal_iteratorIPKPN7testing8TestInfoESt6vectorIS3_SaIS3_EEE4baseEv
FN:1162,1163,_ZNK9__gnu_cxx17__normal_iteratorIPKPN7testing9TestSuiteESt6vectorIS3_SaIS3_EEE4baseEv
FN:1162,1163,_ZNK9__gnu_cxx17__normal_iteratorIPKcNSt7__cxx1112basic_stringIcSt11char_traitsIcESaIcEEEE4baseEv
FN:1162,1163,_ZNK9__gnu_cxx17__normal_iteratorIPKdSt6vectorIdSaIdEEE4baseEv
FN:1162,1163,_ZNK9__gnu_cxx17__normal_iteratorIPN7testing12TestPropertyESt6vectorIS2_SaIS2_EEE4baseEv
FN:1162,1163,_ZNK9__gnu_cxx17__normal_iteratorIPN7testing14TestPartResultESt6vectorIS2_SaIS2_EEE4baseEv
FN:1162,1163,_ZNK9__gnu_cxx17__normal_iteratorIPN7testing8internal13edit_distance8EditTypeESt6vectorIS4_SaIS4_EEE4baseEv
FN:1162,1163,_ZNK9__gnu_cxx17__normal_iteratorIPN7testing8internal9TraceInfoESt6vectorIS3_SaIS3_EEE4baseEv
FN:1162,1163,_ZNK9__gnu_cxx17__normal_iteratorIPNSt7__cxx1112basic_stringIcSt11char_traitsIcESaIcEEESt6vectorIS6_SaIS6_EEE4baseEv
FN:1162,1163,_ZNK9__gnu_cxx17__normal_iteratorIPPN7testing11EnvironmentESt6vectorIS3_SaIS3_EEE4baseEv
FN:1162,1163,_ZNK9__gnu_cxx17__normal_iteratorIPPN7testing17TestEventListenerESt6vectorIS3_SaIS3_EEE4baseEv
FN:1162,1163,_ZNK9__gnu_cxx17__normal_iteratorIPPN7testing8TestInfoESt6vectorIS3_SaIS3_EEE4baseEv
FN:1162,1163,_ZNK9__gnu_cxx17__normal_iteratorIPPN7testing8internal30ParameterizedTestSuiteInfoBaseESt6vectorIS4_SaIS4_EEE4baseEv
FN:1162,1163,_ZNK9__gnu_cxx17__normal_iteratorIPPN7testing9TestSuiteESt6vectorIS3_SaIS3_EEE4baseEv
FN:1162,1163,_ZNK9__gnu_cxx17__normal_iteratorIPPcSt6vectorIS1_SaIS1_EEE4baseEv
FN:1162,1163,_ZNK9__gnu_cxx17__normal_iteratorIPcNSt7__cxx1112basic_stringIcSt11char_traitsIcESaIcEEEE4baseEv
FN:1162,1163,_ZNK9__gnu_cxx17__normal_iteratorIPiSt6vectorIiSaIiEEE4baseEv
FN:1162,1163,_ZNK9__gnu_cxx17__normal_iteratorIPmSt6vectorImSaImEEE4baseEv
FN:1217,1220,_ZN9__gnu_cxxeqIPKPN7testing9TestSuiteEPS3_St6vectorIS3_SaIS3_EEEEbRKNS_17__normal_iteratorIT_T1_EERKNSA_IT0_SC_EE
FN:1225,1228,_ZN9__gnu_cxxeqIPKN7testing8internal13edit_distance8EditTypeESt6vectorIS4_SaIS4_EEEEbRKNS_17__normal_iteratorIT_T0_EESF_
FN:1225,1228,_ZN9__gnu_cxxeqIPKN7testing8internal9TraceInfoESt6vectorIS3_SaIS3_EEEEbRKNS_17__normal_iteratorIT_T0_EESE_
FN:1225,1228,_ZN9__gnu_cxxeqIPKNSt7__cxx1112basic_stringIcSt11char_traitsIcESaIcEEESt6vectorIS6_SaIS6_EEEEbRKNS_17__normal_iteratorIT_T0_EESH_
FN:1225,1228,_ZN9__gnu_cxxeqIPKPN7testing9TestSuiteESt6vectorIS3_SaIS3_EEEEbRKNS_17__normal_iteratorIT_T0_EESE_
FN:1225,1228,_ZN9__gnu_cxxeqIPKcNSt7__cxx1112basic_stringIcSt11char_traitsIcESaIcEEEEEbRKNS_17__normal_iteratorIT_T0_EESE_
FN:1225,1228,_ZN9__gnu_cxxeqIPN7testing12TestPropertyESt6vectorIS2_SaIS2_EEEEbRKNS_17__normal_iteratorIT_T0_EESC_
FN:1225,1228,_ZN9__gnu_cxxeqIPN7testing8internal13edit_distance8EditTypeESt6vectorIS4_SaIS4_EEEEbRKNS_17__normal_iteratorIT_T0_EESE_
FN:1225,1228,_ZN9__gnu_cxxeqIPNSt7__cxx1112basic_stringIcSt11char_traitsIcESaIcEEESt6vectorIS6_SaIS6_EEEEbRKNS_17__normal_iteratorIT_T0_EESG_
FN:1225,1228,_ZN9__gnu_cxxeqIPPN7testing11EnvironmentESt6vectorIS3_SaIS3_EEEEbRKNS_17__normal_iteratorIT_T0_EESD_
FN:1225,1228,_ZN9__gnu_cxxeqIPPN7testing8TestInfoESt6vectorIS3_SaIS3_EEEEbRKNS_17__normal_iteratorIT_T0_EESD_
FN:1225,1228,_ZN9__gnu_cxxeqIPcNSt7__cxx1112basic_stringIcSt11char_traitsIcESaIcEEEEEbRKNS_17__normal_iteratorIT_T0_EESD_
FN:1233,1236,_ZN9__gnu_cxxneIPKNSt7__cxx1112basic_stringIcSt11char_traitsIcESaIcEEEPS6_St6vectorIS6_SaIS6_EEEEbRKNS_17__normal_iteratorIT_T1_EERKNSD_IT0_SF_EE
FN:1233,1236,_ZN9__gnu_cxxneIPKcPcNSt7__cxx1112basic_stringIcSt11char_traitsIcESaIcEEEEEbRKNS_17__normal_iteratorIT_T1_EERKNSA_IT0_SC_EE
FN:1241,1244,_ZN9__gnu_cxxneIP9HashEntrySt6vectorIS1_SaIS1_EEEEbRKNS_17__normal_iteratorIT_T0_EESB_
FN:1241,1244,_ZN9__gnu_cxxneIPKN7testing14TestPartResultESt6vectorIS2_SaIS2_EEEEbRKNS_17__normal_iteratorIT_T0_EESD_
FN:1241,1244,_ZN9__gnu_cxxneIPKN7testing8internal13edit_distance8EditTypeESt6vectorIS4_SaIS4_EEEEbRKNS_17__normal_iteratorIT_T0_EESF_
FN:1241,1244,_ZN9__gnu_cxxneIPKNSt7__cxx1112basic_stringIcSt11char_traitsIcESaIcEEESt6vectorIS6_SaIS6_EEEEbRKNS_17__normal_iteratorIT_T0_EESH_
FN:1241,1244,_ZN9__gnu_cxxneIPKPN7testing11EnvironmentESt6vectorIS3_SaIS3_EEEEbRKNS_17__normal_iteratorIT_T0_EESE_
FN:1241,1244,_ZN9__gnu_cxxneIPKPN7testing17TestEventListenerESt6vectorIS3_SaIS3_EEEEbRKNS_17__normal_iteratorIT_T0_EESE_
FN:1241,1244,_ZN9__gnu_cxxneIPKPN7testing8TestInfoESt6vectorIS3_SaIS3_EEEEbRKNS_17__normal_iteratorIT_T0_EESE_
FN:1241,1244,_ZN9__gnu_cxxneIPKPN7testing9TestSuiteESt6vectorIS3_SaIS3_EEEEbRKNS_17__normal_iteratorIT_T0_EESE_
FN:1241,1244,_ZN9__gnu_cxxneIPKcNSt7__cxx1112basic_stringIcSt11char_traitsIcESaIcEEEEEbRKNS_17__normal_iteratorIT_T0_EESE_
FN:1241,1244,_ZN9__gnu_cxxneIPNSt7__cxx1112basic_stringIcSt11char_traitsIcESaIcEEESt6vectorIS6_SaIS6_EEEEbRKNS_17__normal_iteratorIT_T0_EESG_
FN:1241,1244,_ZN9__gnu_cxxneIPPN7testing17TestEventListenerESt6vectorIS3_SaIS3_EEEEbRKNS_17__normal_iteratorIT_T0_EESD_
FN:1241,1244,_ZN9__gnu_cxxneIPPN7testing8TestInfoESt6vectorIS3_SaIS3_EEEEbRKNS_17__normal_iteratorIT_T0_EESD_
FN:1241,1244,_ZN9__gnu_cxxneIPPN7testing8internal30ParameterizedTestSuiteInfoBaseESt6vectorIS4_SaIS4_EEEEbRKNS_17__normal_iteratorIT_T0_EESE_
FN:1241,1244,_ZN9__gnu_cxxneIPPN7testing9TestSuiteESt6vectorIS3_SaIS3_EEEEbRKNS_17__normal_iteratorIT_T0_EESD_
FN:1241,1244,_ZN9__gnu_cxxneIPcNSt7__cxx1112basic_stringIcSt11char_traitsIcESaIcEEEEEbRKNS_17__normal_iteratorIT_T0_EESD_
FN:1258,1261,_ZN9__gnu_cxxltIPN7testing8internal13edit_distance8EditTypeESt6vectorIS4_SaIS4_EEEEbRKNS_17__normal_iteratorIT_T0_EESE_
FN:1321,1329,_ZN9__gnu_cxxmiIPKPN7testing9TestSuiteEPS3_St6vectorIS3_SaIS3_EEEEDTmicldtfp_4baseEcldtfp0_4baseEERKNS_17__normal_iteratorIT_T1_EERKNSB_IT0_SD_EE
FN:1334,1337,_ZN9__gnu_cxxmiIPKN7testing8internal13edit_distance8EditTypeESt6vectorIS4_SaIS4_EEEENS_17__normal_iteratorIT_T0_E15difference_typeERKSD_SG_
FN:1334,1337,_ZN9__gnu_cxxmiIPKNSt7__cxx1112basic_stringIcSt11char_traitsIcESaIcEEESt6vectorIS6_SaIS6_EEEENS_17__normal_iteratorIT_T0_E15difference_typeERKSF_SI_
FN:1334,1337,_ZN9__gnu_cxxmiIPKPN7testing17TestEventListenerESt6vectorIS3_SaIS3_EEEENS_17__normal_iteratorIT_T0_E15difference_typeERKSC_SF_
FN:1334,1337,_ZN9__gnu_cxxmiIPKPN7testing9TestSuiteESt6vectorIS3_SaIS3_EEEENS_17__normal_iteratorIT_T0_E15difference_typeERKSC_SF_
FN:1334,1337,_ZN9__gnu_cxxmiIPKcNSt7__cxx1112basic_stringIcSt11char_traitsIcESaIcEEEEENS_17__normal_iteratorIT_T0_E15difference_typeERKSC_SF_
FN:1334,1337,_ZN9__gnu_cxxmiIPN7testing12TestPropertyESt6vectorIS2_SaIS2_EEEENS_17__normal_iteratorIT_T0_E15difference_typeERKSA_SD_
FN:1334,1337,_ZN9__gnu_cxxmiIPN7testing14TestPartResultESt6vectorIS2_SaIS2_EEEENS_17__normal_iteratorIT_T0_E15difference_typeERKSA_SD_
FN:1334,1337,_ZN9__gnu_cxxmiIPN7testing8internal13edit_distance8EditTypeESt6vectorIS4_SaIS4_EEEENS_17__normal_iteratorIT_T0_E15difference_typeERKSC_SF_
FN:1334,1337,_ZN9__gnu_cxxmiIPN7testing8internal9TraceInfoESt6vectorIS3_SaIS3_EEEENS_17__normal_iteratorIT_T0_E15difference_typeERKSB_SE_
FN:1334,1337,_ZN9__gnu_cxxmiIPNSt7__cxx1112basic_stringIcSt11char_traitsIcESaIcEEESt6vectorIS6_SaIS6_EEEENS_17__normal_iteratorIT_T0_E15difference_typeERKSE_SH_
FN:1334,1337,_ZN9__gnu_cxxmiIPPN7testing11EnvironmentESt6vectorIS3_SaIS3_EEEENS_17__normal_iteratorIT_T0_E15difference_typeERKSB_SE_
FN:1334,1337,_ZN9__gnu_cxxmiIPPN7testing17TestEventListenerESt6vectorIS3_SaIS3_EEEENS_17__normal_iteratorIT_T0_E15difference_typeERKSB_SE_
FN:1334,1337,_ZN9__gnu_cxxmiIPPN7testing8TestInfoESt6vectorIS3_SaIS3_EEEENS_17__normal_iteratorIT_T0_E15difference_typeERKSB_SE_
FN:1334,1337,_ZN9__gnu_cxxmiIPPN7testing9TestSuiteESt6vectorIS3_SaIS3_EEEENS_17__normal_iteratorIT_T0_E15difference_typeERKSB_SE_
FN:1334,1337,_ZN9__gnu_cxxmiIPPcSt6vectorIS1_SaIS1_EEEENS_17__normal_iteratorIT_T0_E15difference_typeERKS9_SC_
FN:1334,1337,_ZN9__gnu_cxxmiIPiSt6vectorIiSaIiEEEENS_17__normal_iteratorIT_T0_E15difference_typeERKS8_SB_
FN:1334,1337,_ZN9__gnu_cxxmiIPmSt6vectorImSaImEEEENS_17__normal_iteratorIT_T0_E15difference_typeERKS8_SB_
FN:1357,1359,_ZSt12__niter_baseIPKN7testing8internal13edit_distance8EditTypeESt6vectorIS3_SaIS3_EEET_N9__gnu_cxx17__normal_iteratorIS9_T0_EE
FN:1357,1359,_ZSt12__niter_baseIPKdSt6vectorIdSaIdEEET_N9__gnu_cxx17__normal_iteratorIS5_T0_EE
FN:1357,1359,_ZSt12__niter_baseIPNSt7__cxx1112basic_stringIcSt11char_traitsIcESaIcEEESt6vectorIS5_SaIS5_EEET_N9__gnu_cxx17__normal_iteratorISA_T0_EE
FN:1357,1359,_ZSt12__niter_baseIPPN7testing17TestEventListenerESt6vectorIS2_SaIS2_EEET_N9__gnu_cxx17__normal_iteratorIS7_T0_EE
FN:1357,1359,_ZSt12__niter_baseIPPN7testing8TestInfoESt6vectorIS2_SaIS2_EEET_N9__gnu_cxx17__normal_iteratorIS7_T0_EE
FN:195,198,_ZNSt16reverse_iteratorIN9__gnu_cxx17__normal_iteratorIPPN7testing11EnvironmentESt6vectorIS4_SaIS4_EEEEEC2ES9_
FN:195,198,_ZNSt16reverse_iteratorIN9__gnu_cxx17__normal_iteratorIPPN7testing9TestSuiteESt6vectorIS4_SaIS4_EEEEEC2ES9_
FN:248,250,_ZNKSt16reverse_iteratorIN9__gnu_cxx17__normal_iteratorIPPN7testing11EnvironmentESt6vectorIS4_SaIS4_EEEEE4baseEv
FN:264,268,_ZNKSt16reverse_iteratorIN9__gnu_cxx17__normal_iteratorIPPN7testing11EnvironmentESt6vectorIS4_SaIS4_EEEEEdeEv
FN:264,268,_ZNKSt16reverse_iteratorIN9__gnu_cxx17__normal_iteratorIPPN7testing9TestSuiteESt6vectorIS4_SaIS4_EEEEEdeEv
FN:296,300,_ZNSt16reverse_iteratorIN9__gnu_cxx17__normal_iteratorIPPN7testing11EnvironmentESt6vectorIS4_SaIS4_EEEEEppEv
FN:448,450,_ZSteqIN9__gnu_cxx17__normal_iteratorIPPN7testing11EnvironmentESt6vectorIS4_SaIS4_EEEEEbRKSt16reverse_iteratorIT_ESE_
FN:462,464,_ZStneIN9__gnu_cxx17__normal_iteratorIPPN7testing11EnvironmentESt6vectorIS4_SaIS4_EEEEEbRKSt16reverse_iteratorIT_ESE_
FN:929,930,_ZNSt15insert_iteratorISt13unordered_setINSt7__cxx1112basic_stringIcSt11char_traitsIcESaIcEEESt4hashIS6_ESt8equal_toIS6_ESaIS6_EEEC2ERSC_NSt8__detail14_Node_iteratorIS6_Lb1ELb1EEE
FN:929,930,_ZNSt15insert_iteratorISt6vectorINSt7__cxx1112basic_stringIcSt11char_traitsIcESaIcEEESaIS6_EEEC2ERS8_N9__gnu_cxx17__normal_iteratorIPS6_S8_EE
FN:975,980,_ZNSt15insert_iteratorISt13unordered_setINSt7__cxx1112basic_stringIcSt11char_traitsIcESaIcEEESt4hashIS6_ESt8equal_toIS6_ESaIS6_EEEaSEOS6_
FN:975,980,_ZNSt15insert_iteratorISt6vectorINSt7__cxx1112basic_stringIcSt11char_traitsIcESaIcEEESaIS6_EEEaSEOS6_
FN:986,987,_ZNSt15insert_iteratorISt13unordered_setINSt7__cxx1112basic_stringIcSt11char_traitsIcESaIcEEESt4hashIS6_ESt8equal_toIS6_ESaIS6_EEEdeEv
FN:986,987,_ZNSt15insert_iteratorISt6vectorINSt7__cxx1112basic_stringIcSt11char_traitsIcESaIcEEESaIS6_EEEdeEv
FN:992,993,_ZNSt15insert_iteratorISt13unordered_setINSt7__cxx1112basic_stringIcSt11char_traitsIcESaIcEEESt4hashIS6_ESt8equal_toIS6_ESaIS6_EEEppEv
FN:992,993,_ZNSt15insert_iteratorISt6vectorINSt7__cxx1112basic_stringIcSt11char_traitsIcESaIcEEESaIS6_EEEppEv
FNDA:10,_ZSt8inserterISt13unordered_setINSt7__cxx1112basic_stringIcSt11char_traitsIcESaIcEEESt4hashIS6_ESt8equal_toIS6_ESaIS6_EEESt15insert_iteratorIT_ERSE_NSE_8iteratorE
FNDA:10,_ZSt8inserterISt6vectorINSt7__cxx1112basic_stringIcSt11char_traitsIcESaIcEEESaIS6_EEESt15insert_iteratorIT_ERSA_NSA_8iteratorE
FNDA:0,_ZN9__gnu_cxx17__normal_iteratorIPKPN7testing9TestSuiteESt6vectorIS3_SaIS3_EEEC2Ev
FNDA:2,_ZN9__gnu_cxx17__normal_iteratorIP9HashEntrySt6vectorIS1_SaIS1_EEEC2ERKS2_
FNDA:110,_ZN9__gnu_cxx17__normal_iteratorIPKN7testing14TestPartResultESt6vectorIS2_SaIS2_EEEC2ERKS4_
FNDA:0,_ZN9__gnu_cxx17__normal_iteratorIPKN7testing8internal13edit_distance8EditTypeESt6vectorIS4_SaIS4_EEEC2ERKS6_
FNDA:4,_ZN9__gnu_cxx17__normal_iteratorIPKN7testing8internal9TraceInfoESt6vectorIS3_SaIS3_EEEC2ERKS5_
FNDA:118,_ZN9__gnu_cxx17__normal_iteratorIPKNSt7__cxx1112basic_stringIcSt11char_traitsIcESaIcEEESt6vectorIS6_SaIS6_EEEC2ERKS8_
FNDA:6,_ZN9__gnu_cxx17__normal_iteratorIPKPN7testing11EnvironmentESt6vectorIS3_SaIS3_EEEC2ERKS5_
FNDA:2,_ZN9__gnu_cxx17__normal_iteratorIPKPN7testing17TestEventListenerESt6vectorIS3_SaIS3_EEEC2ERKS5_
FNDA:259,_ZN9__gnu_cxx17__normal_iteratorIPKPN7testing8TestInfoESt6vectorIS3_SaIS3_EEEC2ERKS5_
FNDA:56,_ZN9__gnu_cxx17__normal_iteratorIPKPN7testing9TestSuiteESt6vectorIS3_SaIS3_EEEC2ERKS5_
FNDA:0,_ZN9__gnu_cxx17__normal_iteratorIPKdSt6vectorIdSaIdEEEC2ERKS2_
FNDA:0,_ZN9__gnu_cxx17__normal_iteratorIPN7testing12TestPropertyESt6vectorIS2_SaIS2_EEEC2ERKS3_
FNDA:4,_ZN9__gnu_cxx17__normal_iteratorIPN7testing14TestPartResultESt6vectorIS2_SaIS2_EEEC2ERKS3_
FNDA:0,_ZN9__gnu_cxx17__normal_iteratorIPN7testing8internal13edit_distance8EditTypeESt6vectorIS4_SaIS4_EEEC2ERKS5_
FNDA:0,_ZN9__gnu_cxx17__normal_iteratorIPN7testing8internal9TraceInfoESt6vectorIS3_SaIS3_EEEC2ERKS4_
FNDA:180,_ZN9__gnu_cxx17__normal_iteratorIPNSt7__cxx1112basic_stringIcSt11char_traitsIcESaIcEEESt6vectorIS6_SaIS6_EEEC2ERKS7_
FNDA:2,_ZN9__gnu_cxx17__normal_iteratorIPPN7testing11EnvironmentESt6vectorIS3_SaIS3_EEEC2ERKS4_
FNDA:2,_ZN9__gnu_cxx17__normal_iteratorIPPN7testing17TestEventListenerESt6vectorIS3_SaIS3_EEEC2ERKS4_
FNDA:58,_ZN9__gnu_cxx17__normal_iteratorIPPN7testing8TestInfoESt6vectorIS3_SaIS3_EEEC2ERKS4_
FNDA:4,_ZN9__gnu_cxx17__normal_iteratorIPPN7testing8internal30ParameterizedTestSuiteInfoBaseESt6vectorIS4_SaIS4_EEEC2ERKS5_
FNDA:16,_ZN9__gnu_cxx17__normal_iteratorIPPN7testing9TestSuiteESt6vectorIS3_SaIS3_EEEC2ERKS4_
FNDA:0,_ZN9__gnu_cxx17__normal_iteratorIPPcSt6vectorIS1_SaIS1_EEEC2ERKS2_
FNDA:24,_ZN9__gnu_cxx17__normal_iteratorIPcNSt7__cxx1112basic_stringIcSt11char_traitsIcESaIcEEEEC2ERKS1_
FNDA:50,_ZN9__gnu_cxx17__normal_iteratorIPiSt6vectorIiSaIiEEEC2ERKS1_
FNDA:0,_ZN9__gnu_cxx17__normal_iteratorIPmSt6vectorImSaImEEEC2ERKS1_
FNDA:18,_ZN9__gnu_cxx17__normal_iteratorIPKNSt7__cxx1112basic_stringIcSt11char_traitsIcESaIcEEESt6vectorIS6_SaIS6_EEEC2IPS6_vEERKNS0_IT_SB_EE
FNDA:0,_ZN9__gnu_cxx17__normal_iteratorIPKPN7testing17TestEventListenerESt6vectorIS3_SaIS3_EEEC2IPS3_vEERKNS0_IT_S8_EE
FNDA:0,_ZN9__gnu_cxx17__normal_iteratorIPKPN7testing9TestSuiteESt6vectorIS3_SaIS3_EEEC2IPS3_vEERKNS0_IT_S8_EE
FNDA:2,_ZN9__gnu_cxx17__normal_iteratorIPKcNSt7__cxx1112basic_stringIcSt11char_traitsIcESaIcEEEEC2IPcvEERKNS0_IT_S8_EE
FNDA:5,_ZNK9__gnu_cxx17__normal_iteratorIP9HashEntrySt6vectorIS1_SaIS1_EEEdeEv
FNDA:0,_ZNK9__gnu_cxx17__normal_iteratorIPKN7testing14TestPartResultESt6vectorIS2_SaIS2_EEEdeEv
FNDA:0,_ZNK9__gnu_cxx17__normal_iteratorIPKN7testing8internal13edit_distance8EditTypeESt6vectorIS4_SaIS4_EEEdeEv
FNDA:51,_ZNK9__gnu_cxx17__normal_iteratorIPKNSt7__cxx1112basic_stringIcSt11char_traitsIcESaIcEEESt6vectorIS6_SaIS6_EEEdeEv
FNDA:0,_ZNK9__gnu_cxx17__normal_iteratorIPKPN7testing11EnvironmentESt6vectorIS3_SaIS3_EEEdeEv
FNDA:1,_ZNK9__gnu_cxx17__normal_iteratorIPKPN7testing17TestEventListenerESt6vectorIS3_SaIS3_EEEdeEv
FNDA:91,_ZNK9__gnu_cxx17__normal_iteratorIPKPN7testing8TestInfoESt6vectorIS3_SaIS3_EEEdeEv
FNDA:43,_ZNK9__gnu_cxx17__normal_iteratorIPKPN7testing9TestSuiteESt6vectorIS3_SaIS3_EEEdeEv
FNDA:51,_ZNK9__gnu_cxx17__normal_iteratorIPKcNSt7__cxx1112basic_stringIcSt11char_traitsIcESaIcEEEEdeEv
FNDA:0,_ZNK9__gnu_cxx17__normal_iteratorIPN7testing12TestPropertyESt6vectorIS2_SaIS2_EEEdeEv
FNDA:0,_ZNK9__gnu_cxx17__normal_iteratorIPN7testing8internal13edit_distance8EditTypeESt6vectorIS4_SaIS4_EEEdeEv
FNDA:45,_ZNK9__gnu_cxx17__normal_iteratorIPNSt7__cxx1112basic_stringIcSt11char_traitsIcESaIcEEESt6vectorIS6_SaIS6_EEEdeEv
FNDA:0,_ZNK9__gnu_cxx17__normal_iteratorIPPN7testing11EnvironmentESt6vectorIS3_SaIS3_EEEdeEv
FNDA:8,_ZNK9__gnu_cxx17__normal_iteratorIPPN7testing8TestInfoESt6vectorIS3_SaIS3_EEEdeEv
FNDA:0,_ZNK9__gnu_cxx17__normal_iteratorIPPN7testing8internal30ParameterizedTestSuiteInfoBaseESt6vectorIS4_SaIS4_EEEdeEv
FNDA:13,_ZNK9__gnu_cxx17__normal_iteratorIPPN7testing9TestSuiteESt6vectorIS3_SaIS3_EEEdeEv
FNDA:0,_ZNK9__gnu_cxx17__normal_iteratorIPPcSt6vectorIS1_SaIS1_EEEdeEv
FNDA:39,_ZNK9__gnu_cxx17__normal_iteratorIPcNSt7__cxx1112basic_stringIcSt11char_traitsIcESaIcEEEEdeEv
FNDA:14,_ZNK9__gnu_cxx17__normal_iteratorIPiSt6vectorIiSaIiEEEdeEv
FNDA:0,_ZNK9__gnu_cxx17__normal_iteratorIPmSt6vectorImSaImEEEdeEv
FNDA:0,_ZNK9__gnu_cxx17__normal_iteratorIPN7testing12TestPropertyESt6vectorIS2_SaIS2_EEEptEv
FNDA:5,_ZN9__gnu_cxx17__normal_iteratorIP9HashEntrySt6vectorIS1_SaIS1_EEEppEv
FNDA:0,_ZN9__gnu_cxx17__normal_iteratorIPKN7testing14TestPartResultESt6vectorIS2_SaIS2_EEEppEv
FNDA:0,_ZN9__gnu_cxx17__normal_iteratorIPKN7testing8internal13edit_distance8EditTypeESt6vectorIS4_SaIS4_EEEppEv
FNDA:43,_ZN9__gnu_cxx17__normal_iteratorIPKNSt7__cxx1112basic_stringIcSt11char_traitsIcESaIcEEESt6vectorIS6_SaIS6_EEEppEv
FNDA:0,_ZN9__gnu_cxx17__normal_iteratorIPKPN7testing11EnvironmentESt6vectorIS3_SaIS3_EEEppEv
FNDA:1,_ZN9__gnu_cxx17__normal_iteratorIPKPN7testing17TestEventListenerESt6vectorIS3_SaIS3_EEEppEv
FNDA:91,_ZN9__gnu_cxx17__normal_iteratorIPKPN7testing8TestInfoESt6vectorIS3_SaIS3_EEEppEv
FNDA:42,_ZN9__gnu_cxx17__normal_iteratorIPKPN7testing9TestSuiteESt6vectorIS3_SaIS3_EEEppEv
FNDA:33,_ZN9__gnu_cxx17__normal_iteratorIPKcNSt7__cxx1112basic_stringIcSt11char_traitsIcESaIcEEEEppEv
FNDA:0,_ZN9__gnu_cxx17__normal_iteratorIPN7testing12TestPropertyESt6vectorIS2_SaIS2_EEEppEv
FNDA:0,_ZN9__gnu_cxx17__normal_iteratorIPN7testing8internal13edit_distance8EditTypeESt6vectorIS4_SaIS4_EEEppEv
FNDA:36,_ZN9__gnu_cxx17__normal_iteratorIPNSt7__cxx1112basic_stringIcSt11char_traitsIcESaIcEEESt6vectorIS6_SaIS6_EEEppEv
FNDA:7,_ZN9__gnu_cxx17__normal_iteratorIPPN7testing8TestInfoESt6vectorIS3_SaIS3_EEEppEv
FNDA:0,_ZN9__gnu_cxx17__normal_iteratorIPPN7testing8internal30ParameterizedTestSuiteInfoBaseESt6vectorIS4_SaIS4_EEEppEv
FNDA:7,_ZN9__gnu_cxx17__normal_iteratorIPPN7testing9TestSuiteESt6vectorIS3_SaIS3_EEEppEv
FNDA:12,_ZN9__gnu_cxx17__normal_iteratorIPcNSt7__cxx1112basic_stringIcSt11char_traitsIcESaIcEEEEppEv
FNDA:24,_ZN9__gnu_cxx17__normal_iteratorIPcNSt7__cxx1112basic_stringIcSt11char_traitsIcESaIcEEEEppEi
FNDA:0,_ZN9__gnu_cxx17__normal_iteratorIPN7testing8internal13edit_distance8EditTypeESt6vectorIS4_SaIS4_EEEmmEv
FNDA:0,_ZN9__gnu_cxx17__normal_iteratorIPNSt7__cxx1112basic_stringIcSt11char_traitsIcESaIcEEESt6vectorIS6_SaIS6_EEEmmEv
FNDA:0,_ZN9__gnu_cxx17__normal_iteratorIPPN7testing11EnvironmentESt6vectorIS3_SaIS3_EEEmmEv
FNDA:0,_ZN9__gnu_cxx17__normal_iteratorIPPN7testing8TestInfoESt6vectorIS3_SaIS3_EEEmmEv
FNDA:6,_ZN9__gnu_cxx17__normal_iteratorIPPN7testing9TestSuiteESt6vectorIS3_SaIS3_EEEmmEv
FNDA:0,_ZN9__gnu_cxx17__normal_iteratorIPcNSt7__cxx1112basic_stringIcSt11char_traitsIcESaIcEEEEmmEv
FNDA:0,_ZN9__gnu_cxx17__normal_iteratorIPPN7testing8TestInfoESt6vectorIS3_SaIS3_EEEpLEl
FNDA:3,_ZN9__gnu_cxx17__normal_iteratorIPcNSt7__cxx1112basic_stringIcSt11char_traitsIcESaIcEEEEpLEl
FNDA:0,_ZNK9__gnu_cxx17__normal_iteratorIPKN7testing8internal13edit_distance8EditTypeESt6vectorIS4_SaIS4_EEEplEl
FNDA:0,_ZNK9__gnu_cxx17__normal_iteratorIPNSt7__cxx1112basic_stringIcSt11char_traitsIcESaIcEEESt6vectorIS6_SaIS6_EEEplEl
FNDA:0,_ZNK9__gnu_cxx17__normal_iteratorIPPN7testing17TestEventListenerESt6vectorIS3_SaIS3_EEEplEl
FNDA:14,_ZNK9__gnu_cxx17__normal_iteratorIPPN7testing8TestInfoESt6vectorIS3_SaIS3_EEEplEl
FNDA:0,_ZNK9__gnu_cxx17__normal_iteratorIPPN7testing9TestSuiteESt6vectorIS3_SaIS3_EEEplEl
FNDA:25,_ZNK9__gnu_cxx17__normal_iteratorIPNSt7__cxx1112basic_stringIcSt11char_traitsIcESaIcEEESt6vectorIS6_SaIS6_EEEmiEl
FNDA:0,_ZNK9__gnu_cxx17__normal_iteratorIPPN7testing8TestInfoESt6vectorIS3_SaIS3_EEEmiEl
FNDA:0,_ZNK9__gnu_cxx17__normal_iteratorIPPcSt6vectorIS1_SaIS1_EEEmiEl
FNDA:14,_ZNK9__gnu_cxx17__normal_iteratorIPiSt6vectorIiSaIiEEEmiEl
FNDA:0,_ZNK9__gnu_cxx17__normal_iteratorIPmSt6vectorImSaImEEEmiEl
FNDA:12,_ZNK9__gnu_cxx17__normal_iteratorIP9HashEntrySt6vectorIS1_SaIS1_EEE4baseEv
FNDA:110,_ZNK9__gnu_cxx17__normal_iteratorIPKN7testing14TestPartResultESt6vectorIS2_SaIS2_EEE4baseEv
FNDA:0,_ZNK9__gnu_cxx17__normal_iteratorIPKN7testing8internal13edit_distance8EditTypeESt6vectorIS4_SaIS4_EEE4baseEv
FNDA:4,_ZNK9__gnu_cxx17__normal_iteratorIPKN7testing8internal9TraceInfoESt6vectorIS3_SaIS3_EEE4baseEv
FNDA:304,_ZNK9__gnu_cxx17__normal_iteratorIPKNSt7__cxx1112basic_stringIcSt11char_traitsIcESaIcEEESt6vectorIS6_SaIS6_EEE4baseEv
FNDA:6,_ZNK9__gnu_cxx17__normal_iteratorIPKPN7testing11EnvironmentESt6vectorIS3_SaIS3_EEE4baseEv
FNDA:4,_ZNK9__gnu_cxx17__normal_iteratorIPKPN7testing17TestEventListenerESt6vectorIS3_SaIS3_EEE4baseEv
FNDA:364,_ZNK9__gnu_cxx17__normal_iteratorIPKPN7testing8TestInfoESt6vectorIS3_SaIS3_EEE4baseEv
FNDA:112,_ZNK9__gnu_cxx17__normal_iteratorIPKPN7testing9TestSuiteESt6vectorIS3_SaIS3_EEE4baseEv
FNDA:103,_ZNK9__gnu_cxx17__normal_iteratorIPKcNSt7__cxx1112basic_stringIcSt11char_traitsIcESaIcEEEE4baseEv
FNDA:0,_ZNK9__gnu_cxx17__normal_iteratorIPKdSt6vectorIdSaIdEEE4baseEv
FNDA:0,_ZNK9__gnu_cxx17__normal_iteratorIPN7testing12TestPropertyESt6vectorIS2_SaIS2_EEE4baseEv
FNDA:8,_ZNK9__gnu_cxx17__normal_iteratorIPN7testing14TestPartResultESt6vectorIS2_SaIS2_EEE4baseEv
FNDA:0,_ZNK9__gnu_cxx17__normal_iteratorIPN7testing8internal13edit_distance8EditTypeESt6vectorIS4_SaIS4_EEE4baseEv
FNDA:0,_ZNK9__gnu_cxx17__normal_iteratorIPN7testing8internal9TraceInfoESt6vectorIS3_SaIS3_EEE4baseEv
FNDA:234,_ZNK9__gnu_cxx17__normal_iteratorIPNSt7__cxx1112basic_stringIcSt11char_traitsIcESaIcEEESt6vectorIS6_SaIS6_EEE4baseEv
FNDA:2,_ZNK9__gnu_cxx17__normal_iteratorIPPN7testing11EnvironmentESt6vectorIS3_SaIS3_EEE4baseEv
FNDA:4,_ZNK9__gnu_cxx17__normal_iteratorIPPN7testing17TestEventListenerESt6vectorIS3_SaIS3_EEE4baseEv
FNDA:240,_ZNK9__gnu_cxx17__normal_iteratorIPPN7testing8TestInfoESt6vectorIS3_SaIS3_EEE4baseEv
FNDA:4,_ZNK9__gnu_cxx17__normal_iteratorIPPN7testing8internal30ParameterizedTestSuiteInfoBaseESt6vectorIS4_SaIS4_EEE4baseEv
FNDA:32,_ZNK9__gnu_cxx17__normal_iteratorIPPN7testing9TestSuiteESt6vectorIS3_SaIS3_EEE4baseEv
FNDA:0,_ZNK9__gnu_cxx17__normal_iteratorIPPcSt6vectorIS1_SaIS1_EEE4baseEv
FNDA:83,_ZNK9__gnu_cxx17__normal_iteratorIPcNSt7__cxx1112basic_stringIcSt11char_traitsIcESaIcEEEE4baseEv
FNDA:44,_ZNK9__gnu_cxx17__normal_iteratorIPiSt6vectorIiSaIiEEE4baseEv
FNDA:0,_ZNK9__gnu_cxx17__normal_iteratorIPmSt6vectorImSaImEEE4baseEv
FNDA:0,_ZN9__gnu_cxxeqIPKPN7testing9TestSuiteEPS3_St6vectorIS3_SaIS3_EEEEbRKNS_17__normal_iteratorIT_T1_EERKNSA_IT0_SC_EE
FNDA:0,_ZN9__gnu_cxxeqIPKN7testing8internal13edit_distance8EditTypeESt6vectorIS4_SaIS4_EEEEbRKNS_17__normal_iteratorIT_T0_EESF_
FNDA:2,_ZN9__gnu_cxxeqIPKN7testing8internal9TraceInfoESt6vectorIS3_SaIS3_EEEEbRKNS_17__normal_iteratorIT_T0_EESE_
FNDA:57,_ZN9__gnu_cxxeqIPKNSt7__cxx1112basic_stringIcSt11char_traitsIcESaIcEEESt6vectorIS6_SaIS6_EEEEbRKNS_17__normal_iteratorIT_T0_EESH_
FNDA:7,_ZN9__gnu_cxxeqIPKPN7testing9TestSuiteESt6vectorIS3_SaIS3_EEEEbRKNS_17__normal_iteratorIT_T0_EESE_
FNDA:18,_ZN9__gnu_cxxeqIPKcNSt7__cxx1112basic_stringIcSt11char_traitsIcESaIcEEEEEbRKNS_17__normal_iteratorIT_T0_EESE_
FNDA:0,_ZN9__gnu_cxxeqIPN7testing12TestPropertyESt6vectorIS2_SaIS2_EEEEbRKNS_17__normal_iteratorIT_T0_EESC_
FNDA:0,_ZN9__gnu_cxxeqIPN7testing8internal13edit_distance8EditTypeESt6vectorIS4_SaIS4_EEEEbRKNS_17__normal_iteratorIT_T0_EESE_
FNDA:28,_ZN9__gnu_cxxeqIPNSt7__cxx1112basic_stringIcSt11char_traitsIcESaIcEEESt6vectorIS6_SaIS6_EEEEbRKNS_17__normal_iteratorIT_T0_EESG_
FNDA:1,_ZN9__gnu_cxxeqIPPN7testing11EnvironmentESt6vectorIS3_SaIS3_EEEEbRKNS_17__normal_iteratorIT_T0_EESD_
FNDA:28,_ZN9__gnu_cxxeqIPPN7testing8TestInfoESt6vectorIS3_SaIS3_EEEEbRKNS_17__normal_iteratorIT_T0_EESD_
FNDA:4,_ZN9__gnu_cxxeqIPcNSt7__cxx1112basic_stringIcSt11char_traitsIcESaIcEEEEEbRKNS_17__normal_iteratorIT_T0_EESD_
FNDA:0,_ZN9__gnu_cxxneIPKNSt7__cxx1112basic_stringIcSt11char_traitsIcESaIcEEEPS6_St6vectorIS6_SaIS6_EEEEbRKNS_17__normal_iteratorIT_T1_EERKNSD_IT0_SF_EE
FNDA:25,_ZN9__gnu_cxxneIPKcPcNSt7__cxx1112basic_stringIcSt11char_traitsIcESaIcEEEEEbRKNS_17__normal_iteratorIT_T1_EERKNSA_IT0_SC_EE
FNDA:6,_ZN9__gnu_cxxneIP9HashEntrySt6vectorIS1_SaIS1_EEEEbRKNS_17__normal_iteratorIT_T0_EESB_
FNDA:55,_ZN9__gnu_cxxneIPKN7testing14TestPartResultESt6vectorIS2_SaIS2_EEEEbRKNS_17__normal_iteratorIT_T0_EESD_
FNDA:0,_ZN9__gnu_cxxneIPKN7testing8internal13edit_distance8EditTypeESt6vectorIS4_SaIS4_EEEEbRKNS_17__normal_iteratorIT_T0_EESF_
FNDA:3,_ZN9__gnu_cxxneIPKNSt7__cxx1112basic_stringIcSt11char_traitsIcESaIcEEESt6vectorIS6_SaIS6_EEEEbRKNS_17__normal_iteratorIT_T0_EESH_
FNDA:3,_ZN9__gnu_cxxneIPKPN7testing11EnvironmentESt6vectorIS3_SaIS3_EEEEbRKNS_17__normal_iteratorIT_T0_EESE_
FNDA:2,_ZN9__gnu_cxxneIPKPN7testing17TestEventListenerESt6vectorIS3_SaIS3_EEEEbRKNS_17__normal_iteratorIT_T0_EESE_
FNDA:182,_ZN9__gnu_cxxneIPKPN7testing8TestInfoESt6vectorIS3_SaIS3_EEEEbRKNS_17__normal_iteratorIT_T0_EESE_
FNDA:49,_ZN9__gnu_cxxneIPKPN7testing9TestSuiteESt6vectorIS3_SaIS3_EEEEbRKNS_17__normal_iteratorIT_T0_EESE_
FNDA:0,_ZN9__gnu_cxxneIPKcNSt7__cxx1112basic_stringIcSt11char_traitsIcESaIcEEEEEbRKNS_17__normal_iteratorIT_T0_EESE_
FNDA:0,_ZN9__gnu_cxxneIPNSt7__cxx1112basic_stringIcSt11char_traitsIcESaIcEEESt6vectorIS6_SaIS6_EEEEbRKNS_17__normal_iteratorIT_T0_EESG_
FNDA:0,_ZN9__gnu_cxxneIPPN7testing17TestEventListenerESt6vectorIS3_SaIS3_EEEEbRKNS_17__normal_iteratorIT_T0_EESD_
FNDA:22,_ZN9__gnu_cxxneIPPN7testing8TestInfoESt6vectorIS3_SaIS3_EEEEbRKNS_17__normal_iteratorIT_T0_EESD_
FNDA:2,_ZN9__gnu_cxxneIPPN7testing8internal30ParameterizedTestSuiteInfoBaseESt6vectorIS4_SaIS4_EEEEbRKNS_17__normal_iteratorIT_T0_EESE_
FNDA:8,_ZN9__gnu_cxxneIPPN7testing9TestSuiteESt6vectorIS3_SaIS3_EEEEbRKNS_17__normal_iteratorIT_T0_EESD_
FNDA:24,_ZN9__gnu_cxxneIPcNSt7__cxx1112basic_stringIcSt11char_traitsIcESaIcEEEEEbRKNS_17__normal_iteratorIT_T0_EESD_
FNDA:0,_ZN9__gnu_cxxltIPN7testing8internal13edit_distance8EditTypeESt6vectorIS4_SaIS4_EEEEbRKNS_17__normal_iteratorIT_T0_EESE_
FNDA:0,_ZN9__gnu_cxxmiIPKPN7testing9TestSuiteEPS3_St6vectorIS3_SaIS3_EEEEDTmicldtfp_4baseEcldtfp0_4baseEERKNS_17__normal_iteratorIT_T1_EERKNSB_IT0_SD_EE
FNDA:0,_ZN9__gnu_cxxmiIPKN7testing8internal13edit_distance8EditTypeESt6vectorIS4_SaIS4_EEEENS_17__normal_iteratorIT_T0_E15difference_typeERKSD_SG_
FNDA:92,_ZN9__gnu_cxxmiIPKNSt7__cxx1112basic_stringIcSt11char_traitsIcESaIcEEESt6vectorIS6_SaIS6_EEEENS_17__normal_iteratorIT_T0_E15difference_typeERKSF_SI_
FNDA:0,_ZN9__gnu_cxxmiIPKPN7testing17TestEventListenerESt6vectorIS3_SaIS3_EEEENS_17__normal_iteratorIT_T0_E15difference_typeERKSC_SF_
FNDA:0,_ZN9__gnu_cxxmiIPKPN7testing9TestSuiteESt6vectorIS3_SaIS3_EEEENS_17__normal_iteratorIT_T0_E15difference_typeERKSC_SF_
FNDA:21,_ZN9__gnu_cxxmiIPKcNSt7__cxx1112basic_stringIcSt11char_traitsIcESaIcEEEEENS_17__normal_iteratorIT_T0_E15difference_typeERKSC_SF_
FNDA:0,_ZN9__gnu_cxxmiIPN7testing12TestPropertyESt6vectorIS2_SaIS2_EEEENS_17__normal_iteratorIT_T0_E15difference_typeERKSA_SD_
FNDA:2,_ZN9__gnu_cxxmiIPN7testing14TestPartResultESt6vectorIS2_SaIS2_EEEENS_17__normal_iteratorIT_T0_E15difference_typeERKSA_SD_
FNDA:0,_ZN9__gnu_cxxmiIPN7testing8internal13edit_distance8EditTypeESt6vectorIS4_SaIS4_EEEENS_17__normal_iteratorIT_T0_E15difference_typeERKSC_SF_
FNDA:0,_ZN9__gnu_cxxmiIPN7testing8internal9TraceInfoESt6vectorIS3_SaIS3_EEEENS_17__normal_iteratorIT_T0_E15difference_typeERKSB_SE_
FNDA:35,_ZN9__gnu_cxxmiIPNSt7__cxx1112basic_stringIcSt11char_traitsIcESaIcEEESt6vectorIS6_SaIS6_EEEENS_17__normal_iteratorIT_T0_E15difference_typeERKSE_SH_
FNDA:0,_ZN9__gnu_cxxmiIPPN7testing11EnvironmentESt6vectorIS3_SaIS3_EEEENS_17__normal_iteratorIT_T0_E15difference_typeERKSB_SE_
FNDA:1,_ZN9__gnu_cxxmiIPPN7testing17TestEventListenerESt6vectorIS3_SaIS3_EEEENS_17__normal_iteratorIT_T0_E15difference_typeERKSB_SE_
FNDA:56,_ZN9__gnu_cxxmiIPPN7testing8TestInfoESt6vectorIS3_SaIS3_EEEENS_17__normal_iteratorIT_T0_E15difference_typeERKSB_SE_
FNDA:4,_ZN9__gnu_cxxmiIPPN7testing9TestSuiteESt6vectorIS3_SaIS3_EEEENS_17__normal_iteratorIT_T0_E15difference_typeERKSB_SE_
FNDA:0,_ZN9__gnu_cxxmiIPPcSt6vectorIS1_SaIS1_EEEENS_17__normal_iteratorIT_T0_E15difference_typeERKS9_SC_
FNDA:11,_ZN9__gnu_cxxmiIPiSt6vectorIiSaIiEEEENS_17__normal_iteratorIT_T0_E15difference_typeERKS8_SB_
FNDA:0,_ZN9__gnu_cxxmiIPmSt6vectorImSaImEEEENS_17__normal_iteratorIT_T0_E15difference_typeERKS8_SB_
FNDA:0,_ZSt12__niter_baseIPKN7testing8internal13edit_distance8EditTypeESt6vectorIS3_SaIS3_EEET_N9__gnu_cxx17__normal_iteratorIS9_T0_EE
FNDA:0,_ZSt12__niter_baseIPKdSt6vectorIdSaIdEEET_N9__gnu_cxx17__normal_iteratorIS5_T0_EE
FNDA:40,_ZSt12__niter_baseIPNSt7__cxx1112basic_stringIcSt11char_traitsIcESaIcEEESt6vectorIS5_SaIS5_EEET_N9__gnu_cxx17__normal_iteratorISA_T0_EE
FNDA:0,_ZSt12__niter_baseIPPN7testing17TestEventListenerESt6vectorIS2_SaIS2_EEET_N9__gnu_cxx17__normal_iteratorIS7_T0_EE
FNDA:14,_ZSt12__niter_baseIPPN7testing8TestInfoESt6vectorIS2_SaIS2_EEET_N9__gnu_cxx17__normal_iteratorIS7_T0_EE
FNDA:2,_ZNSt16reverse_iteratorIN9__gnu_cxx17__normal_iteratorIPPN7testing11EnvironmentESt6vectorIS4_SaIS4_EEEEEC2ES9_
FNDA:6,_ZNSt16reverse_iteratorIN9__gnu_cxx17__normal_iteratorIPPN7testing9TestSuiteESt6vectorIS4_SaIS4_EEEEEC2ES9_
FNDA:2,_ZNKSt16reverse_iteratorIN9__gnu_cxx17__normal_iteratorIPPN7testing11EnvironmentESt6vectorIS4_SaIS4_EEEEE4baseEv
FNDA:0,_ZNKSt16reverse_iteratorIN9__gnu_cxx17__normal_iteratorIPPN7testing11EnvironmentESt6vectorIS4_SaIS4_EEEEEdeEv
FNDA:6,_ZNKSt16reverse_iteratorIN9__gnu_cxx17__normal_iteratorIPPN7testing9TestSuiteESt6vectorIS4_SaIS4_EEEEEdeEv
FNDA:0,_ZNSt16reverse_iteratorIN9__gnu_cxx17__normal_iteratorIPPN7testing11EnvironmentESt6vectorIS4_SaIS4_EEEEEppEv
FNDA:1,_ZSteqIN9__gnu_cxx17__normal_iteratorIPPN7testing11EnvironmentESt6vectorIS4_SaIS4_EEEEEbRKSt16reverse_iteratorIT_ESE_
FNDA:1,_ZStneIN9__gnu_cxx17__normal_iteratorIPPN7testing11EnvironmentESt6vectorIS4_SaIS4_EEEEEbRKSt16reverse_iteratorIT_ESE_
FNDA:10,_ZNSt15insert_iteratorISt13unordered_setINSt7__cxx1112basic_stringIcSt11char_traitsIcESaIcEEESt4hashIS6_ESt8equal_toIS6_ESaIS6_EEEC2ERSC_NSt8__detail14_Node_iteratorIS6_Lb1ELb1EEE
FNDA:10,_ZNSt15insert_iteratorISt6vectorINSt7__cxx1112basic_stringIcSt11char_traitsIcESaIcEEESaIS6_EEEC2ERS8_N9__gnu_cxx17__normal_iteratorIPS6_S8_EE
FNDA:0,_ZNSt15insert_iteratorISt13unordered_setINSt7__cxx1112basic_stringIcSt11char_traitsIcESaIcEEESt4hashIS6_ESt8equal_toIS6_ESaIS6_EEEaSEOS6_
FNDA:18,_ZNSt15insert_iteratorISt6vectorINSt7__cxx1112basic_stringIcSt11char_traitsIcESaIcEEESaIS6_EEEaSEOS6_
FNDA:0,_ZNSt15insert_iteratorISt13unordered_setINSt7__cxx1112basic_stringIcSt11char_traitsIcESaIcEEESt4hashIS6_ESt8equal_toIS6_ESaIS6_EEEdeEv
FNDA:18,_ZNSt15insert_iteratorISt6vectorINSt7__cxx1112basic_stringIcSt11char_traitsIcESaIcEEESaIS6_EEEdeEv
FNDA:0,_ZNSt15insert_iteratorISt13unordered_setINSt7__cxx1112basic_stringIcSt11char_traitsIcESaIcEEESt4hashIS6_ESt8equal_toIS6_ESaIS6_EEEppEv
FNDA:18,_ZNSt15insert_iteratorISt6vectorINSt7__cxx1112basic_stringIcSt11char_traitsIcESaIcEEESaIS6_EEEppEv
FNF:181
FNH:107
DA:195,8
DA:197,8
DA:198,8
DA:248,2
DA:250,2
DA:264,6
DA:266,6
DA:267,6
DA:296,0
DA:298,0
DA:299,0
DA:448,1
DA:450,1
DA:462,1
DA:464,1
DA:929,20
DA:930,20
DA:975,18
DA:977,18
DA:978,18
DA:979,18
DA:986,18
DA:987,18
DA:992,18
DA:993,18
DA:1026,20
DA:1027,20
DA:1072,0
DA:1073,0
DA:1076,897
DA:1077,897
DA:1083,20
DA:1094,20
DA:1099,361
DA:1100,361
DA:1104,0
DA:1105,0
DA:1109,277
DA:1111,277
DA:1112,277
DA:1117,24
DA:1118,24
DA:1123,6
DA:1125,6
DA:1126,6
DA:1142,3
DA:1143,3
DA:1147,14
DA:1148,14
DA:1157,39
DA:1158,39
DA:1162,1670
DA:1163,1670
DA:1217,0
DA:1220,0
DA:1225,145
DA:1228,145
DA:1233,25
DA:1236,25
DA:1241,356
DA:1244,356
DA:1258,0
DA:1261,0
DA:1321,0
DA:1329,0
DA:1334,222
DA:1337,222
DA:1357,54
DA:1359,54
LF:69
LH:56
end_of_record
TN:
SF:/usr/include/c++/13/bits/stl_iterator_base_funcs.h
FN:184,196,_ZSt9__advanceIN9__gnu_cxx17__normal_iteratorIPPN7testing8TestInfoESt6vectorIS4_SaIS4_EEEElEvRT_T0_St26random_access_iterator_tag
FN:184,196,_ZSt9__advanceIN9__gnu_cxx17__normal_iteratorIPcNSt7__cxx1112basic_stringIcSt11char_traitsIcESaIcEEEEElEvRT_T0_St26random_access_iterator_tag
FNDA:0,_ZSt9__advanceIN9__gnu_cxx17__normal_iteratorIPPN7testing8TestInfoESt6vectorIS4_SaIS4_EEEElEvRT_T0_St26random_access_iterator_tag
FNDA:3,_ZSt9__advanceIN9__gnu_cxx17__normal_iteratorIPcNSt7__cxx1112basic_stringIcSt11char_traitsIcESaIcEEEEElEvRT_T0_St26random_access_iterator_tag
FNF:2
FNH:1
DA:106,157
DA:151,304
DA:152,314
DA:184,3
DA:195,3
DA:196,3
DA:223,0
DA:224,3
DA:225,3
DA:250,3
DA:251,3
LF:11
LH:10
end_of_record
TN:
SF:/usr/include/c++/13/bits/stl_iterator_base_types.h
FNF:0
FNH:0
DA:240,226
LF:1
LH:1
end_of_record
TN:
SF:/usr/include/c++/13/bits/stl_list.h
